ARM GAS  /tmp/cckNMhWV.s 			page 1


   1              		.cpu cortex-m0plus
   2              		.arch armv6s-m
   3              		.fpu softvfp
   4              		.eabi_attribute 20, 1
   5              		.eabi_attribute 21, 1
   6              		.eabi_attribute 23, 3
   7              		.eabi_attribute 24, 1
   8              		.eabi_attribute 25, 1
   9              		.eabi_attribute 26, 1
  10              		.eabi_attribute 30, 1
  11              		.eabi_attribute 34, 0
  12              		.eabi_attribute 18, 4
  13              		.file	"stm32l0xx_ll_tim.c"
  14              		.text
  15              	.Ltext0:
  16              		.cfi_sections	.debug_frame
  17              		.section	.text.OC1Config,"ax",%progbits
  18              		.align	1
  19              		.syntax unified
  20              		.code	16
  21              		.thumb_func
  23              	OC1Config:
  24              	.LVL0:
  25              	.LFB220:
  26              		.file 1 "Drivers/STM32L0xx_HAL_Driver/Src/stm32l0xx_ll_tim.c"
   1:Drivers/STM32L0xx_HAL_Driver/Src/stm32l0xx_ll_tim.c **** /**
   2:Drivers/STM32L0xx_HAL_Driver/Src/stm32l0xx_ll_tim.c ****   ******************************************************************************
   3:Drivers/STM32L0xx_HAL_Driver/Src/stm32l0xx_ll_tim.c ****   * @file    stm32l0xx_ll_tim.c
   4:Drivers/STM32L0xx_HAL_Driver/Src/stm32l0xx_ll_tim.c ****   * @author  MCD Application Team
   5:Drivers/STM32L0xx_HAL_Driver/Src/stm32l0xx_ll_tim.c ****   * @brief   TIM LL module driver.
   6:Drivers/STM32L0xx_HAL_Driver/Src/stm32l0xx_ll_tim.c ****   ******************************************************************************
   7:Drivers/STM32L0xx_HAL_Driver/Src/stm32l0xx_ll_tim.c ****   * @attention
   8:Drivers/STM32L0xx_HAL_Driver/Src/stm32l0xx_ll_tim.c ****   *
   9:Drivers/STM32L0xx_HAL_Driver/Src/stm32l0xx_ll_tim.c ****   * <h2><center>&copy; Copyright (c) 2016 STMicroelectronics.
  10:Drivers/STM32L0xx_HAL_Driver/Src/stm32l0xx_ll_tim.c ****   * All rights reserved.</center></h2>
  11:Drivers/STM32L0xx_HAL_Driver/Src/stm32l0xx_ll_tim.c ****   *
  12:Drivers/STM32L0xx_HAL_Driver/Src/stm32l0xx_ll_tim.c ****   * This software component is licensed by ST under BSD 3-Clause license,
  13:Drivers/STM32L0xx_HAL_Driver/Src/stm32l0xx_ll_tim.c ****   * the "License"; You may not use this file except in compliance with the
  14:Drivers/STM32L0xx_HAL_Driver/Src/stm32l0xx_ll_tim.c ****   * License. You may obtain a copy of the License at:
  15:Drivers/STM32L0xx_HAL_Driver/Src/stm32l0xx_ll_tim.c ****   *                        opensource.org/licenses/BSD-3-Clause
  16:Drivers/STM32L0xx_HAL_Driver/Src/stm32l0xx_ll_tim.c ****   *
  17:Drivers/STM32L0xx_HAL_Driver/Src/stm32l0xx_ll_tim.c ****   ******************************************************************************
  18:Drivers/STM32L0xx_HAL_Driver/Src/stm32l0xx_ll_tim.c ****   */
  19:Drivers/STM32L0xx_HAL_Driver/Src/stm32l0xx_ll_tim.c **** #if defined(USE_FULL_LL_DRIVER)
  20:Drivers/STM32L0xx_HAL_Driver/Src/stm32l0xx_ll_tim.c **** 
  21:Drivers/STM32L0xx_HAL_Driver/Src/stm32l0xx_ll_tim.c **** /* Includes ------------------------------------------------------------------*/
  22:Drivers/STM32L0xx_HAL_Driver/Src/stm32l0xx_ll_tim.c **** #include "stm32l0xx_ll_tim.h"
  23:Drivers/STM32L0xx_HAL_Driver/Src/stm32l0xx_ll_tim.c **** #include "stm32l0xx_ll_bus.h"
  24:Drivers/STM32L0xx_HAL_Driver/Src/stm32l0xx_ll_tim.c **** 
  25:Drivers/STM32L0xx_HAL_Driver/Src/stm32l0xx_ll_tim.c **** #ifdef  USE_FULL_ASSERT
  26:Drivers/STM32L0xx_HAL_Driver/Src/stm32l0xx_ll_tim.c **** #include "stm32_assert.h"
  27:Drivers/STM32L0xx_HAL_Driver/Src/stm32l0xx_ll_tim.c **** #else
  28:Drivers/STM32L0xx_HAL_Driver/Src/stm32l0xx_ll_tim.c **** #define assert_param(expr) ((void)0U)
  29:Drivers/STM32L0xx_HAL_Driver/Src/stm32l0xx_ll_tim.c **** #endif /* USE_FULL_ASSERT */
  30:Drivers/STM32L0xx_HAL_Driver/Src/stm32l0xx_ll_tim.c **** 
  31:Drivers/STM32L0xx_HAL_Driver/Src/stm32l0xx_ll_tim.c **** /** @addtogroup STM32L0xx_LL_Driver
  32:Drivers/STM32L0xx_HAL_Driver/Src/stm32l0xx_ll_tim.c ****   * @{
ARM GAS  /tmp/cckNMhWV.s 			page 2


  33:Drivers/STM32L0xx_HAL_Driver/Src/stm32l0xx_ll_tim.c ****   */
  34:Drivers/STM32L0xx_HAL_Driver/Src/stm32l0xx_ll_tim.c **** 
  35:Drivers/STM32L0xx_HAL_Driver/Src/stm32l0xx_ll_tim.c **** #if defined (TIM2) || defined (TIM3) || defined (TIM21) || defined (TIM22) || defined (TIM6) || def
  36:Drivers/STM32L0xx_HAL_Driver/Src/stm32l0xx_ll_tim.c **** 
  37:Drivers/STM32L0xx_HAL_Driver/Src/stm32l0xx_ll_tim.c **** /** @addtogroup TIM_LL
  38:Drivers/STM32L0xx_HAL_Driver/Src/stm32l0xx_ll_tim.c ****   * @{
  39:Drivers/STM32L0xx_HAL_Driver/Src/stm32l0xx_ll_tim.c ****   */
  40:Drivers/STM32L0xx_HAL_Driver/Src/stm32l0xx_ll_tim.c **** 
  41:Drivers/STM32L0xx_HAL_Driver/Src/stm32l0xx_ll_tim.c **** /* Private types -------------------------------------------------------------*/
  42:Drivers/STM32L0xx_HAL_Driver/Src/stm32l0xx_ll_tim.c **** /* Private variables ---------------------------------------------------------*/
  43:Drivers/STM32L0xx_HAL_Driver/Src/stm32l0xx_ll_tim.c **** /* Private constants ---------------------------------------------------------*/
  44:Drivers/STM32L0xx_HAL_Driver/Src/stm32l0xx_ll_tim.c **** /* Private macros ------------------------------------------------------------*/
  45:Drivers/STM32L0xx_HAL_Driver/Src/stm32l0xx_ll_tim.c **** /** @addtogroup TIM_LL_Private_Macros
  46:Drivers/STM32L0xx_HAL_Driver/Src/stm32l0xx_ll_tim.c ****   * @{
  47:Drivers/STM32L0xx_HAL_Driver/Src/stm32l0xx_ll_tim.c ****   */
  48:Drivers/STM32L0xx_HAL_Driver/Src/stm32l0xx_ll_tim.c **** #define IS_LL_TIM_COUNTERMODE(__VALUE__) (((__VALUE__) == LL_TIM_COUNTERMODE_UP) \
  49:Drivers/STM32L0xx_HAL_Driver/Src/stm32l0xx_ll_tim.c ****                                           || ((__VALUE__) == LL_TIM_COUNTERMODE_DOWN) \
  50:Drivers/STM32L0xx_HAL_Driver/Src/stm32l0xx_ll_tim.c ****                                           || ((__VALUE__) == LL_TIM_COUNTERMODE_CENTER_UP) \
  51:Drivers/STM32L0xx_HAL_Driver/Src/stm32l0xx_ll_tim.c ****                                           || ((__VALUE__) == LL_TIM_COUNTERMODE_CENTER_DOWN) \
  52:Drivers/STM32L0xx_HAL_Driver/Src/stm32l0xx_ll_tim.c ****                                           || ((__VALUE__) == LL_TIM_COUNTERMODE_CENTER_UP_DOWN))
  53:Drivers/STM32L0xx_HAL_Driver/Src/stm32l0xx_ll_tim.c **** 
  54:Drivers/STM32L0xx_HAL_Driver/Src/stm32l0xx_ll_tim.c **** #define IS_LL_TIM_CLOCKDIVISION(__VALUE__) (((__VALUE__) == LL_TIM_CLOCKDIVISION_DIV1) \
  55:Drivers/STM32L0xx_HAL_Driver/Src/stm32l0xx_ll_tim.c ****                                             || ((__VALUE__) == LL_TIM_CLOCKDIVISION_DIV2) \
  56:Drivers/STM32L0xx_HAL_Driver/Src/stm32l0xx_ll_tim.c ****                                             || ((__VALUE__) == LL_TIM_CLOCKDIVISION_DIV4))
  57:Drivers/STM32L0xx_HAL_Driver/Src/stm32l0xx_ll_tim.c **** 
  58:Drivers/STM32L0xx_HAL_Driver/Src/stm32l0xx_ll_tim.c **** #define IS_LL_TIM_OCMODE(__VALUE__) (((__VALUE__) == LL_TIM_OCMODE_FROZEN) \
  59:Drivers/STM32L0xx_HAL_Driver/Src/stm32l0xx_ll_tim.c ****                                      || ((__VALUE__) == LL_TIM_OCMODE_ACTIVE) \
  60:Drivers/STM32L0xx_HAL_Driver/Src/stm32l0xx_ll_tim.c ****                                      || ((__VALUE__) == LL_TIM_OCMODE_INACTIVE) \
  61:Drivers/STM32L0xx_HAL_Driver/Src/stm32l0xx_ll_tim.c ****                                      || ((__VALUE__) == LL_TIM_OCMODE_TOGGLE) \
  62:Drivers/STM32L0xx_HAL_Driver/Src/stm32l0xx_ll_tim.c ****                                      || ((__VALUE__) == LL_TIM_OCMODE_FORCED_INACTIVE) \
  63:Drivers/STM32L0xx_HAL_Driver/Src/stm32l0xx_ll_tim.c ****                                      || ((__VALUE__) == LL_TIM_OCMODE_FORCED_ACTIVE) \
  64:Drivers/STM32L0xx_HAL_Driver/Src/stm32l0xx_ll_tim.c ****                                      || ((__VALUE__) == LL_TIM_OCMODE_PWM1) \
  65:Drivers/STM32L0xx_HAL_Driver/Src/stm32l0xx_ll_tim.c ****                                      || ((__VALUE__) == LL_TIM_OCMODE_PWM2))
  66:Drivers/STM32L0xx_HAL_Driver/Src/stm32l0xx_ll_tim.c **** 
  67:Drivers/STM32L0xx_HAL_Driver/Src/stm32l0xx_ll_tim.c **** #define IS_LL_TIM_OCSTATE(__VALUE__) (((__VALUE__) == LL_TIM_OCSTATE_DISABLE) \
  68:Drivers/STM32L0xx_HAL_Driver/Src/stm32l0xx_ll_tim.c ****                                       || ((__VALUE__) == LL_TIM_OCSTATE_ENABLE))
  69:Drivers/STM32L0xx_HAL_Driver/Src/stm32l0xx_ll_tim.c **** 
  70:Drivers/STM32L0xx_HAL_Driver/Src/stm32l0xx_ll_tim.c **** #define IS_LL_TIM_OCPOLARITY(__VALUE__) (((__VALUE__) == LL_TIM_OCPOLARITY_HIGH) \
  71:Drivers/STM32L0xx_HAL_Driver/Src/stm32l0xx_ll_tim.c ****                                          || ((__VALUE__) == LL_TIM_OCPOLARITY_LOW))
  72:Drivers/STM32L0xx_HAL_Driver/Src/stm32l0xx_ll_tim.c **** 
  73:Drivers/STM32L0xx_HAL_Driver/Src/stm32l0xx_ll_tim.c **** #define IS_LL_TIM_ACTIVEINPUT(__VALUE__) (((__VALUE__) == LL_TIM_ACTIVEINPUT_DIRECTTI) \
  74:Drivers/STM32L0xx_HAL_Driver/Src/stm32l0xx_ll_tim.c ****                                           || ((__VALUE__) == LL_TIM_ACTIVEINPUT_INDIRECTTI) \
  75:Drivers/STM32L0xx_HAL_Driver/Src/stm32l0xx_ll_tim.c ****                                           || ((__VALUE__) == LL_TIM_ACTIVEINPUT_TRC))
  76:Drivers/STM32L0xx_HAL_Driver/Src/stm32l0xx_ll_tim.c **** 
  77:Drivers/STM32L0xx_HAL_Driver/Src/stm32l0xx_ll_tim.c **** #define IS_LL_TIM_ICPSC(__VALUE__) (((__VALUE__) == LL_TIM_ICPSC_DIV1) \
  78:Drivers/STM32L0xx_HAL_Driver/Src/stm32l0xx_ll_tim.c ****                                     || ((__VALUE__) == LL_TIM_ICPSC_DIV2) \
  79:Drivers/STM32L0xx_HAL_Driver/Src/stm32l0xx_ll_tim.c ****                                     || ((__VALUE__) == LL_TIM_ICPSC_DIV4) \
  80:Drivers/STM32L0xx_HAL_Driver/Src/stm32l0xx_ll_tim.c ****                                     || ((__VALUE__) == LL_TIM_ICPSC_DIV8))
  81:Drivers/STM32L0xx_HAL_Driver/Src/stm32l0xx_ll_tim.c **** 
  82:Drivers/STM32L0xx_HAL_Driver/Src/stm32l0xx_ll_tim.c **** #define IS_LL_TIM_IC_FILTER(__VALUE__) (((__VALUE__) == LL_TIM_IC_FILTER_FDIV1) \
  83:Drivers/STM32L0xx_HAL_Driver/Src/stm32l0xx_ll_tim.c ****                                         || ((__VALUE__) == LL_TIM_IC_FILTER_FDIV1_N2) \
  84:Drivers/STM32L0xx_HAL_Driver/Src/stm32l0xx_ll_tim.c ****                                         || ((__VALUE__) == LL_TIM_IC_FILTER_FDIV1_N4) \
  85:Drivers/STM32L0xx_HAL_Driver/Src/stm32l0xx_ll_tim.c ****                                         || ((__VALUE__) == LL_TIM_IC_FILTER_FDIV1_N8) \
  86:Drivers/STM32L0xx_HAL_Driver/Src/stm32l0xx_ll_tim.c ****                                         || ((__VALUE__) == LL_TIM_IC_FILTER_FDIV2_N6) \
  87:Drivers/STM32L0xx_HAL_Driver/Src/stm32l0xx_ll_tim.c ****                                         || ((__VALUE__) == LL_TIM_IC_FILTER_FDIV2_N8) \
  88:Drivers/STM32L0xx_HAL_Driver/Src/stm32l0xx_ll_tim.c ****                                         || ((__VALUE__) == LL_TIM_IC_FILTER_FDIV4_N6) \
  89:Drivers/STM32L0xx_HAL_Driver/Src/stm32l0xx_ll_tim.c ****                                         || ((__VALUE__) == LL_TIM_IC_FILTER_FDIV4_N8) \
ARM GAS  /tmp/cckNMhWV.s 			page 3


  90:Drivers/STM32L0xx_HAL_Driver/Src/stm32l0xx_ll_tim.c ****                                         || ((__VALUE__) == LL_TIM_IC_FILTER_FDIV8_N6) \
  91:Drivers/STM32L0xx_HAL_Driver/Src/stm32l0xx_ll_tim.c ****                                         || ((__VALUE__) == LL_TIM_IC_FILTER_FDIV8_N8) \
  92:Drivers/STM32L0xx_HAL_Driver/Src/stm32l0xx_ll_tim.c ****                                         || ((__VALUE__) == LL_TIM_IC_FILTER_FDIV16_N5) \
  93:Drivers/STM32L0xx_HAL_Driver/Src/stm32l0xx_ll_tim.c ****                                         || ((__VALUE__) == LL_TIM_IC_FILTER_FDIV16_N6) \
  94:Drivers/STM32L0xx_HAL_Driver/Src/stm32l0xx_ll_tim.c ****                                         || ((__VALUE__) == LL_TIM_IC_FILTER_FDIV16_N8) \
  95:Drivers/STM32L0xx_HAL_Driver/Src/stm32l0xx_ll_tim.c ****                                         || ((__VALUE__) == LL_TIM_IC_FILTER_FDIV32_N5) \
  96:Drivers/STM32L0xx_HAL_Driver/Src/stm32l0xx_ll_tim.c ****                                         || ((__VALUE__) == LL_TIM_IC_FILTER_FDIV32_N6) \
  97:Drivers/STM32L0xx_HAL_Driver/Src/stm32l0xx_ll_tim.c ****                                         || ((__VALUE__) == LL_TIM_IC_FILTER_FDIV32_N8))
  98:Drivers/STM32L0xx_HAL_Driver/Src/stm32l0xx_ll_tim.c **** 
  99:Drivers/STM32L0xx_HAL_Driver/Src/stm32l0xx_ll_tim.c **** #define IS_LL_TIM_IC_POLARITY(__VALUE__) (((__VALUE__) == LL_TIM_IC_POLARITY_RISING) \
 100:Drivers/STM32L0xx_HAL_Driver/Src/stm32l0xx_ll_tim.c ****                                           || ((__VALUE__) == LL_TIM_IC_POLARITY_FALLING) \
 101:Drivers/STM32L0xx_HAL_Driver/Src/stm32l0xx_ll_tim.c ****                                           || ((__VALUE__) == LL_TIM_IC_POLARITY_BOTHEDGE))
 102:Drivers/STM32L0xx_HAL_Driver/Src/stm32l0xx_ll_tim.c **** 
 103:Drivers/STM32L0xx_HAL_Driver/Src/stm32l0xx_ll_tim.c **** #define IS_LL_TIM_ENCODERMODE(__VALUE__) (((__VALUE__) == LL_TIM_ENCODERMODE_X2_TI1) \
 104:Drivers/STM32L0xx_HAL_Driver/Src/stm32l0xx_ll_tim.c ****                                           || ((__VALUE__) == LL_TIM_ENCODERMODE_X2_TI2) \
 105:Drivers/STM32L0xx_HAL_Driver/Src/stm32l0xx_ll_tim.c ****                                           || ((__VALUE__) == LL_TIM_ENCODERMODE_X4_TI12))
 106:Drivers/STM32L0xx_HAL_Driver/Src/stm32l0xx_ll_tim.c **** 
 107:Drivers/STM32L0xx_HAL_Driver/Src/stm32l0xx_ll_tim.c **** #define IS_LL_TIM_IC_POLARITY_ENCODER(__VALUE__) (((__VALUE__) == LL_TIM_IC_POLARITY_RISING) \
 108:Drivers/STM32L0xx_HAL_Driver/Src/stm32l0xx_ll_tim.c ****                                                   || ((__VALUE__) == LL_TIM_IC_POLARITY_FALLING))
 109:Drivers/STM32L0xx_HAL_Driver/Src/stm32l0xx_ll_tim.c **** /**
 110:Drivers/STM32L0xx_HAL_Driver/Src/stm32l0xx_ll_tim.c ****   * @}
 111:Drivers/STM32L0xx_HAL_Driver/Src/stm32l0xx_ll_tim.c ****   */
 112:Drivers/STM32L0xx_HAL_Driver/Src/stm32l0xx_ll_tim.c **** 
 113:Drivers/STM32L0xx_HAL_Driver/Src/stm32l0xx_ll_tim.c **** 
 114:Drivers/STM32L0xx_HAL_Driver/Src/stm32l0xx_ll_tim.c **** /* Private function prototypes -----------------------------------------------*/
 115:Drivers/STM32L0xx_HAL_Driver/Src/stm32l0xx_ll_tim.c **** /** @defgroup TIM_LL_Private_Functions TIM Private Functions
 116:Drivers/STM32L0xx_HAL_Driver/Src/stm32l0xx_ll_tim.c ****   * @{
 117:Drivers/STM32L0xx_HAL_Driver/Src/stm32l0xx_ll_tim.c ****   */
 118:Drivers/STM32L0xx_HAL_Driver/Src/stm32l0xx_ll_tim.c **** static ErrorStatus OC1Config(TIM_TypeDef *TIMx, LL_TIM_OC_InitTypeDef *TIM_OCInitStruct);
 119:Drivers/STM32L0xx_HAL_Driver/Src/stm32l0xx_ll_tim.c **** static ErrorStatus OC2Config(TIM_TypeDef *TIMx, LL_TIM_OC_InitTypeDef *TIM_OCInitStruct);
 120:Drivers/STM32L0xx_HAL_Driver/Src/stm32l0xx_ll_tim.c **** static ErrorStatus OC3Config(TIM_TypeDef *TIMx, LL_TIM_OC_InitTypeDef *TIM_OCInitStruct);
 121:Drivers/STM32L0xx_HAL_Driver/Src/stm32l0xx_ll_tim.c **** static ErrorStatus OC4Config(TIM_TypeDef *TIMx, LL_TIM_OC_InitTypeDef *TIM_OCInitStruct);
 122:Drivers/STM32L0xx_HAL_Driver/Src/stm32l0xx_ll_tim.c **** static ErrorStatus IC1Config(TIM_TypeDef *TIMx, LL_TIM_IC_InitTypeDef *TIM_ICInitStruct);
 123:Drivers/STM32L0xx_HAL_Driver/Src/stm32l0xx_ll_tim.c **** static ErrorStatus IC2Config(TIM_TypeDef *TIMx, LL_TIM_IC_InitTypeDef *TIM_ICInitStruct);
 124:Drivers/STM32L0xx_HAL_Driver/Src/stm32l0xx_ll_tim.c **** static ErrorStatus IC3Config(TIM_TypeDef *TIMx, LL_TIM_IC_InitTypeDef *TIM_ICInitStruct);
 125:Drivers/STM32L0xx_HAL_Driver/Src/stm32l0xx_ll_tim.c **** static ErrorStatus IC4Config(TIM_TypeDef *TIMx, LL_TIM_IC_InitTypeDef *TIM_ICInitStruct);
 126:Drivers/STM32L0xx_HAL_Driver/Src/stm32l0xx_ll_tim.c **** /**
 127:Drivers/STM32L0xx_HAL_Driver/Src/stm32l0xx_ll_tim.c ****   * @}
 128:Drivers/STM32L0xx_HAL_Driver/Src/stm32l0xx_ll_tim.c ****   */
 129:Drivers/STM32L0xx_HAL_Driver/Src/stm32l0xx_ll_tim.c **** 
 130:Drivers/STM32L0xx_HAL_Driver/Src/stm32l0xx_ll_tim.c **** /* Exported functions --------------------------------------------------------*/
 131:Drivers/STM32L0xx_HAL_Driver/Src/stm32l0xx_ll_tim.c **** /** @addtogroup TIM_LL_Exported_Functions
 132:Drivers/STM32L0xx_HAL_Driver/Src/stm32l0xx_ll_tim.c ****   * @{
 133:Drivers/STM32L0xx_HAL_Driver/Src/stm32l0xx_ll_tim.c ****   */
 134:Drivers/STM32L0xx_HAL_Driver/Src/stm32l0xx_ll_tim.c **** 
 135:Drivers/STM32L0xx_HAL_Driver/Src/stm32l0xx_ll_tim.c **** /** @addtogroup TIM_LL_EF_Init
 136:Drivers/STM32L0xx_HAL_Driver/Src/stm32l0xx_ll_tim.c ****   * @{
 137:Drivers/STM32L0xx_HAL_Driver/Src/stm32l0xx_ll_tim.c ****   */
 138:Drivers/STM32L0xx_HAL_Driver/Src/stm32l0xx_ll_tim.c **** 
 139:Drivers/STM32L0xx_HAL_Driver/Src/stm32l0xx_ll_tim.c **** /**
 140:Drivers/STM32L0xx_HAL_Driver/Src/stm32l0xx_ll_tim.c ****   * @brief  Set TIMx registers to their reset values.
 141:Drivers/STM32L0xx_HAL_Driver/Src/stm32l0xx_ll_tim.c ****   * @param  TIMx Timer instance
 142:Drivers/STM32L0xx_HAL_Driver/Src/stm32l0xx_ll_tim.c ****   * @retval An ErrorStatus enumeration value:
 143:Drivers/STM32L0xx_HAL_Driver/Src/stm32l0xx_ll_tim.c ****   *          - SUCCESS: TIMx registers are de-initialized
 144:Drivers/STM32L0xx_HAL_Driver/Src/stm32l0xx_ll_tim.c ****   *          - ERROR: invalid TIMx instance
 145:Drivers/STM32L0xx_HAL_Driver/Src/stm32l0xx_ll_tim.c ****   */
 146:Drivers/STM32L0xx_HAL_Driver/Src/stm32l0xx_ll_tim.c **** ErrorStatus LL_TIM_DeInit(TIM_TypeDef *TIMx)
ARM GAS  /tmp/cckNMhWV.s 			page 4


 147:Drivers/STM32L0xx_HAL_Driver/Src/stm32l0xx_ll_tim.c **** {
 148:Drivers/STM32L0xx_HAL_Driver/Src/stm32l0xx_ll_tim.c ****   ErrorStatus result = SUCCESS;
 149:Drivers/STM32L0xx_HAL_Driver/Src/stm32l0xx_ll_tim.c **** 
 150:Drivers/STM32L0xx_HAL_Driver/Src/stm32l0xx_ll_tim.c ****   /* Check the parameters */
 151:Drivers/STM32L0xx_HAL_Driver/Src/stm32l0xx_ll_tim.c ****   assert_param(IS_TIM_INSTANCE(TIMx));
 152:Drivers/STM32L0xx_HAL_Driver/Src/stm32l0xx_ll_tim.c **** 
 153:Drivers/STM32L0xx_HAL_Driver/Src/stm32l0xx_ll_tim.c ****   if (TIMx == TIM2)
 154:Drivers/STM32L0xx_HAL_Driver/Src/stm32l0xx_ll_tim.c ****   {
 155:Drivers/STM32L0xx_HAL_Driver/Src/stm32l0xx_ll_tim.c ****     LL_APB1_GRP1_ForceReset(LL_APB1_GRP1_PERIPH_TIM2);
 156:Drivers/STM32L0xx_HAL_Driver/Src/stm32l0xx_ll_tim.c ****     LL_APB1_GRP1_ReleaseReset(LL_APB1_GRP1_PERIPH_TIM2);
 157:Drivers/STM32L0xx_HAL_Driver/Src/stm32l0xx_ll_tim.c ****   }
 158:Drivers/STM32L0xx_HAL_Driver/Src/stm32l0xx_ll_tim.c **** #if defined(TIM3)
 159:Drivers/STM32L0xx_HAL_Driver/Src/stm32l0xx_ll_tim.c ****   else if (TIMx == TIM3)
 160:Drivers/STM32L0xx_HAL_Driver/Src/stm32l0xx_ll_tim.c ****   {
 161:Drivers/STM32L0xx_HAL_Driver/Src/stm32l0xx_ll_tim.c ****     LL_APB1_GRP1_ForceReset(LL_APB1_GRP1_PERIPH_TIM3);
 162:Drivers/STM32L0xx_HAL_Driver/Src/stm32l0xx_ll_tim.c ****     LL_APB1_GRP1_ReleaseReset(LL_APB1_GRP1_PERIPH_TIM3);
 163:Drivers/STM32L0xx_HAL_Driver/Src/stm32l0xx_ll_tim.c ****   }
 164:Drivers/STM32L0xx_HAL_Driver/Src/stm32l0xx_ll_tim.c **** #endif /* TIM3 */
 165:Drivers/STM32L0xx_HAL_Driver/Src/stm32l0xx_ll_tim.c **** #if defined(TIM6)
 166:Drivers/STM32L0xx_HAL_Driver/Src/stm32l0xx_ll_tim.c ****   else if (TIMx == TIM6)
 167:Drivers/STM32L0xx_HAL_Driver/Src/stm32l0xx_ll_tim.c ****   {
 168:Drivers/STM32L0xx_HAL_Driver/Src/stm32l0xx_ll_tim.c ****     LL_APB1_GRP1_ForceReset(LL_APB1_GRP1_PERIPH_TIM6);
 169:Drivers/STM32L0xx_HAL_Driver/Src/stm32l0xx_ll_tim.c ****     LL_APB1_GRP1_ReleaseReset(LL_APB1_GRP1_PERIPH_TIM6);
 170:Drivers/STM32L0xx_HAL_Driver/Src/stm32l0xx_ll_tim.c ****   }
 171:Drivers/STM32L0xx_HAL_Driver/Src/stm32l0xx_ll_tim.c **** #endif /* TIM6 */
 172:Drivers/STM32L0xx_HAL_Driver/Src/stm32l0xx_ll_tim.c **** #if defined(TIM7)
 173:Drivers/STM32L0xx_HAL_Driver/Src/stm32l0xx_ll_tim.c ****   else if (TIMx == TIM7)
 174:Drivers/STM32L0xx_HAL_Driver/Src/stm32l0xx_ll_tim.c ****   {
 175:Drivers/STM32L0xx_HAL_Driver/Src/stm32l0xx_ll_tim.c ****     LL_APB1_GRP1_ForceReset(LL_APB1_GRP1_PERIPH_TIM7);
 176:Drivers/STM32L0xx_HAL_Driver/Src/stm32l0xx_ll_tim.c ****     LL_APB1_GRP1_ReleaseReset(LL_APB1_GRP1_PERIPH_TIM7);
 177:Drivers/STM32L0xx_HAL_Driver/Src/stm32l0xx_ll_tim.c ****   }
 178:Drivers/STM32L0xx_HAL_Driver/Src/stm32l0xx_ll_tim.c **** #endif /* TIM7 */
 179:Drivers/STM32L0xx_HAL_Driver/Src/stm32l0xx_ll_tim.c ****   else if (TIMx == TIM21)
 180:Drivers/STM32L0xx_HAL_Driver/Src/stm32l0xx_ll_tim.c ****   {
 181:Drivers/STM32L0xx_HAL_Driver/Src/stm32l0xx_ll_tim.c ****     LL_APB2_GRP1_ForceReset(LL_APB2_GRP1_PERIPH_TIM21);
 182:Drivers/STM32L0xx_HAL_Driver/Src/stm32l0xx_ll_tim.c ****     LL_APB2_GRP1_ReleaseReset(LL_APB2_GRP1_PERIPH_TIM21);
 183:Drivers/STM32L0xx_HAL_Driver/Src/stm32l0xx_ll_tim.c ****   }
 184:Drivers/STM32L0xx_HAL_Driver/Src/stm32l0xx_ll_tim.c **** #if defined(TIM22)
 185:Drivers/STM32L0xx_HAL_Driver/Src/stm32l0xx_ll_tim.c ****   else if (TIMx == TIM22)
 186:Drivers/STM32L0xx_HAL_Driver/Src/stm32l0xx_ll_tim.c ****   {
 187:Drivers/STM32L0xx_HAL_Driver/Src/stm32l0xx_ll_tim.c ****     LL_APB2_GRP1_ForceReset(LL_APB2_GRP1_PERIPH_TIM22);
 188:Drivers/STM32L0xx_HAL_Driver/Src/stm32l0xx_ll_tim.c ****     LL_APB2_GRP1_ReleaseReset(LL_APB2_GRP1_PERIPH_TIM22);
 189:Drivers/STM32L0xx_HAL_Driver/Src/stm32l0xx_ll_tim.c ****   }
 190:Drivers/STM32L0xx_HAL_Driver/Src/stm32l0xx_ll_tim.c **** #endif /* TIM22 */
 191:Drivers/STM32L0xx_HAL_Driver/Src/stm32l0xx_ll_tim.c ****   else
 192:Drivers/STM32L0xx_HAL_Driver/Src/stm32l0xx_ll_tim.c ****   {
 193:Drivers/STM32L0xx_HAL_Driver/Src/stm32l0xx_ll_tim.c ****     result = ERROR;
 194:Drivers/STM32L0xx_HAL_Driver/Src/stm32l0xx_ll_tim.c ****   }
 195:Drivers/STM32L0xx_HAL_Driver/Src/stm32l0xx_ll_tim.c **** 
 196:Drivers/STM32L0xx_HAL_Driver/Src/stm32l0xx_ll_tim.c ****   return result;
 197:Drivers/STM32L0xx_HAL_Driver/Src/stm32l0xx_ll_tim.c **** }
 198:Drivers/STM32L0xx_HAL_Driver/Src/stm32l0xx_ll_tim.c **** 
 199:Drivers/STM32L0xx_HAL_Driver/Src/stm32l0xx_ll_tim.c **** /**
 200:Drivers/STM32L0xx_HAL_Driver/Src/stm32l0xx_ll_tim.c ****   * @brief  Set the fields of the time base unit configuration data structure
 201:Drivers/STM32L0xx_HAL_Driver/Src/stm32l0xx_ll_tim.c ****   *         to their default values.
 202:Drivers/STM32L0xx_HAL_Driver/Src/stm32l0xx_ll_tim.c ****   * @param  TIM_InitStruct pointer to a @ref LL_TIM_InitTypeDef structure (time base unit configura
 203:Drivers/STM32L0xx_HAL_Driver/Src/stm32l0xx_ll_tim.c ****   * @retval None
ARM GAS  /tmp/cckNMhWV.s 			page 5


 204:Drivers/STM32L0xx_HAL_Driver/Src/stm32l0xx_ll_tim.c ****   */
 205:Drivers/STM32L0xx_HAL_Driver/Src/stm32l0xx_ll_tim.c **** void LL_TIM_StructInit(LL_TIM_InitTypeDef *TIM_InitStruct)
 206:Drivers/STM32L0xx_HAL_Driver/Src/stm32l0xx_ll_tim.c **** {
 207:Drivers/STM32L0xx_HAL_Driver/Src/stm32l0xx_ll_tim.c ****   /* Set the default configuration */
 208:Drivers/STM32L0xx_HAL_Driver/Src/stm32l0xx_ll_tim.c ****   TIM_InitStruct->Prescaler         = (uint16_t)0x0000;
 209:Drivers/STM32L0xx_HAL_Driver/Src/stm32l0xx_ll_tim.c ****   TIM_InitStruct->CounterMode       = LL_TIM_COUNTERMODE_UP;
 210:Drivers/STM32L0xx_HAL_Driver/Src/stm32l0xx_ll_tim.c ****   TIM_InitStruct->Autoreload        = 0xFFFFFFFFU;
 211:Drivers/STM32L0xx_HAL_Driver/Src/stm32l0xx_ll_tim.c ****   TIM_InitStruct->ClockDivision     = LL_TIM_CLOCKDIVISION_DIV1;
 212:Drivers/STM32L0xx_HAL_Driver/Src/stm32l0xx_ll_tim.c **** }
 213:Drivers/STM32L0xx_HAL_Driver/Src/stm32l0xx_ll_tim.c **** 
 214:Drivers/STM32L0xx_HAL_Driver/Src/stm32l0xx_ll_tim.c **** /**
 215:Drivers/STM32L0xx_HAL_Driver/Src/stm32l0xx_ll_tim.c ****   * @brief  Configure the TIMx time base unit.
 216:Drivers/STM32L0xx_HAL_Driver/Src/stm32l0xx_ll_tim.c ****   * @param  TIMx Timer Instance
 217:Drivers/STM32L0xx_HAL_Driver/Src/stm32l0xx_ll_tim.c ****   * @param  TIM_InitStruct pointer to a @ref LL_TIM_InitTypeDef structure
 218:Drivers/STM32L0xx_HAL_Driver/Src/stm32l0xx_ll_tim.c ****   *         (TIMx time base unit configuration data structure)
 219:Drivers/STM32L0xx_HAL_Driver/Src/stm32l0xx_ll_tim.c ****   * @retval An ErrorStatus enumeration value:
 220:Drivers/STM32L0xx_HAL_Driver/Src/stm32l0xx_ll_tim.c ****   *          - SUCCESS: TIMx registers are de-initialized
 221:Drivers/STM32L0xx_HAL_Driver/Src/stm32l0xx_ll_tim.c ****   *          - ERROR: not applicable
 222:Drivers/STM32L0xx_HAL_Driver/Src/stm32l0xx_ll_tim.c ****   */
 223:Drivers/STM32L0xx_HAL_Driver/Src/stm32l0xx_ll_tim.c **** ErrorStatus LL_TIM_Init(TIM_TypeDef *TIMx, LL_TIM_InitTypeDef *TIM_InitStruct)
 224:Drivers/STM32L0xx_HAL_Driver/Src/stm32l0xx_ll_tim.c **** {
 225:Drivers/STM32L0xx_HAL_Driver/Src/stm32l0xx_ll_tim.c ****   uint32_t tmpcr1;
 226:Drivers/STM32L0xx_HAL_Driver/Src/stm32l0xx_ll_tim.c **** 
 227:Drivers/STM32L0xx_HAL_Driver/Src/stm32l0xx_ll_tim.c ****   /* Check the parameters */
 228:Drivers/STM32L0xx_HAL_Driver/Src/stm32l0xx_ll_tim.c ****   assert_param(IS_TIM_INSTANCE(TIMx));
 229:Drivers/STM32L0xx_HAL_Driver/Src/stm32l0xx_ll_tim.c ****   assert_param(IS_LL_TIM_COUNTERMODE(TIM_InitStruct->CounterMode));
 230:Drivers/STM32L0xx_HAL_Driver/Src/stm32l0xx_ll_tim.c ****   assert_param(IS_LL_TIM_CLOCKDIVISION(TIM_InitStruct->ClockDivision));
 231:Drivers/STM32L0xx_HAL_Driver/Src/stm32l0xx_ll_tim.c **** 
 232:Drivers/STM32L0xx_HAL_Driver/Src/stm32l0xx_ll_tim.c ****   tmpcr1 = LL_TIM_ReadReg(TIMx, CR1);
 233:Drivers/STM32L0xx_HAL_Driver/Src/stm32l0xx_ll_tim.c **** 
 234:Drivers/STM32L0xx_HAL_Driver/Src/stm32l0xx_ll_tim.c ****   if (IS_TIM_COUNTER_MODE_SELECT_INSTANCE(TIMx))
 235:Drivers/STM32L0xx_HAL_Driver/Src/stm32l0xx_ll_tim.c ****   {
 236:Drivers/STM32L0xx_HAL_Driver/Src/stm32l0xx_ll_tim.c ****     /* Select the Counter Mode */
 237:Drivers/STM32L0xx_HAL_Driver/Src/stm32l0xx_ll_tim.c ****     MODIFY_REG(tmpcr1, (TIM_CR1_DIR | TIM_CR1_CMS), TIM_InitStruct->CounterMode);
 238:Drivers/STM32L0xx_HAL_Driver/Src/stm32l0xx_ll_tim.c ****   }
 239:Drivers/STM32L0xx_HAL_Driver/Src/stm32l0xx_ll_tim.c **** 
 240:Drivers/STM32L0xx_HAL_Driver/Src/stm32l0xx_ll_tim.c ****   if (IS_TIM_CLOCK_DIVISION_INSTANCE(TIMx))
 241:Drivers/STM32L0xx_HAL_Driver/Src/stm32l0xx_ll_tim.c ****   {
 242:Drivers/STM32L0xx_HAL_Driver/Src/stm32l0xx_ll_tim.c ****     /* Set the clock division */
 243:Drivers/STM32L0xx_HAL_Driver/Src/stm32l0xx_ll_tim.c ****     MODIFY_REG(tmpcr1, TIM_CR1_CKD, TIM_InitStruct->ClockDivision);
 244:Drivers/STM32L0xx_HAL_Driver/Src/stm32l0xx_ll_tim.c ****   }
 245:Drivers/STM32L0xx_HAL_Driver/Src/stm32l0xx_ll_tim.c **** 
 246:Drivers/STM32L0xx_HAL_Driver/Src/stm32l0xx_ll_tim.c ****   /* Write to TIMx CR1 */
 247:Drivers/STM32L0xx_HAL_Driver/Src/stm32l0xx_ll_tim.c ****   LL_TIM_WriteReg(TIMx, CR1, tmpcr1);
 248:Drivers/STM32L0xx_HAL_Driver/Src/stm32l0xx_ll_tim.c **** 
 249:Drivers/STM32L0xx_HAL_Driver/Src/stm32l0xx_ll_tim.c ****   /* Set the Autoreload value */
 250:Drivers/STM32L0xx_HAL_Driver/Src/stm32l0xx_ll_tim.c ****   LL_TIM_SetAutoReload(TIMx, TIM_InitStruct->Autoreload);
 251:Drivers/STM32L0xx_HAL_Driver/Src/stm32l0xx_ll_tim.c **** 
 252:Drivers/STM32L0xx_HAL_Driver/Src/stm32l0xx_ll_tim.c ****   /* Set the Prescaler value */
 253:Drivers/STM32L0xx_HAL_Driver/Src/stm32l0xx_ll_tim.c ****   LL_TIM_SetPrescaler(TIMx, TIM_InitStruct->Prescaler);
 254:Drivers/STM32L0xx_HAL_Driver/Src/stm32l0xx_ll_tim.c ****   /* Generate an update event to reload the Prescaler
 255:Drivers/STM32L0xx_HAL_Driver/Src/stm32l0xx_ll_tim.c ****      and the repetition counter value (if applicable) immediately */
 256:Drivers/STM32L0xx_HAL_Driver/Src/stm32l0xx_ll_tim.c ****   LL_TIM_GenerateEvent_UPDATE(TIMx);
 257:Drivers/STM32L0xx_HAL_Driver/Src/stm32l0xx_ll_tim.c **** 
 258:Drivers/STM32L0xx_HAL_Driver/Src/stm32l0xx_ll_tim.c ****   return SUCCESS;
 259:Drivers/STM32L0xx_HAL_Driver/Src/stm32l0xx_ll_tim.c **** }
 260:Drivers/STM32L0xx_HAL_Driver/Src/stm32l0xx_ll_tim.c **** 
ARM GAS  /tmp/cckNMhWV.s 			page 6


 261:Drivers/STM32L0xx_HAL_Driver/Src/stm32l0xx_ll_tim.c **** /**
 262:Drivers/STM32L0xx_HAL_Driver/Src/stm32l0xx_ll_tim.c ****   * @brief  Set the fields of the TIMx output channel configuration data
 263:Drivers/STM32L0xx_HAL_Driver/Src/stm32l0xx_ll_tim.c ****   *         structure to their default values.
 264:Drivers/STM32L0xx_HAL_Driver/Src/stm32l0xx_ll_tim.c ****   * @param  TIM_OC_InitStruct pointer to a @ref LL_TIM_OC_InitTypeDef structure
 265:Drivers/STM32L0xx_HAL_Driver/Src/stm32l0xx_ll_tim.c ****   *         (the output channel configuration data structure)
 266:Drivers/STM32L0xx_HAL_Driver/Src/stm32l0xx_ll_tim.c ****   * @retval None
 267:Drivers/STM32L0xx_HAL_Driver/Src/stm32l0xx_ll_tim.c ****   */
 268:Drivers/STM32L0xx_HAL_Driver/Src/stm32l0xx_ll_tim.c **** void LL_TIM_OC_StructInit(LL_TIM_OC_InitTypeDef *TIM_OC_InitStruct)
 269:Drivers/STM32L0xx_HAL_Driver/Src/stm32l0xx_ll_tim.c **** {
 270:Drivers/STM32L0xx_HAL_Driver/Src/stm32l0xx_ll_tim.c ****   /* Set the default configuration */
 271:Drivers/STM32L0xx_HAL_Driver/Src/stm32l0xx_ll_tim.c ****   TIM_OC_InitStruct->OCMode       = LL_TIM_OCMODE_FROZEN;
 272:Drivers/STM32L0xx_HAL_Driver/Src/stm32l0xx_ll_tim.c ****   TIM_OC_InitStruct->OCState      = LL_TIM_OCSTATE_DISABLE;
 273:Drivers/STM32L0xx_HAL_Driver/Src/stm32l0xx_ll_tim.c ****   TIM_OC_InitStruct->CompareValue = 0x00000000U;
 274:Drivers/STM32L0xx_HAL_Driver/Src/stm32l0xx_ll_tim.c ****   TIM_OC_InitStruct->OCPolarity   = LL_TIM_OCPOLARITY_HIGH;
 275:Drivers/STM32L0xx_HAL_Driver/Src/stm32l0xx_ll_tim.c **** }
 276:Drivers/STM32L0xx_HAL_Driver/Src/stm32l0xx_ll_tim.c **** 
 277:Drivers/STM32L0xx_HAL_Driver/Src/stm32l0xx_ll_tim.c **** /**
 278:Drivers/STM32L0xx_HAL_Driver/Src/stm32l0xx_ll_tim.c ****   * @brief  Configure the TIMx output channel.
 279:Drivers/STM32L0xx_HAL_Driver/Src/stm32l0xx_ll_tim.c ****   * @param  TIMx Timer Instance
 280:Drivers/STM32L0xx_HAL_Driver/Src/stm32l0xx_ll_tim.c ****   * @param  Channel This parameter can be one of the following values:
 281:Drivers/STM32L0xx_HAL_Driver/Src/stm32l0xx_ll_tim.c ****   *         @arg @ref LL_TIM_CHANNEL_CH1
 282:Drivers/STM32L0xx_HAL_Driver/Src/stm32l0xx_ll_tim.c ****   *         @arg @ref LL_TIM_CHANNEL_CH2
 283:Drivers/STM32L0xx_HAL_Driver/Src/stm32l0xx_ll_tim.c ****   *         @arg @ref LL_TIM_CHANNEL_CH3
 284:Drivers/STM32L0xx_HAL_Driver/Src/stm32l0xx_ll_tim.c ****   *         @arg @ref LL_TIM_CHANNEL_CH4
 285:Drivers/STM32L0xx_HAL_Driver/Src/stm32l0xx_ll_tim.c ****   * @param  TIM_OC_InitStruct pointer to a @ref LL_TIM_OC_InitTypeDef structure (TIMx output channe
 286:Drivers/STM32L0xx_HAL_Driver/Src/stm32l0xx_ll_tim.c ****   *         data structure)
 287:Drivers/STM32L0xx_HAL_Driver/Src/stm32l0xx_ll_tim.c ****   * @retval An ErrorStatus enumeration value:
 288:Drivers/STM32L0xx_HAL_Driver/Src/stm32l0xx_ll_tim.c ****   *          - SUCCESS: TIMx output channel is initialized
 289:Drivers/STM32L0xx_HAL_Driver/Src/stm32l0xx_ll_tim.c ****   *          - ERROR: TIMx output channel is not initialized
 290:Drivers/STM32L0xx_HAL_Driver/Src/stm32l0xx_ll_tim.c ****   */
 291:Drivers/STM32L0xx_HAL_Driver/Src/stm32l0xx_ll_tim.c **** ErrorStatus LL_TIM_OC_Init(TIM_TypeDef *TIMx, uint32_t Channel, LL_TIM_OC_InitTypeDef *TIM_OC_InitS
 292:Drivers/STM32L0xx_HAL_Driver/Src/stm32l0xx_ll_tim.c **** {
 293:Drivers/STM32L0xx_HAL_Driver/Src/stm32l0xx_ll_tim.c ****   ErrorStatus result = ERROR;
 294:Drivers/STM32L0xx_HAL_Driver/Src/stm32l0xx_ll_tim.c **** 
 295:Drivers/STM32L0xx_HAL_Driver/Src/stm32l0xx_ll_tim.c ****   switch (Channel)
 296:Drivers/STM32L0xx_HAL_Driver/Src/stm32l0xx_ll_tim.c ****   {
 297:Drivers/STM32L0xx_HAL_Driver/Src/stm32l0xx_ll_tim.c ****     case LL_TIM_CHANNEL_CH1:
 298:Drivers/STM32L0xx_HAL_Driver/Src/stm32l0xx_ll_tim.c ****       result = OC1Config(TIMx, TIM_OC_InitStruct);
 299:Drivers/STM32L0xx_HAL_Driver/Src/stm32l0xx_ll_tim.c ****       break;
 300:Drivers/STM32L0xx_HAL_Driver/Src/stm32l0xx_ll_tim.c ****     case LL_TIM_CHANNEL_CH2:
 301:Drivers/STM32L0xx_HAL_Driver/Src/stm32l0xx_ll_tim.c ****       result = OC2Config(TIMx, TIM_OC_InitStruct);
 302:Drivers/STM32L0xx_HAL_Driver/Src/stm32l0xx_ll_tim.c ****       break;
 303:Drivers/STM32L0xx_HAL_Driver/Src/stm32l0xx_ll_tim.c ****     case LL_TIM_CHANNEL_CH3:
 304:Drivers/STM32L0xx_HAL_Driver/Src/stm32l0xx_ll_tim.c ****       result = OC3Config(TIMx, TIM_OC_InitStruct);
 305:Drivers/STM32L0xx_HAL_Driver/Src/stm32l0xx_ll_tim.c ****       break;
 306:Drivers/STM32L0xx_HAL_Driver/Src/stm32l0xx_ll_tim.c ****     case LL_TIM_CHANNEL_CH4:
 307:Drivers/STM32L0xx_HAL_Driver/Src/stm32l0xx_ll_tim.c ****       result = OC4Config(TIMx, TIM_OC_InitStruct);
 308:Drivers/STM32L0xx_HAL_Driver/Src/stm32l0xx_ll_tim.c ****       break;
 309:Drivers/STM32L0xx_HAL_Driver/Src/stm32l0xx_ll_tim.c ****     default:
 310:Drivers/STM32L0xx_HAL_Driver/Src/stm32l0xx_ll_tim.c ****       break;
 311:Drivers/STM32L0xx_HAL_Driver/Src/stm32l0xx_ll_tim.c ****   }
 312:Drivers/STM32L0xx_HAL_Driver/Src/stm32l0xx_ll_tim.c **** 
 313:Drivers/STM32L0xx_HAL_Driver/Src/stm32l0xx_ll_tim.c ****   return result;
 314:Drivers/STM32L0xx_HAL_Driver/Src/stm32l0xx_ll_tim.c **** }
 315:Drivers/STM32L0xx_HAL_Driver/Src/stm32l0xx_ll_tim.c **** 
 316:Drivers/STM32L0xx_HAL_Driver/Src/stm32l0xx_ll_tim.c **** /**
 317:Drivers/STM32L0xx_HAL_Driver/Src/stm32l0xx_ll_tim.c ****   * @brief  Set the fields of the TIMx input channel configuration data
ARM GAS  /tmp/cckNMhWV.s 			page 7


 318:Drivers/STM32L0xx_HAL_Driver/Src/stm32l0xx_ll_tim.c ****   *         structure to their default values.
 319:Drivers/STM32L0xx_HAL_Driver/Src/stm32l0xx_ll_tim.c ****   * @param  TIM_ICInitStruct pointer to a @ref LL_TIM_IC_InitTypeDef structure (the input channel c
 320:Drivers/STM32L0xx_HAL_Driver/Src/stm32l0xx_ll_tim.c ****   *         data structure)
 321:Drivers/STM32L0xx_HAL_Driver/Src/stm32l0xx_ll_tim.c ****   * @retval None
 322:Drivers/STM32L0xx_HAL_Driver/Src/stm32l0xx_ll_tim.c ****   */
 323:Drivers/STM32L0xx_HAL_Driver/Src/stm32l0xx_ll_tim.c **** void LL_TIM_IC_StructInit(LL_TIM_IC_InitTypeDef *TIM_ICInitStruct)
 324:Drivers/STM32L0xx_HAL_Driver/Src/stm32l0xx_ll_tim.c **** {
 325:Drivers/STM32L0xx_HAL_Driver/Src/stm32l0xx_ll_tim.c ****   /* Set the default configuration */
 326:Drivers/STM32L0xx_HAL_Driver/Src/stm32l0xx_ll_tim.c ****   TIM_ICInitStruct->ICPolarity    = LL_TIM_IC_POLARITY_RISING;
 327:Drivers/STM32L0xx_HAL_Driver/Src/stm32l0xx_ll_tim.c ****   TIM_ICInitStruct->ICActiveInput = LL_TIM_ACTIVEINPUT_DIRECTTI;
 328:Drivers/STM32L0xx_HAL_Driver/Src/stm32l0xx_ll_tim.c ****   TIM_ICInitStruct->ICPrescaler   = LL_TIM_ICPSC_DIV1;
 329:Drivers/STM32L0xx_HAL_Driver/Src/stm32l0xx_ll_tim.c ****   TIM_ICInitStruct->ICFilter      = LL_TIM_IC_FILTER_FDIV1;
 330:Drivers/STM32L0xx_HAL_Driver/Src/stm32l0xx_ll_tim.c **** }
 331:Drivers/STM32L0xx_HAL_Driver/Src/stm32l0xx_ll_tim.c **** 
 332:Drivers/STM32L0xx_HAL_Driver/Src/stm32l0xx_ll_tim.c **** /**
 333:Drivers/STM32L0xx_HAL_Driver/Src/stm32l0xx_ll_tim.c ****   * @brief  Configure the TIMx input channel.
 334:Drivers/STM32L0xx_HAL_Driver/Src/stm32l0xx_ll_tim.c ****   * @param  TIMx Timer Instance
 335:Drivers/STM32L0xx_HAL_Driver/Src/stm32l0xx_ll_tim.c ****   * @param  Channel This parameter can be one of the following values:
 336:Drivers/STM32L0xx_HAL_Driver/Src/stm32l0xx_ll_tim.c ****   *         @arg @ref LL_TIM_CHANNEL_CH1
 337:Drivers/STM32L0xx_HAL_Driver/Src/stm32l0xx_ll_tim.c ****   *         @arg @ref LL_TIM_CHANNEL_CH2
 338:Drivers/STM32L0xx_HAL_Driver/Src/stm32l0xx_ll_tim.c ****   *         @arg @ref LL_TIM_CHANNEL_CH3
 339:Drivers/STM32L0xx_HAL_Driver/Src/stm32l0xx_ll_tim.c ****   *         @arg @ref LL_TIM_CHANNEL_CH4
 340:Drivers/STM32L0xx_HAL_Driver/Src/stm32l0xx_ll_tim.c ****   * @param  TIM_IC_InitStruct pointer to a @ref LL_TIM_IC_InitTypeDef structure (TIMx input channel
 341:Drivers/STM32L0xx_HAL_Driver/Src/stm32l0xx_ll_tim.c ****   *         structure)
 342:Drivers/STM32L0xx_HAL_Driver/Src/stm32l0xx_ll_tim.c ****   * @retval An ErrorStatus enumeration value:
 343:Drivers/STM32L0xx_HAL_Driver/Src/stm32l0xx_ll_tim.c ****   *          - SUCCESS: TIMx output channel is initialized
 344:Drivers/STM32L0xx_HAL_Driver/Src/stm32l0xx_ll_tim.c ****   *          - ERROR: TIMx output channel is not initialized
 345:Drivers/STM32L0xx_HAL_Driver/Src/stm32l0xx_ll_tim.c ****   */
 346:Drivers/STM32L0xx_HAL_Driver/Src/stm32l0xx_ll_tim.c **** ErrorStatus LL_TIM_IC_Init(TIM_TypeDef *TIMx, uint32_t Channel, LL_TIM_IC_InitTypeDef *TIM_IC_InitS
 347:Drivers/STM32L0xx_HAL_Driver/Src/stm32l0xx_ll_tim.c **** {
 348:Drivers/STM32L0xx_HAL_Driver/Src/stm32l0xx_ll_tim.c ****   ErrorStatus result = ERROR;
 349:Drivers/STM32L0xx_HAL_Driver/Src/stm32l0xx_ll_tim.c **** 
 350:Drivers/STM32L0xx_HAL_Driver/Src/stm32l0xx_ll_tim.c ****   switch (Channel)
 351:Drivers/STM32L0xx_HAL_Driver/Src/stm32l0xx_ll_tim.c ****   {
 352:Drivers/STM32L0xx_HAL_Driver/Src/stm32l0xx_ll_tim.c ****     case LL_TIM_CHANNEL_CH1:
 353:Drivers/STM32L0xx_HAL_Driver/Src/stm32l0xx_ll_tim.c ****       result = IC1Config(TIMx, TIM_IC_InitStruct);
 354:Drivers/STM32L0xx_HAL_Driver/Src/stm32l0xx_ll_tim.c ****       break;
 355:Drivers/STM32L0xx_HAL_Driver/Src/stm32l0xx_ll_tim.c ****     case LL_TIM_CHANNEL_CH2:
 356:Drivers/STM32L0xx_HAL_Driver/Src/stm32l0xx_ll_tim.c ****       result = IC2Config(TIMx, TIM_IC_InitStruct);
 357:Drivers/STM32L0xx_HAL_Driver/Src/stm32l0xx_ll_tim.c ****       break;
 358:Drivers/STM32L0xx_HAL_Driver/Src/stm32l0xx_ll_tim.c ****     case LL_TIM_CHANNEL_CH3:
 359:Drivers/STM32L0xx_HAL_Driver/Src/stm32l0xx_ll_tim.c ****       result = IC3Config(TIMx, TIM_IC_InitStruct);
 360:Drivers/STM32L0xx_HAL_Driver/Src/stm32l0xx_ll_tim.c ****       break;
 361:Drivers/STM32L0xx_HAL_Driver/Src/stm32l0xx_ll_tim.c ****     case LL_TIM_CHANNEL_CH4:
 362:Drivers/STM32L0xx_HAL_Driver/Src/stm32l0xx_ll_tim.c ****       result = IC4Config(TIMx, TIM_IC_InitStruct);
 363:Drivers/STM32L0xx_HAL_Driver/Src/stm32l0xx_ll_tim.c ****       break;
 364:Drivers/STM32L0xx_HAL_Driver/Src/stm32l0xx_ll_tim.c ****     default:
 365:Drivers/STM32L0xx_HAL_Driver/Src/stm32l0xx_ll_tim.c ****       break;
 366:Drivers/STM32L0xx_HAL_Driver/Src/stm32l0xx_ll_tim.c ****   }
 367:Drivers/STM32L0xx_HAL_Driver/Src/stm32l0xx_ll_tim.c **** 
 368:Drivers/STM32L0xx_HAL_Driver/Src/stm32l0xx_ll_tim.c ****   return result;
 369:Drivers/STM32L0xx_HAL_Driver/Src/stm32l0xx_ll_tim.c **** }
 370:Drivers/STM32L0xx_HAL_Driver/Src/stm32l0xx_ll_tim.c **** 
 371:Drivers/STM32L0xx_HAL_Driver/Src/stm32l0xx_ll_tim.c **** /**
 372:Drivers/STM32L0xx_HAL_Driver/Src/stm32l0xx_ll_tim.c ****   * @brief  Fills each TIM_EncoderInitStruct field with its default value
 373:Drivers/STM32L0xx_HAL_Driver/Src/stm32l0xx_ll_tim.c ****   * @param  TIM_EncoderInitStruct pointer to a @ref LL_TIM_ENCODER_InitTypeDef structure (encoder i
 374:Drivers/STM32L0xx_HAL_Driver/Src/stm32l0xx_ll_tim.c ****   *         configuration data structure)
ARM GAS  /tmp/cckNMhWV.s 			page 8


 375:Drivers/STM32L0xx_HAL_Driver/Src/stm32l0xx_ll_tim.c ****   * @retval None
 376:Drivers/STM32L0xx_HAL_Driver/Src/stm32l0xx_ll_tim.c ****   */
 377:Drivers/STM32L0xx_HAL_Driver/Src/stm32l0xx_ll_tim.c **** void LL_TIM_ENCODER_StructInit(LL_TIM_ENCODER_InitTypeDef *TIM_EncoderInitStruct)
 378:Drivers/STM32L0xx_HAL_Driver/Src/stm32l0xx_ll_tim.c **** {
 379:Drivers/STM32L0xx_HAL_Driver/Src/stm32l0xx_ll_tim.c ****   /* Set the default configuration */
 380:Drivers/STM32L0xx_HAL_Driver/Src/stm32l0xx_ll_tim.c ****   TIM_EncoderInitStruct->EncoderMode    = LL_TIM_ENCODERMODE_X2_TI1;
 381:Drivers/STM32L0xx_HAL_Driver/Src/stm32l0xx_ll_tim.c ****   TIM_EncoderInitStruct->IC1Polarity    = LL_TIM_IC_POLARITY_RISING;
 382:Drivers/STM32L0xx_HAL_Driver/Src/stm32l0xx_ll_tim.c ****   TIM_EncoderInitStruct->IC1ActiveInput = LL_TIM_ACTIVEINPUT_DIRECTTI;
 383:Drivers/STM32L0xx_HAL_Driver/Src/stm32l0xx_ll_tim.c ****   TIM_EncoderInitStruct->IC1Prescaler   = LL_TIM_ICPSC_DIV1;
 384:Drivers/STM32L0xx_HAL_Driver/Src/stm32l0xx_ll_tim.c ****   TIM_EncoderInitStruct->IC1Filter      = LL_TIM_IC_FILTER_FDIV1;
 385:Drivers/STM32L0xx_HAL_Driver/Src/stm32l0xx_ll_tim.c ****   TIM_EncoderInitStruct->IC2Polarity    = LL_TIM_IC_POLARITY_RISING;
 386:Drivers/STM32L0xx_HAL_Driver/Src/stm32l0xx_ll_tim.c ****   TIM_EncoderInitStruct->IC2ActiveInput = LL_TIM_ACTIVEINPUT_DIRECTTI;
 387:Drivers/STM32L0xx_HAL_Driver/Src/stm32l0xx_ll_tim.c ****   TIM_EncoderInitStruct->IC2Prescaler   = LL_TIM_ICPSC_DIV1;
 388:Drivers/STM32L0xx_HAL_Driver/Src/stm32l0xx_ll_tim.c ****   TIM_EncoderInitStruct->IC2Filter      = LL_TIM_IC_FILTER_FDIV1;
 389:Drivers/STM32L0xx_HAL_Driver/Src/stm32l0xx_ll_tim.c **** }
 390:Drivers/STM32L0xx_HAL_Driver/Src/stm32l0xx_ll_tim.c **** 
 391:Drivers/STM32L0xx_HAL_Driver/Src/stm32l0xx_ll_tim.c **** /**
 392:Drivers/STM32L0xx_HAL_Driver/Src/stm32l0xx_ll_tim.c ****   * @brief  Configure the encoder interface of the timer instance.
 393:Drivers/STM32L0xx_HAL_Driver/Src/stm32l0xx_ll_tim.c ****   * @param  TIMx Timer Instance
 394:Drivers/STM32L0xx_HAL_Driver/Src/stm32l0xx_ll_tim.c ****   * @param  TIM_EncoderInitStruct pointer to a @ref LL_TIM_ENCODER_InitTypeDef structure (TIMx enco
 395:Drivers/STM32L0xx_HAL_Driver/Src/stm32l0xx_ll_tim.c ****   *         configuration data structure)
 396:Drivers/STM32L0xx_HAL_Driver/Src/stm32l0xx_ll_tim.c ****   * @retval An ErrorStatus enumeration value:
 397:Drivers/STM32L0xx_HAL_Driver/Src/stm32l0xx_ll_tim.c ****   *          - SUCCESS: TIMx registers are de-initialized
 398:Drivers/STM32L0xx_HAL_Driver/Src/stm32l0xx_ll_tim.c ****   *          - ERROR: not applicable
 399:Drivers/STM32L0xx_HAL_Driver/Src/stm32l0xx_ll_tim.c ****   */
 400:Drivers/STM32L0xx_HAL_Driver/Src/stm32l0xx_ll_tim.c **** ErrorStatus LL_TIM_ENCODER_Init(TIM_TypeDef *TIMx, LL_TIM_ENCODER_InitTypeDef *TIM_EncoderInitStruc
 401:Drivers/STM32L0xx_HAL_Driver/Src/stm32l0xx_ll_tim.c **** {
 402:Drivers/STM32L0xx_HAL_Driver/Src/stm32l0xx_ll_tim.c ****   uint32_t tmpccmr1;
 403:Drivers/STM32L0xx_HAL_Driver/Src/stm32l0xx_ll_tim.c ****   uint32_t tmpccer;
 404:Drivers/STM32L0xx_HAL_Driver/Src/stm32l0xx_ll_tim.c **** 
 405:Drivers/STM32L0xx_HAL_Driver/Src/stm32l0xx_ll_tim.c ****   /* Check the parameters */
 406:Drivers/STM32L0xx_HAL_Driver/Src/stm32l0xx_ll_tim.c ****   assert_param(IS_TIM_ENCODER_INTERFACE_INSTANCE(TIMx));
 407:Drivers/STM32L0xx_HAL_Driver/Src/stm32l0xx_ll_tim.c ****   assert_param(IS_LL_TIM_ENCODERMODE(TIM_EncoderInitStruct->EncoderMode));
 408:Drivers/STM32L0xx_HAL_Driver/Src/stm32l0xx_ll_tim.c ****   assert_param(IS_LL_TIM_IC_POLARITY_ENCODER(TIM_EncoderInitStruct->IC1Polarity));
 409:Drivers/STM32L0xx_HAL_Driver/Src/stm32l0xx_ll_tim.c ****   assert_param(IS_LL_TIM_ACTIVEINPUT(TIM_EncoderInitStruct->IC1ActiveInput));
 410:Drivers/STM32L0xx_HAL_Driver/Src/stm32l0xx_ll_tim.c ****   assert_param(IS_LL_TIM_ICPSC(TIM_EncoderInitStruct->IC1Prescaler));
 411:Drivers/STM32L0xx_HAL_Driver/Src/stm32l0xx_ll_tim.c ****   assert_param(IS_LL_TIM_IC_FILTER(TIM_EncoderInitStruct->IC1Filter));
 412:Drivers/STM32L0xx_HAL_Driver/Src/stm32l0xx_ll_tim.c ****   assert_param(IS_LL_TIM_IC_POLARITY_ENCODER(TIM_EncoderInitStruct->IC2Polarity));
 413:Drivers/STM32L0xx_HAL_Driver/Src/stm32l0xx_ll_tim.c ****   assert_param(IS_LL_TIM_ACTIVEINPUT(TIM_EncoderInitStruct->IC2ActiveInput));
 414:Drivers/STM32L0xx_HAL_Driver/Src/stm32l0xx_ll_tim.c ****   assert_param(IS_LL_TIM_ICPSC(TIM_EncoderInitStruct->IC2Prescaler));
 415:Drivers/STM32L0xx_HAL_Driver/Src/stm32l0xx_ll_tim.c ****   assert_param(IS_LL_TIM_IC_FILTER(TIM_EncoderInitStruct->IC2Filter));
 416:Drivers/STM32L0xx_HAL_Driver/Src/stm32l0xx_ll_tim.c **** 
 417:Drivers/STM32L0xx_HAL_Driver/Src/stm32l0xx_ll_tim.c ****   /* Disable the CC1 and CC2: Reset the CC1E and CC2E Bits */
 418:Drivers/STM32L0xx_HAL_Driver/Src/stm32l0xx_ll_tim.c ****   TIMx->CCER &= (uint32_t)~(TIM_CCER_CC1E | TIM_CCER_CC2E);
 419:Drivers/STM32L0xx_HAL_Driver/Src/stm32l0xx_ll_tim.c **** 
 420:Drivers/STM32L0xx_HAL_Driver/Src/stm32l0xx_ll_tim.c ****   /* Get the TIMx CCMR1 register value */
 421:Drivers/STM32L0xx_HAL_Driver/Src/stm32l0xx_ll_tim.c ****   tmpccmr1 = LL_TIM_ReadReg(TIMx, CCMR1);
 422:Drivers/STM32L0xx_HAL_Driver/Src/stm32l0xx_ll_tim.c **** 
 423:Drivers/STM32L0xx_HAL_Driver/Src/stm32l0xx_ll_tim.c ****   /* Get the TIMx CCER register value */
 424:Drivers/STM32L0xx_HAL_Driver/Src/stm32l0xx_ll_tim.c ****   tmpccer = LL_TIM_ReadReg(TIMx, CCER);
 425:Drivers/STM32L0xx_HAL_Driver/Src/stm32l0xx_ll_tim.c **** 
 426:Drivers/STM32L0xx_HAL_Driver/Src/stm32l0xx_ll_tim.c ****   /* Configure TI1 */
 427:Drivers/STM32L0xx_HAL_Driver/Src/stm32l0xx_ll_tim.c ****   tmpccmr1 &= (uint32_t)~(TIM_CCMR1_CC1S | TIM_CCMR1_IC1F  | TIM_CCMR1_IC1PSC);
 428:Drivers/STM32L0xx_HAL_Driver/Src/stm32l0xx_ll_tim.c ****   tmpccmr1 |= (uint32_t)(TIM_EncoderInitStruct->IC1ActiveInput >> 16U);
 429:Drivers/STM32L0xx_HAL_Driver/Src/stm32l0xx_ll_tim.c ****   tmpccmr1 |= (uint32_t)(TIM_EncoderInitStruct->IC1Filter >> 16U);
 430:Drivers/STM32L0xx_HAL_Driver/Src/stm32l0xx_ll_tim.c ****   tmpccmr1 |= (uint32_t)(TIM_EncoderInitStruct->IC1Prescaler >> 16U);
 431:Drivers/STM32L0xx_HAL_Driver/Src/stm32l0xx_ll_tim.c **** 
ARM GAS  /tmp/cckNMhWV.s 			page 9


 432:Drivers/STM32L0xx_HAL_Driver/Src/stm32l0xx_ll_tim.c ****   /* Configure TI2 */
 433:Drivers/STM32L0xx_HAL_Driver/Src/stm32l0xx_ll_tim.c ****   tmpccmr1 &= (uint32_t)~(TIM_CCMR1_CC2S | TIM_CCMR1_IC2F  | TIM_CCMR1_IC2PSC);
 434:Drivers/STM32L0xx_HAL_Driver/Src/stm32l0xx_ll_tim.c ****   tmpccmr1 |= (uint32_t)(TIM_EncoderInitStruct->IC2ActiveInput >> 8U);
 435:Drivers/STM32L0xx_HAL_Driver/Src/stm32l0xx_ll_tim.c ****   tmpccmr1 |= (uint32_t)(TIM_EncoderInitStruct->IC2Filter >> 8U);
 436:Drivers/STM32L0xx_HAL_Driver/Src/stm32l0xx_ll_tim.c ****   tmpccmr1 |= (uint32_t)(TIM_EncoderInitStruct->IC2Prescaler >> 8U);
 437:Drivers/STM32L0xx_HAL_Driver/Src/stm32l0xx_ll_tim.c **** 
 438:Drivers/STM32L0xx_HAL_Driver/Src/stm32l0xx_ll_tim.c ****   /* Set TI1 and TI2 polarity and enable TI1 and TI2 */
 439:Drivers/STM32L0xx_HAL_Driver/Src/stm32l0xx_ll_tim.c ****   tmpccer &= (uint32_t)~(TIM_CCER_CC1P | TIM_CCER_CC1NP | TIM_CCER_CC2P | TIM_CCER_CC2NP);
 440:Drivers/STM32L0xx_HAL_Driver/Src/stm32l0xx_ll_tim.c ****   tmpccer |= (uint32_t)(TIM_EncoderInitStruct->IC1Polarity);
 441:Drivers/STM32L0xx_HAL_Driver/Src/stm32l0xx_ll_tim.c ****   tmpccer |= (uint32_t)(TIM_EncoderInitStruct->IC2Polarity << 4U);
 442:Drivers/STM32L0xx_HAL_Driver/Src/stm32l0xx_ll_tim.c ****   tmpccer |= (uint32_t)(TIM_CCER_CC1E | TIM_CCER_CC2E);
 443:Drivers/STM32L0xx_HAL_Driver/Src/stm32l0xx_ll_tim.c **** 
 444:Drivers/STM32L0xx_HAL_Driver/Src/stm32l0xx_ll_tim.c ****   /* Set encoder mode */
 445:Drivers/STM32L0xx_HAL_Driver/Src/stm32l0xx_ll_tim.c ****   LL_TIM_SetEncoderMode(TIMx, TIM_EncoderInitStruct->EncoderMode);
 446:Drivers/STM32L0xx_HAL_Driver/Src/stm32l0xx_ll_tim.c **** 
 447:Drivers/STM32L0xx_HAL_Driver/Src/stm32l0xx_ll_tim.c ****   /* Write to TIMx CCMR1 */
 448:Drivers/STM32L0xx_HAL_Driver/Src/stm32l0xx_ll_tim.c ****   LL_TIM_WriteReg(TIMx, CCMR1, tmpccmr1);
 449:Drivers/STM32L0xx_HAL_Driver/Src/stm32l0xx_ll_tim.c **** 
 450:Drivers/STM32L0xx_HAL_Driver/Src/stm32l0xx_ll_tim.c ****   /* Write to TIMx CCER */
 451:Drivers/STM32L0xx_HAL_Driver/Src/stm32l0xx_ll_tim.c ****   LL_TIM_WriteReg(TIMx, CCER, tmpccer);
 452:Drivers/STM32L0xx_HAL_Driver/Src/stm32l0xx_ll_tim.c **** 
 453:Drivers/STM32L0xx_HAL_Driver/Src/stm32l0xx_ll_tim.c ****   return SUCCESS;
 454:Drivers/STM32L0xx_HAL_Driver/Src/stm32l0xx_ll_tim.c **** }
 455:Drivers/STM32L0xx_HAL_Driver/Src/stm32l0xx_ll_tim.c **** 
 456:Drivers/STM32L0xx_HAL_Driver/Src/stm32l0xx_ll_tim.c **** /**
 457:Drivers/STM32L0xx_HAL_Driver/Src/stm32l0xx_ll_tim.c ****   * @}
 458:Drivers/STM32L0xx_HAL_Driver/Src/stm32l0xx_ll_tim.c ****   */
 459:Drivers/STM32L0xx_HAL_Driver/Src/stm32l0xx_ll_tim.c **** 
 460:Drivers/STM32L0xx_HAL_Driver/Src/stm32l0xx_ll_tim.c **** /**
 461:Drivers/STM32L0xx_HAL_Driver/Src/stm32l0xx_ll_tim.c ****   * @}
 462:Drivers/STM32L0xx_HAL_Driver/Src/stm32l0xx_ll_tim.c ****   */
 463:Drivers/STM32L0xx_HAL_Driver/Src/stm32l0xx_ll_tim.c **** 
 464:Drivers/STM32L0xx_HAL_Driver/Src/stm32l0xx_ll_tim.c **** /** @addtogroup TIM_LL_Private_Functions TIM Private Functions
 465:Drivers/STM32L0xx_HAL_Driver/Src/stm32l0xx_ll_tim.c ****   *  @brief   Private functions
 466:Drivers/STM32L0xx_HAL_Driver/Src/stm32l0xx_ll_tim.c ****   * @{
 467:Drivers/STM32L0xx_HAL_Driver/Src/stm32l0xx_ll_tim.c ****   */
 468:Drivers/STM32L0xx_HAL_Driver/Src/stm32l0xx_ll_tim.c **** /**
 469:Drivers/STM32L0xx_HAL_Driver/Src/stm32l0xx_ll_tim.c ****   * @brief  Configure the TIMx output channel 1.
 470:Drivers/STM32L0xx_HAL_Driver/Src/stm32l0xx_ll_tim.c ****   * @param  TIMx Timer Instance
 471:Drivers/STM32L0xx_HAL_Driver/Src/stm32l0xx_ll_tim.c ****   * @param  TIM_OCInitStruct pointer to the the TIMx output channel 1 configuration data structure
 472:Drivers/STM32L0xx_HAL_Driver/Src/stm32l0xx_ll_tim.c ****   * @retval An ErrorStatus enumeration value:
 473:Drivers/STM32L0xx_HAL_Driver/Src/stm32l0xx_ll_tim.c ****   *          - SUCCESS: TIMx registers are de-initialized
 474:Drivers/STM32L0xx_HAL_Driver/Src/stm32l0xx_ll_tim.c ****   *          - ERROR: not applicable
 475:Drivers/STM32L0xx_HAL_Driver/Src/stm32l0xx_ll_tim.c ****   */
 476:Drivers/STM32L0xx_HAL_Driver/Src/stm32l0xx_ll_tim.c **** static ErrorStatus OC1Config(TIM_TypeDef *TIMx, LL_TIM_OC_InitTypeDef *TIM_OCInitStruct)
 477:Drivers/STM32L0xx_HAL_Driver/Src/stm32l0xx_ll_tim.c **** {
  27              		.loc 1 477 1 view -0
  28              		.cfi_startproc
  29              		@ args = 0, pretend = 0, frame = 0
  30              		@ frame_needed = 0, uses_anonymous_args = 0
  31              		.loc 1 477 1 is_stmt 0 view .LVU1
  32 0000 70B5     		push	{r4, r5, r6, lr}
  33              	.LCFI0:
  34              		.cfi_def_cfa_offset 16
  35              		.cfi_offset 4, -16
  36              		.cfi_offset 5, -12
  37              		.cfi_offset 6, -8
ARM GAS  /tmp/cckNMhWV.s 			page 10


  38              		.cfi_offset 14, -4
 478:Drivers/STM32L0xx_HAL_Driver/Src/stm32l0xx_ll_tim.c ****   uint32_t tmpccmr1;
  39              		.loc 1 478 3 is_stmt 1 view .LVU2
 479:Drivers/STM32L0xx_HAL_Driver/Src/stm32l0xx_ll_tim.c ****   uint32_t tmpccer;
  40              		.loc 1 479 3 view .LVU3
 480:Drivers/STM32L0xx_HAL_Driver/Src/stm32l0xx_ll_tim.c ****   uint32_t tmpcr2;
  41              		.loc 1 480 3 view .LVU4
 481:Drivers/STM32L0xx_HAL_Driver/Src/stm32l0xx_ll_tim.c **** 
 482:Drivers/STM32L0xx_HAL_Driver/Src/stm32l0xx_ll_tim.c ****   /* Check the parameters */
 483:Drivers/STM32L0xx_HAL_Driver/Src/stm32l0xx_ll_tim.c ****   assert_param(IS_TIM_CC1_INSTANCE(TIMx));
  42              		.loc 1 483 3 view .LVU5
 484:Drivers/STM32L0xx_HAL_Driver/Src/stm32l0xx_ll_tim.c ****   assert_param(IS_LL_TIM_OCMODE(TIM_OCInitStruct->OCMode));
  43              		.loc 1 484 3 view .LVU6
 485:Drivers/STM32L0xx_HAL_Driver/Src/stm32l0xx_ll_tim.c ****   assert_param(IS_LL_TIM_OCSTATE(TIM_OCInitStruct->OCState));
  44              		.loc 1 485 3 view .LVU7
 486:Drivers/STM32L0xx_HAL_Driver/Src/stm32l0xx_ll_tim.c ****   assert_param(IS_LL_TIM_OCPOLARITY(TIM_OCInitStruct->OCPolarity));
  45              		.loc 1 486 3 view .LVU8
 487:Drivers/STM32L0xx_HAL_Driver/Src/stm32l0xx_ll_tim.c **** 
 488:Drivers/STM32L0xx_HAL_Driver/Src/stm32l0xx_ll_tim.c ****   /* Disable the Channel 1: Reset the CC1E Bit */
 489:Drivers/STM32L0xx_HAL_Driver/Src/stm32l0xx_ll_tim.c ****   CLEAR_BIT(TIMx->CCER, TIM_CCER_CC1E);
  46              		.loc 1 489 3 view .LVU9
  47 0002 036A     		ldr	r3, [r0, #32]
  48 0004 0124     		movs	r4, #1
  49 0006 A343     		bics	r3, r4
  50 0008 0362     		str	r3, [r0, #32]
 490:Drivers/STM32L0xx_HAL_Driver/Src/stm32l0xx_ll_tim.c **** 
 491:Drivers/STM32L0xx_HAL_Driver/Src/stm32l0xx_ll_tim.c ****   /* Get the TIMx CCER register value */
 492:Drivers/STM32L0xx_HAL_Driver/Src/stm32l0xx_ll_tim.c ****   tmpccer = LL_TIM_ReadReg(TIMx, CCER);
  51              		.loc 1 492 3 view .LVU10
  52              		.loc 1 492 11 is_stmt 0 view .LVU11
  53 000a 036A     		ldr	r3, [r0, #32]
  54              	.LVL1:
 493:Drivers/STM32L0xx_HAL_Driver/Src/stm32l0xx_ll_tim.c **** 
 494:Drivers/STM32L0xx_HAL_Driver/Src/stm32l0xx_ll_tim.c ****   /* Get the TIMx CR2 register value */
 495:Drivers/STM32L0xx_HAL_Driver/Src/stm32l0xx_ll_tim.c ****   tmpcr2 = LL_TIM_ReadReg(TIMx, CR2);
  55              		.loc 1 495 3 is_stmt 1 view .LVU12
  56              		.loc 1 495 10 is_stmt 0 view .LVU13
  57 000c 4568     		ldr	r5, [r0, #4]
  58              	.LVL2:
 496:Drivers/STM32L0xx_HAL_Driver/Src/stm32l0xx_ll_tim.c **** 
 497:Drivers/STM32L0xx_HAL_Driver/Src/stm32l0xx_ll_tim.c ****   /* Get the TIMx CCMR1 register value */
 498:Drivers/STM32L0xx_HAL_Driver/Src/stm32l0xx_ll_tim.c ****   tmpccmr1 = LL_TIM_ReadReg(TIMx, CCMR1);
  59              		.loc 1 498 3 is_stmt 1 view .LVU14
  60              		.loc 1 498 12 is_stmt 0 view .LVU15
  61 000e 8269     		ldr	r2, [r0, #24]
  62              	.LVL3:
 499:Drivers/STM32L0xx_HAL_Driver/Src/stm32l0xx_ll_tim.c **** 
 500:Drivers/STM32L0xx_HAL_Driver/Src/stm32l0xx_ll_tim.c ****   /* Reset Capture/Compare selection Bits */
 501:Drivers/STM32L0xx_HAL_Driver/Src/stm32l0xx_ll_tim.c ****   CLEAR_BIT(tmpccmr1, TIM_CCMR1_CC1S);
  63              		.loc 1 501 3 is_stmt 1 view .LVU16
 502:Drivers/STM32L0xx_HAL_Driver/Src/stm32l0xx_ll_tim.c **** 
 503:Drivers/STM32L0xx_HAL_Driver/Src/stm32l0xx_ll_tim.c ****   /* Set the Output Compare Mode */
 504:Drivers/STM32L0xx_HAL_Driver/Src/stm32l0xx_ll_tim.c ****   MODIFY_REG(tmpccmr1, TIM_CCMR1_OC1M, TIM_OCInitStruct->OCMode);
  64              		.loc 1 504 3 view .LVU17
  65 0010 7326     		movs	r6, #115
  66 0012 B243     		bics	r2, r6
  67              	.LVL4:
ARM GAS  /tmp/cckNMhWV.s 			page 11


  68              		.loc 1 504 3 is_stmt 0 view .LVU18
  69 0014 0E68     		ldr	r6, [r1]
  70 0016 3243     		orrs	r2, r6
  71              	.LVL5:
 505:Drivers/STM32L0xx_HAL_Driver/Src/stm32l0xx_ll_tim.c **** 
 506:Drivers/STM32L0xx_HAL_Driver/Src/stm32l0xx_ll_tim.c ****   /* Set the Output Compare Polarity */
 507:Drivers/STM32L0xx_HAL_Driver/Src/stm32l0xx_ll_tim.c ****   MODIFY_REG(tmpccer, TIM_CCER_CC1P, TIM_OCInitStruct->OCPolarity);
  72              		.loc 1 507 3 is_stmt 1 view .LVU19
  73 0018 0226     		movs	r6, #2
  74 001a B343     		bics	r3, r6
  75              	.LVL6:
  76              		.loc 1 507 3 is_stmt 0 view .LVU20
  77 001c CE68     		ldr	r6, [r1, #12]
  78 001e 3343     		orrs	r3, r6
  79              	.LVL7:
 508:Drivers/STM32L0xx_HAL_Driver/Src/stm32l0xx_ll_tim.c **** 
 509:Drivers/STM32L0xx_HAL_Driver/Src/stm32l0xx_ll_tim.c ****   /* Set the Output State */
 510:Drivers/STM32L0xx_HAL_Driver/Src/stm32l0xx_ll_tim.c ****   MODIFY_REG(tmpccer, TIM_CCER_CC1E, TIM_OCInitStruct->OCState);
  80              		.loc 1 510 3 is_stmt 1 view .LVU21
  81 0020 A343     		bics	r3, r4
  82              	.LVL8:
  83              		.loc 1 510 3 is_stmt 0 view .LVU22
  84 0022 4C68     		ldr	r4, [r1, #4]
  85 0024 2343     		orrs	r3, r4
  86              	.LVL9:
 511:Drivers/STM32L0xx_HAL_Driver/Src/stm32l0xx_ll_tim.c **** 
 512:Drivers/STM32L0xx_HAL_Driver/Src/stm32l0xx_ll_tim.c ****   /* Write to TIMx CR2 */
 513:Drivers/STM32L0xx_HAL_Driver/Src/stm32l0xx_ll_tim.c ****   LL_TIM_WriteReg(TIMx, CR2, tmpcr2);
  87              		.loc 1 513 3 is_stmt 1 view .LVU23
  88 0026 4560     		str	r5, [r0, #4]
 514:Drivers/STM32L0xx_HAL_Driver/Src/stm32l0xx_ll_tim.c **** 
 515:Drivers/STM32L0xx_HAL_Driver/Src/stm32l0xx_ll_tim.c ****   /* Write to TIMx CCMR1 */
 516:Drivers/STM32L0xx_HAL_Driver/Src/stm32l0xx_ll_tim.c ****   LL_TIM_WriteReg(TIMx, CCMR1, tmpccmr1);
  89              		.loc 1 516 3 view .LVU24
  90 0028 8261     		str	r2, [r0, #24]
 517:Drivers/STM32L0xx_HAL_Driver/Src/stm32l0xx_ll_tim.c **** 
 518:Drivers/STM32L0xx_HAL_Driver/Src/stm32l0xx_ll_tim.c ****   /* Set the Capture Compare Register value */
 519:Drivers/STM32L0xx_HAL_Driver/Src/stm32l0xx_ll_tim.c ****   LL_TIM_OC_SetCompareCH1(TIMx, TIM_OCInitStruct->CompareValue);
  91              		.loc 1 519 3 view .LVU25
  92 002a 8A68     		ldr	r2, [r1, #8]
  93              	.LVL10:
  94              	.LBB30:
  95              	.LBI30:
  96              		.file 2 "Drivers/STM32L0xx_HAL_Driver/Inc/stm32l0xx_ll_tim.h"
   1:Drivers/STM32L0xx_HAL_Driver/Inc/stm32l0xx_ll_tim.h **** /**
   2:Drivers/STM32L0xx_HAL_Driver/Inc/stm32l0xx_ll_tim.h ****   ******************************************************************************
   3:Drivers/STM32L0xx_HAL_Driver/Inc/stm32l0xx_ll_tim.h ****   * @file    stm32l0xx_ll_tim.h
   4:Drivers/STM32L0xx_HAL_Driver/Inc/stm32l0xx_ll_tim.h ****   * @author  MCD Application Team
   5:Drivers/STM32L0xx_HAL_Driver/Inc/stm32l0xx_ll_tim.h ****   * @brief   Header file of TIM LL module.
   6:Drivers/STM32L0xx_HAL_Driver/Inc/stm32l0xx_ll_tim.h ****   ******************************************************************************
   7:Drivers/STM32L0xx_HAL_Driver/Inc/stm32l0xx_ll_tim.h ****   * @attention
   8:Drivers/STM32L0xx_HAL_Driver/Inc/stm32l0xx_ll_tim.h ****   *
   9:Drivers/STM32L0xx_HAL_Driver/Inc/stm32l0xx_ll_tim.h ****   * <h2><center>&copy; Copyright (c) 2016 STMicroelectronics.
  10:Drivers/STM32L0xx_HAL_Driver/Inc/stm32l0xx_ll_tim.h ****   * All rights reserved.</center></h2>
  11:Drivers/STM32L0xx_HAL_Driver/Inc/stm32l0xx_ll_tim.h ****   *
  12:Drivers/STM32L0xx_HAL_Driver/Inc/stm32l0xx_ll_tim.h ****   * This software component is licensed by ST under BSD 3-Clause license,
  13:Drivers/STM32L0xx_HAL_Driver/Inc/stm32l0xx_ll_tim.h ****   * the "License"; You may not use this file except in compliance with the
ARM GAS  /tmp/cckNMhWV.s 			page 12


  14:Drivers/STM32L0xx_HAL_Driver/Inc/stm32l0xx_ll_tim.h ****   * License. You may obtain a copy of the License at:
  15:Drivers/STM32L0xx_HAL_Driver/Inc/stm32l0xx_ll_tim.h ****   *                        opensource.org/licenses/BSD-3-Clause
  16:Drivers/STM32L0xx_HAL_Driver/Inc/stm32l0xx_ll_tim.h ****   *
  17:Drivers/STM32L0xx_HAL_Driver/Inc/stm32l0xx_ll_tim.h ****   ******************************************************************************
  18:Drivers/STM32L0xx_HAL_Driver/Inc/stm32l0xx_ll_tim.h ****   */
  19:Drivers/STM32L0xx_HAL_Driver/Inc/stm32l0xx_ll_tim.h **** 
  20:Drivers/STM32L0xx_HAL_Driver/Inc/stm32l0xx_ll_tim.h **** /* Define to prevent recursive inclusion -------------------------------------*/
  21:Drivers/STM32L0xx_HAL_Driver/Inc/stm32l0xx_ll_tim.h **** #ifndef __STM32L0xx_LL_TIM_H
  22:Drivers/STM32L0xx_HAL_Driver/Inc/stm32l0xx_ll_tim.h **** #define __STM32L0xx_LL_TIM_H
  23:Drivers/STM32L0xx_HAL_Driver/Inc/stm32l0xx_ll_tim.h **** 
  24:Drivers/STM32L0xx_HAL_Driver/Inc/stm32l0xx_ll_tim.h **** #ifdef __cplusplus
  25:Drivers/STM32L0xx_HAL_Driver/Inc/stm32l0xx_ll_tim.h **** extern "C" {
  26:Drivers/STM32L0xx_HAL_Driver/Inc/stm32l0xx_ll_tim.h **** #endif
  27:Drivers/STM32L0xx_HAL_Driver/Inc/stm32l0xx_ll_tim.h **** 
  28:Drivers/STM32L0xx_HAL_Driver/Inc/stm32l0xx_ll_tim.h **** /* Includes ------------------------------------------------------------------*/
  29:Drivers/STM32L0xx_HAL_Driver/Inc/stm32l0xx_ll_tim.h **** #include "stm32l0xx.h"
  30:Drivers/STM32L0xx_HAL_Driver/Inc/stm32l0xx_ll_tim.h **** 
  31:Drivers/STM32L0xx_HAL_Driver/Inc/stm32l0xx_ll_tim.h **** /** @addtogroup STM32L0xx_LL_Driver
  32:Drivers/STM32L0xx_HAL_Driver/Inc/stm32l0xx_ll_tim.h ****   * @{
  33:Drivers/STM32L0xx_HAL_Driver/Inc/stm32l0xx_ll_tim.h ****   */
  34:Drivers/STM32L0xx_HAL_Driver/Inc/stm32l0xx_ll_tim.h **** 
  35:Drivers/STM32L0xx_HAL_Driver/Inc/stm32l0xx_ll_tim.h **** #if defined (TIM2) || defined (TIM3) || defined (TIM21) || defined (TIM22) || defined (TIM6) || def
  36:Drivers/STM32L0xx_HAL_Driver/Inc/stm32l0xx_ll_tim.h **** 
  37:Drivers/STM32L0xx_HAL_Driver/Inc/stm32l0xx_ll_tim.h **** /** @defgroup TIM_LL TIM
  38:Drivers/STM32L0xx_HAL_Driver/Inc/stm32l0xx_ll_tim.h ****   * @{
  39:Drivers/STM32L0xx_HAL_Driver/Inc/stm32l0xx_ll_tim.h ****   */
  40:Drivers/STM32L0xx_HAL_Driver/Inc/stm32l0xx_ll_tim.h **** 
  41:Drivers/STM32L0xx_HAL_Driver/Inc/stm32l0xx_ll_tim.h **** /* Private types -------------------------------------------------------------*/
  42:Drivers/STM32L0xx_HAL_Driver/Inc/stm32l0xx_ll_tim.h **** /* Private variables ---------------------------------------------------------*/
  43:Drivers/STM32L0xx_HAL_Driver/Inc/stm32l0xx_ll_tim.h **** /** @defgroup TIM_LL_Private_Variables TIM Private Variables
  44:Drivers/STM32L0xx_HAL_Driver/Inc/stm32l0xx_ll_tim.h ****   * @{
  45:Drivers/STM32L0xx_HAL_Driver/Inc/stm32l0xx_ll_tim.h ****   */
  46:Drivers/STM32L0xx_HAL_Driver/Inc/stm32l0xx_ll_tim.h **** static const uint8_t OFFSET_TAB_CCMRx[] =
  47:Drivers/STM32L0xx_HAL_Driver/Inc/stm32l0xx_ll_tim.h **** {
  48:Drivers/STM32L0xx_HAL_Driver/Inc/stm32l0xx_ll_tim.h ****   0x00U,   /* 0: TIMx_CH1  */
  49:Drivers/STM32L0xx_HAL_Driver/Inc/stm32l0xx_ll_tim.h ****   0x00U,   /* 1: NA */
  50:Drivers/STM32L0xx_HAL_Driver/Inc/stm32l0xx_ll_tim.h ****   0x00U,   /* 2: TIMx_CH2  */
  51:Drivers/STM32L0xx_HAL_Driver/Inc/stm32l0xx_ll_tim.h ****   0x00U,   /* 3: NA */
  52:Drivers/STM32L0xx_HAL_Driver/Inc/stm32l0xx_ll_tim.h ****   0x04U,   /* 4: TIMx_CH3  */
  53:Drivers/STM32L0xx_HAL_Driver/Inc/stm32l0xx_ll_tim.h ****   0x00U,   /* 5: NA */
  54:Drivers/STM32L0xx_HAL_Driver/Inc/stm32l0xx_ll_tim.h ****   0x04U    /* 6: TIMx_CH4  */
  55:Drivers/STM32L0xx_HAL_Driver/Inc/stm32l0xx_ll_tim.h **** };
  56:Drivers/STM32L0xx_HAL_Driver/Inc/stm32l0xx_ll_tim.h **** 
  57:Drivers/STM32L0xx_HAL_Driver/Inc/stm32l0xx_ll_tim.h **** static const uint8_t SHIFT_TAB_OCxx[] =
  58:Drivers/STM32L0xx_HAL_Driver/Inc/stm32l0xx_ll_tim.h **** {
  59:Drivers/STM32L0xx_HAL_Driver/Inc/stm32l0xx_ll_tim.h ****   0U,            /* 0: OC1M, OC1FE, OC1PE */
  60:Drivers/STM32L0xx_HAL_Driver/Inc/stm32l0xx_ll_tim.h ****   0U,            /* 1: - NA */
  61:Drivers/STM32L0xx_HAL_Driver/Inc/stm32l0xx_ll_tim.h ****   8U,            /* 2: OC2M, OC2FE, OC2PE */
  62:Drivers/STM32L0xx_HAL_Driver/Inc/stm32l0xx_ll_tim.h ****   0U,            /* 3: - NA */
  63:Drivers/STM32L0xx_HAL_Driver/Inc/stm32l0xx_ll_tim.h ****   0U,            /* 4: OC3M, OC3FE, OC3PE */
  64:Drivers/STM32L0xx_HAL_Driver/Inc/stm32l0xx_ll_tim.h ****   0U,            /* 5: - NA */
  65:Drivers/STM32L0xx_HAL_Driver/Inc/stm32l0xx_ll_tim.h ****   8U             /* 6: OC4M, OC4FE, OC4PE */
  66:Drivers/STM32L0xx_HAL_Driver/Inc/stm32l0xx_ll_tim.h **** };
  67:Drivers/STM32L0xx_HAL_Driver/Inc/stm32l0xx_ll_tim.h **** 
  68:Drivers/STM32L0xx_HAL_Driver/Inc/stm32l0xx_ll_tim.h **** static const uint8_t SHIFT_TAB_ICxx[] =
  69:Drivers/STM32L0xx_HAL_Driver/Inc/stm32l0xx_ll_tim.h **** {
  70:Drivers/STM32L0xx_HAL_Driver/Inc/stm32l0xx_ll_tim.h ****   0U,            /* 0: CC1S, IC1PSC, IC1F */
ARM GAS  /tmp/cckNMhWV.s 			page 13


  71:Drivers/STM32L0xx_HAL_Driver/Inc/stm32l0xx_ll_tim.h ****   0U,            /* 1: - NA */
  72:Drivers/STM32L0xx_HAL_Driver/Inc/stm32l0xx_ll_tim.h ****   8U,            /* 2: CC2S, IC2PSC, IC2F */
  73:Drivers/STM32L0xx_HAL_Driver/Inc/stm32l0xx_ll_tim.h ****   0U,            /* 3: - NA */
  74:Drivers/STM32L0xx_HAL_Driver/Inc/stm32l0xx_ll_tim.h ****   0U,            /* 4: CC3S, IC3PSC, IC3F */
  75:Drivers/STM32L0xx_HAL_Driver/Inc/stm32l0xx_ll_tim.h ****   0U,            /* 5: - NA */
  76:Drivers/STM32L0xx_HAL_Driver/Inc/stm32l0xx_ll_tim.h ****   8U             /* 6: CC4S, IC4PSC, IC4F */
  77:Drivers/STM32L0xx_HAL_Driver/Inc/stm32l0xx_ll_tim.h **** };
  78:Drivers/STM32L0xx_HAL_Driver/Inc/stm32l0xx_ll_tim.h **** 
  79:Drivers/STM32L0xx_HAL_Driver/Inc/stm32l0xx_ll_tim.h **** static const uint8_t SHIFT_TAB_CCxP[] =
  80:Drivers/STM32L0xx_HAL_Driver/Inc/stm32l0xx_ll_tim.h **** {
  81:Drivers/STM32L0xx_HAL_Driver/Inc/stm32l0xx_ll_tim.h ****   0U,            /* 0: CC1P */
  82:Drivers/STM32L0xx_HAL_Driver/Inc/stm32l0xx_ll_tim.h ****   0U,            /* 1: NA */
  83:Drivers/STM32L0xx_HAL_Driver/Inc/stm32l0xx_ll_tim.h ****   4U,            /* 2: CC2P */
  84:Drivers/STM32L0xx_HAL_Driver/Inc/stm32l0xx_ll_tim.h ****   0U,            /* 3: NA */
  85:Drivers/STM32L0xx_HAL_Driver/Inc/stm32l0xx_ll_tim.h ****   8U,            /* 4: CC3P */
  86:Drivers/STM32L0xx_HAL_Driver/Inc/stm32l0xx_ll_tim.h ****   0U,            /* 5: NA */
  87:Drivers/STM32L0xx_HAL_Driver/Inc/stm32l0xx_ll_tim.h ****   12U            /* 6: CC4P */
  88:Drivers/STM32L0xx_HAL_Driver/Inc/stm32l0xx_ll_tim.h **** };
  89:Drivers/STM32L0xx_HAL_Driver/Inc/stm32l0xx_ll_tim.h **** 
  90:Drivers/STM32L0xx_HAL_Driver/Inc/stm32l0xx_ll_tim.h **** /**
  91:Drivers/STM32L0xx_HAL_Driver/Inc/stm32l0xx_ll_tim.h ****   * @}
  92:Drivers/STM32L0xx_HAL_Driver/Inc/stm32l0xx_ll_tim.h ****   */
  93:Drivers/STM32L0xx_HAL_Driver/Inc/stm32l0xx_ll_tim.h **** 
  94:Drivers/STM32L0xx_HAL_Driver/Inc/stm32l0xx_ll_tim.h **** /* Private constants ---------------------------------------------------------*/
  95:Drivers/STM32L0xx_HAL_Driver/Inc/stm32l0xx_ll_tim.h **** /** @defgroup TIM_LL_Private_Constants TIM Private Constants
  96:Drivers/STM32L0xx_HAL_Driver/Inc/stm32l0xx_ll_tim.h ****   * @{
  97:Drivers/STM32L0xx_HAL_Driver/Inc/stm32l0xx_ll_tim.h ****   */
  98:Drivers/STM32L0xx_HAL_Driver/Inc/stm32l0xx_ll_tim.h **** 
  99:Drivers/STM32L0xx_HAL_Driver/Inc/stm32l0xx_ll_tim.h **** 
 100:Drivers/STM32L0xx_HAL_Driver/Inc/stm32l0xx_ll_tim.h **** /* Remap mask definitions */
 101:Drivers/STM32L0xx_HAL_Driver/Inc/stm32l0xx_ll_tim.h **** #define TIMx_OR_RMP_SHIFT  16U
 102:Drivers/STM32L0xx_HAL_Driver/Inc/stm32l0xx_ll_tim.h **** #define TIMx_OR_RMP_MASK   0x0000FFFFU
 103:Drivers/STM32L0xx_HAL_Driver/Inc/stm32l0xx_ll_tim.h **** #define TIM2_OR_RMP_MASK   ((TIM2_OR_ETR_RMP | TIM2_OR_TI4_RMP ) << TIMx_OR_RMP_SHIFT)
 104:Drivers/STM32L0xx_HAL_Driver/Inc/stm32l0xx_ll_tim.h **** #define TIM21_OR_RMP_MASK  ((TIM21_OR_ETR_RMP | TIM21_OR_TI1_RMP | TIM21_OR_TI2_RMP) << TIMx_OR_RMP
 105:Drivers/STM32L0xx_HAL_Driver/Inc/stm32l0xx_ll_tim.h **** #define TIM22_OR_RMP_MASK  ((TIM22_OR_ETR_RMP | TIM22_OR_TI1_RMP) << TIMx_OR_RMP_SHIFT)
 106:Drivers/STM32L0xx_HAL_Driver/Inc/stm32l0xx_ll_tim.h **** #if defined(TIM3)
 107:Drivers/STM32L0xx_HAL_Driver/Inc/stm32l0xx_ll_tim.h **** #define TIM3_OR_RMP_MASK   ((TIM3_OR_ETR_RMP | TIM3_OR_TI1_RMP | TIM3_OR_TI2_RMP | \
 108:Drivers/STM32L0xx_HAL_Driver/Inc/stm32l0xx_ll_tim.h ****                              TIM3_OR_TI4_RMP) << TIMx_OR_RMP_SHIFT)
 109:Drivers/STM32L0xx_HAL_Driver/Inc/stm32l0xx_ll_tim.h **** #endif /* TIM3 */
 110:Drivers/STM32L0xx_HAL_Driver/Inc/stm32l0xx_ll_tim.h **** 
 111:Drivers/STM32L0xx_HAL_Driver/Inc/stm32l0xx_ll_tim.h **** 
 112:Drivers/STM32L0xx_HAL_Driver/Inc/stm32l0xx_ll_tim.h **** 
 113:Drivers/STM32L0xx_HAL_Driver/Inc/stm32l0xx_ll_tim.h **** /**
 114:Drivers/STM32L0xx_HAL_Driver/Inc/stm32l0xx_ll_tim.h ****   * @}
 115:Drivers/STM32L0xx_HAL_Driver/Inc/stm32l0xx_ll_tim.h ****   */
 116:Drivers/STM32L0xx_HAL_Driver/Inc/stm32l0xx_ll_tim.h **** 
 117:Drivers/STM32L0xx_HAL_Driver/Inc/stm32l0xx_ll_tim.h **** /* Private macros ------------------------------------------------------------*/
 118:Drivers/STM32L0xx_HAL_Driver/Inc/stm32l0xx_ll_tim.h **** /** @defgroup TIM_LL_Private_Macros TIM Private Macros
 119:Drivers/STM32L0xx_HAL_Driver/Inc/stm32l0xx_ll_tim.h ****   * @{
 120:Drivers/STM32L0xx_HAL_Driver/Inc/stm32l0xx_ll_tim.h ****   */
 121:Drivers/STM32L0xx_HAL_Driver/Inc/stm32l0xx_ll_tim.h **** /** @brief  Convert channel id into channel index.
 122:Drivers/STM32L0xx_HAL_Driver/Inc/stm32l0xx_ll_tim.h ****   * @param  __CHANNEL__ This parameter can be one of the following values:
 123:Drivers/STM32L0xx_HAL_Driver/Inc/stm32l0xx_ll_tim.h ****   *         @arg @ref LL_TIM_CHANNEL_CH1
 124:Drivers/STM32L0xx_HAL_Driver/Inc/stm32l0xx_ll_tim.h ****   *         @arg @ref LL_TIM_CHANNEL_CH2
 125:Drivers/STM32L0xx_HAL_Driver/Inc/stm32l0xx_ll_tim.h ****   *         @arg @ref LL_TIM_CHANNEL_CH3
 126:Drivers/STM32L0xx_HAL_Driver/Inc/stm32l0xx_ll_tim.h ****   *         @arg @ref LL_TIM_CHANNEL_CH4
 127:Drivers/STM32L0xx_HAL_Driver/Inc/stm32l0xx_ll_tim.h ****   * @retval none
ARM GAS  /tmp/cckNMhWV.s 			page 14


 128:Drivers/STM32L0xx_HAL_Driver/Inc/stm32l0xx_ll_tim.h ****   */
 129:Drivers/STM32L0xx_HAL_Driver/Inc/stm32l0xx_ll_tim.h **** #define TIM_GET_CHANNEL_INDEX( __CHANNEL__) \
 130:Drivers/STM32L0xx_HAL_Driver/Inc/stm32l0xx_ll_tim.h ****   (((__CHANNEL__) == LL_TIM_CHANNEL_CH1) ? 0U :\
 131:Drivers/STM32L0xx_HAL_Driver/Inc/stm32l0xx_ll_tim.h ****    ((__CHANNEL__) == LL_TIM_CHANNEL_CH2) ? 2U :\
 132:Drivers/STM32L0xx_HAL_Driver/Inc/stm32l0xx_ll_tim.h ****    ((__CHANNEL__) == LL_TIM_CHANNEL_CH3) ? 4U : 6U)
 133:Drivers/STM32L0xx_HAL_Driver/Inc/stm32l0xx_ll_tim.h **** 
 134:Drivers/STM32L0xx_HAL_Driver/Inc/stm32l0xx_ll_tim.h **** /**
 135:Drivers/STM32L0xx_HAL_Driver/Inc/stm32l0xx_ll_tim.h ****   * @}
 136:Drivers/STM32L0xx_HAL_Driver/Inc/stm32l0xx_ll_tim.h ****   */
 137:Drivers/STM32L0xx_HAL_Driver/Inc/stm32l0xx_ll_tim.h **** 
 138:Drivers/STM32L0xx_HAL_Driver/Inc/stm32l0xx_ll_tim.h **** 
 139:Drivers/STM32L0xx_HAL_Driver/Inc/stm32l0xx_ll_tim.h **** /* Exported types ------------------------------------------------------------*/
 140:Drivers/STM32L0xx_HAL_Driver/Inc/stm32l0xx_ll_tim.h **** #if defined(USE_FULL_LL_DRIVER)
 141:Drivers/STM32L0xx_HAL_Driver/Inc/stm32l0xx_ll_tim.h **** /** @defgroup TIM_LL_ES_INIT TIM Exported Init structure
 142:Drivers/STM32L0xx_HAL_Driver/Inc/stm32l0xx_ll_tim.h ****   * @{
 143:Drivers/STM32L0xx_HAL_Driver/Inc/stm32l0xx_ll_tim.h ****   */
 144:Drivers/STM32L0xx_HAL_Driver/Inc/stm32l0xx_ll_tim.h **** 
 145:Drivers/STM32L0xx_HAL_Driver/Inc/stm32l0xx_ll_tim.h **** /**
 146:Drivers/STM32L0xx_HAL_Driver/Inc/stm32l0xx_ll_tim.h ****   * @brief  TIM Time Base configuration structure definition.
 147:Drivers/STM32L0xx_HAL_Driver/Inc/stm32l0xx_ll_tim.h ****   */
 148:Drivers/STM32L0xx_HAL_Driver/Inc/stm32l0xx_ll_tim.h **** typedef struct
 149:Drivers/STM32L0xx_HAL_Driver/Inc/stm32l0xx_ll_tim.h **** {
 150:Drivers/STM32L0xx_HAL_Driver/Inc/stm32l0xx_ll_tim.h ****   uint16_t Prescaler;         /*!< Specifies the prescaler value used to divide the TIM clock.
 151:Drivers/STM32L0xx_HAL_Driver/Inc/stm32l0xx_ll_tim.h ****                                    This parameter can be a number between Min_Data=0x0000 and Max_D
 152:Drivers/STM32L0xx_HAL_Driver/Inc/stm32l0xx_ll_tim.h **** 
 153:Drivers/STM32L0xx_HAL_Driver/Inc/stm32l0xx_ll_tim.h ****                                    This feature can be modified afterwards using unitary function
 154:Drivers/STM32L0xx_HAL_Driver/Inc/stm32l0xx_ll_tim.h ****                                    @ref LL_TIM_SetPrescaler().*/
 155:Drivers/STM32L0xx_HAL_Driver/Inc/stm32l0xx_ll_tim.h **** 
 156:Drivers/STM32L0xx_HAL_Driver/Inc/stm32l0xx_ll_tim.h ****   uint32_t CounterMode;       /*!< Specifies the counter mode.
 157:Drivers/STM32L0xx_HAL_Driver/Inc/stm32l0xx_ll_tim.h ****                                    This parameter can be a value of @ref TIM_LL_EC_COUNTERMODE.
 158:Drivers/STM32L0xx_HAL_Driver/Inc/stm32l0xx_ll_tim.h **** 
 159:Drivers/STM32L0xx_HAL_Driver/Inc/stm32l0xx_ll_tim.h ****                                    This feature can be modified afterwards using unitary function
 160:Drivers/STM32L0xx_HAL_Driver/Inc/stm32l0xx_ll_tim.h ****                                    @ref LL_TIM_SetCounterMode().*/
 161:Drivers/STM32L0xx_HAL_Driver/Inc/stm32l0xx_ll_tim.h **** 
 162:Drivers/STM32L0xx_HAL_Driver/Inc/stm32l0xx_ll_tim.h ****   uint32_t Autoreload;        /*!< Specifies the auto reload value to be loaded into the active
 163:Drivers/STM32L0xx_HAL_Driver/Inc/stm32l0xx_ll_tim.h ****                                    Auto-Reload Register at the next update event.
 164:Drivers/STM32L0xx_HAL_Driver/Inc/stm32l0xx_ll_tim.h ****                                    This parameter must be a number between Min_Data=0x0000 and Max_
 165:Drivers/STM32L0xx_HAL_Driver/Inc/stm32l0xx_ll_tim.h ****                                    Some timer instances may support 32 bits counters. In that case 
 166:Drivers/STM32L0xx_HAL_Driver/Inc/stm32l0xx_ll_tim.h ****                                    be a number between 0x0000 and 0xFFFFFFFF.
 167:Drivers/STM32L0xx_HAL_Driver/Inc/stm32l0xx_ll_tim.h **** 
 168:Drivers/STM32L0xx_HAL_Driver/Inc/stm32l0xx_ll_tim.h ****                                    This feature can be modified afterwards using unitary function
 169:Drivers/STM32L0xx_HAL_Driver/Inc/stm32l0xx_ll_tim.h ****                                    @ref LL_TIM_SetAutoReload().*/
 170:Drivers/STM32L0xx_HAL_Driver/Inc/stm32l0xx_ll_tim.h **** 
 171:Drivers/STM32L0xx_HAL_Driver/Inc/stm32l0xx_ll_tim.h ****   uint32_t ClockDivision;     /*!< Specifies the clock division.
 172:Drivers/STM32L0xx_HAL_Driver/Inc/stm32l0xx_ll_tim.h ****                                    This parameter can be a value of @ref TIM_LL_EC_CLOCKDIVISION.
 173:Drivers/STM32L0xx_HAL_Driver/Inc/stm32l0xx_ll_tim.h **** 
 174:Drivers/STM32L0xx_HAL_Driver/Inc/stm32l0xx_ll_tim.h ****                                    This feature can be modified afterwards using unitary function
 175:Drivers/STM32L0xx_HAL_Driver/Inc/stm32l0xx_ll_tim.h ****                                    @ref LL_TIM_SetClockDivision().*/
 176:Drivers/STM32L0xx_HAL_Driver/Inc/stm32l0xx_ll_tim.h **** } LL_TIM_InitTypeDef;
 177:Drivers/STM32L0xx_HAL_Driver/Inc/stm32l0xx_ll_tim.h **** 
 178:Drivers/STM32L0xx_HAL_Driver/Inc/stm32l0xx_ll_tim.h **** /**
 179:Drivers/STM32L0xx_HAL_Driver/Inc/stm32l0xx_ll_tim.h ****   * @brief  TIM Output Compare configuration structure definition.
 180:Drivers/STM32L0xx_HAL_Driver/Inc/stm32l0xx_ll_tim.h ****   */
 181:Drivers/STM32L0xx_HAL_Driver/Inc/stm32l0xx_ll_tim.h **** typedef struct
 182:Drivers/STM32L0xx_HAL_Driver/Inc/stm32l0xx_ll_tim.h **** {
 183:Drivers/STM32L0xx_HAL_Driver/Inc/stm32l0xx_ll_tim.h ****   uint32_t OCMode;        /*!< Specifies the output mode.
 184:Drivers/STM32L0xx_HAL_Driver/Inc/stm32l0xx_ll_tim.h ****                                This parameter can be a value of @ref TIM_LL_EC_OCMODE.
ARM GAS  /tmp/cckNMhWV.s 			page 15


 185:Drivers/STM32L0xx_HAL_Driver/Inc/stm32l0xx_ll_tim.h **** 
 186:Drivers/STM32L0xx_HAL_Driver/Inc/stm32l0xx_ll_tim.h ****                                This feature can be modified afterwards using unitary function
 187:Drivers/STM32L0xx_HAL_Driver/Inc/stm32l0xx_ll_tim.h ****                                @ref LL_TIM_OC_SetMode().*/
 188:Drivers/STM32L0xx_HAL_Driver/Inc/stm32l0xx_ll_tim.h **** 
 189:Drivers/STM32L0xx_HAL_Driver/Inc/stm32l0xx_ll_tim.h ****   uint32_t OCState;       /*!< Specifies the TIM Output Compare state.
 190:Drivers/STM32L0xx_HAL_Driver/Inc/stm32l0xx_ll_tim.h ****                                This parameter can be a value of @ref TIM_LL_EC_OCSTATE.
 191:Drivers/STM32L0xx_HAL_Driver/Inc/stm32l0xx_ll_tim.h **** 
 192:Drivers/STM32L0xx_HAL_Driver/Inc/stm32l0xx_ll_tim.h ****                                This feature can be modified afterwards using unitary functions
 193:Drivers/STM32L0xx_HAL_Driver/Inc/stm32l0xx_ll_tim.h ****                                @ref LL_TIM_CC_EnableChannel() or @ref LL_TIM_CC_DisableChannel().*/
 194:Drivers/STM32L0xx_HAL_Driver/Inc/stm32l0xx_ll_tim.h **** 
 195:Drivers/STM32L0xx_HAL_Driver/Inc/stm32l0xx_ll_tim.h ****   uint32_t CompareValue;  /*!< Specifies the Compare value to be loaded into the Capture Compare Re
 196:Drivers/STM32L0xx_HAL_Driver/Inc/stm32l0xx_ll_tim.h ****                                This parameter can be a number between Min_Data=0x0000 and Max_Data=
 197:Drivers/STM32L0xx_HAL_Driver/Inc/stm32l0xx_ll_tim.h **** 
 198:Drivers/STM32L0xx_HAL_Driver/Inc/stm32l0xx_ll_tim.h ****                                This feature can be modified afterwards using unitary function
 199:Drivers/STM32L0xx_HAL_Driver/Inc/stm32l0xx_ll_tim.h ****                                LL_TIM_OC_SetCompareCHx (x=1..6).*/
 200:Drivers/STM32L0xx_HAL_Driver/Inc/stm32l0xx_ll_tim.h **** 
 201:Drivers/STM32L0xx_HAL_Driver/Inc/stm32l0xx_ll_tim.h ****   uint32_t OCPolarity;    /*!< Specifies the output polarity.
 202:Drivers/STM32L0xx_HAL_Driver/Inc/stm32l0xx_ll_tim.h ****                                This parameter can be a value of @ref TIM_LL_EC_OCPOLARITY.
 203:Drivers/STM32L0xx_HAL_Driver/Inc/stm32l0xx_ll_tim.h **** 
 204:Drivers/STM32L0xx_HAL_Driver/Inc/stm32l0xx_ll_tim.h ****                                This feature can be modified afterwards using unitary function
 205:Drivers/STM32L0xx_HAL_Driver/Inc/stm32l0xx_ll_tim.h ****                                @ref LL_TIM_OC_SetPolarity().*/
 206:Drivers/STM32L0xx_HAL_Driver/Inc/stm32l0xx_ll_tim.h **** 
 207:Drivers/STM32L0xx_HAL_Driver/Inc/stm32l0xx_ll_tim.h **** 
 208:Drivers/STM32L0xx_HAL_Driver/Inc/stm32l0xx_ll_tim.h **** } LL_TIM_OC_InitTypeDef;
 209:Drivers/STM32L0xx_HAL_Driver/Inc/stm32l0xx_ll_tim.h **** 
 210:Drivers/STM32L0xx_HAL_Driver/Inc/stm32l0xx_ll_tim.h **** /**
 211:Drivers/STM32L0xx_HAL_Driver/Inc/stm32l0xx_ll_tim.h ****   * @brief  TIM Input Capture configuration structure definition.
 212:Drivers/STM32L0xx_HAL_Driver/Inc/stm32l0xx_ll_tim.h ****   */
 213:Drivers/STM32L0xx_HAL_Driver/Inc/stm32l0xx_ll_tim.h **** 
 214:Drivers/STM32L0xx_HAL_Driver/Inc/stm32l0xx_ll_tim.h **** typedef struct
 215:Drivers/STM32L0xx_HAL_Driver/Inc/stm32l0xx_ll_tim.h **** {
 216:Drivers/STM32L0xx_HAL_Driver/Inc/stm32l0xx_ll_tim.h **** 
 217:Drivers/STM32L0xx_HAL_Driver/Inc/stm32l0xx_ll_tim.h ****   uint32_t ICPolarity;    /*!< Specifies the active edge of the input signal.
 218:Drivers/STM32L0xx_HAL_Driver/Inc/stm32l0xx_ll_tim.h ****                                This parameter can be a value of @ref TIM_LL_EC_IC_POLARITY.
 219:Drivers/STM32L0xx_HAL_Driver/Inc/stm32l0xx_ll_tim.h **** 
 220:Drivers/STM32L0xx_HAL_Driver/Inc/stm32l0xx_ll_tim.h ****                                This feature can be modified afterwards using unitary function
 221:Drivers/STM32L0xx_HAL_Driver/Inc/stm32l0xx_ll_tim.h ****                                @ref LL_TIM_IC_SetPolarity().*/
 222:Drivers/STM32L0xx_HAL_Driver/Inc/stm32l0xx_ll_tim.h **** 
 223:Drivers/STM32L0xx_HAL_Driver/Inc/stm32l0xx_ll_tim.h ****   uint32_t ICActiveInput; /*!< Specifies the input.
 224:Drivers/STM32L0xx_HAL_Driver/Inc/stm32l0xx_ll_tim.h ****                                This parameter can be a value of @ref TIM_LL_EC_ACTIVEINPUT.
 225:Drivers/STM32L0xx_HAL_Driver/Inc/stm32l0xx_ll_tim.h **** 
 226:Drivers/STM32L0xx_HAL_Driver/Inc/stm32l0xx_ll_tim.h ****                                This feature can be modified afterwards using unitary function
 227:Drivers/STM32L0xx_HAL_Driver/Inc/stm32l0xx_ll_tim.h ****                                @ref LL_TIM_IC_SetActiveInput().*/
 228:Drivers/STM32L0xx_HAL_Driver/Inc/stm32l0xx_ll_tim.h **** 
 229:Drivers/STM32L0xx_HAL_Driver/Inc/stm32l0xx_ll_tim.h ****   uint32_t ICPrescaler;   /*!< Specifies the Input Capture Prescaler.
 230:Drivers/STM32L0xx_HAL_Driver/Inc/stm32l0xx_ll_tim.h ****                                This parameter can be a value of @ref TIM_LL_EC_ICPSC.
 231:Drivers/STM32L0xx_HAL_Driver/Inc/stm32l0xx_ll_tim.h **** 
 232:Drivers/STM32L0xx_HAL_Driver/Inc/stm32l0xx_ll_tim.h ****                                This feature can be modified afterwards using unitary function
 233:Drivers/STM32L0xx_HAL_Driver/Inc/stm32l0xx_ll_tim.h ****                                @ref LL_TIM_IC_SetPrescaler().*/
 234:Drivers/STM32L0xx_HAL_Driver/Inc/stm32l0xx_ll_tim.h **** 
 235:Drivers/STM32L0xx_HAL_Driver/Inc/stm32l0xx_ll_tim.h ****   uint32_t ICFilter;      /*!< Specifies the input capture filter.
 236:Drivers/STM32L0xx_HAL_Driver/Inc/stm32l0xx_ll_tim.h ****                                This parameter can be a value of @ref TIM_LL_EC_IC_FILTER.
 237:Drivers/STM32L0xx_HAL_Driver/Inc/stm32l0xx_ll_tim.h **** 
 238:Drivers/STM32L0xx_HAL_Driver/Inc/stm32l0xx_ll_tim.h ****                                This feature can be modified afterwards using unitary function
 239:Drivers/STM32L0xx_HAL_Driver/Inc/stm32l0xx_ll_tim.h ****                                @ref LL_TIM_IC_SetFilter().*/
 240:Drivers/STM32L0xx_HAL_Driver/Inc/stm32l0xx_ll_tim.h **** } LL_TIM_IC_InitTypeDef;
 241:Drivers/STM32L0xx_HAL_Driver/Inc/stm32l0xx_ll_tim.h **** 
ARM GAS  /tmp/cckNMhWV.s 			page 16


 242:Drivers/STM32L0xx_HAL_Driver/Inc/stm32l0xx_ll_tim.h **** 
 243:Drivers/STM32L0xx_HAL_Driver/Inc/stm32l0xx_ll_tim.h **** /**
 244:Drivers/STM32L0xx_HAL_Driver/Inc/stm32l0xx_ll_tim.h ****   * @brief  TIM Encoder interface configuration structure definition.
 245:Drivers/STM32L0xx_HAL_Driver/Inc/stm32l0xx_ll_tim.h ****   */
 246:Drivers/STM32L0xx_HAL_Driver/Inc/stm32l0xx_ll_tim.h **** typedef struct
 247:Drivers/STM32L0xx_HAL_Driver/Inc/stm32l0xx_ll_tim.h **** {
 248:Drivers/STM32L0xx_HAL_Driver/Inc/stm32l0xx_ll_tim.h ****   uint32_t EncoderMode;     /*!< Specifies the encoder resolution (x2 or x4).
 249:Drivers/STM32L0xx_HAL_Driver/Inc/stm32l0xx_ll_tim.h ****                                  This parameter can be a value of @ref TIM_LL_EC_ENCODERMODE.
 250:Drivers/STM32L0xx_HAL_Driver/Inc/stm32l0xx_ll_tim.h **** 
 251:Drivers/STM32L0xx_HAL_Driver/Inc/stm32l0xx_ll_tim.h ****                                  This feature can be modified afterwards using unitary function
 252:Drivers/STM32L0xx_HAL_Driver/Inc/stm32l0xx_ll_tim.h ****                                  @ref LL_TIM_SetEncoderMode().*/
 253:Drivers/STM32L0xx_HAL_Driver/Inc/stm32l0xx_ll_tim.h **** 
 254:Drivers/STM32L0xx_HAL_Driver/Inc/stm32l0xx_ll_tim.h ****   uint32_t IC1Polarity;     /*!< Specifies the active edge of TI1 input.
 255:Drivers/STM32L0xx_HAL_Driver/Inc/stm32l0xx_ll_tim.h ****                                  This parameter can be a value of @ref TIM_LL_EC_IC_POLARITY.
 256:Drivers/STM32L0xx_HAL_Driver/Inc/stm32l0xx_ll_tim.h **** 
 257:Drivers/STM32L0xx_HAL_Driver/Inc/stm32l0xx_ll_tim.h ****                                  This feature can be modified afterwards using unitary function
 258:Drivers/STM32L0xx_HAL_Driver/Inc/stm32l0xx_ll_tim.h ****                                  @ref LL_TIM_IC_SetPolarity().*/
 259:Drivers/STM32L0xx_HAL_Driver/Inc/stm32l0xx_ll_tim.h **** 
 260:Drivers/STM32L0xx_HAL_Driver/Inc/stm32l0xx_ll_tim.h ****   uint32_t IC1ActiveInput;  /*!< Specifies the TI1 input source
 261:Drivers/STM32L0xx_HAL_Driver/Inc/stm32l0xx_ll_tim.h ****                                  This parameter can be a value of @ref TIM_LL_EC_ACTIVEINPUT.
 262:Drivers/STM32L0xx_HAL_Driver/Inc/stm32l0xx_ll_tim.h **** 
 263:Drivers/STM32L0xx_HAL_Driver/Inc/stm32l0xx_ll_tim.h ****                                  This feature can be modified afterwards using unitary function
 264:Drivers/STM32L0xx_HAL_Driver/Inc/stm32l0xx_ll_tim.h ****                                  @ref LL_TIM_IC_SetActiveInput().*/
 265:Drivers/STM32L0xx_HAL_Driver/Inc/stm32l0xx_ll_tim.h **** 
 266:Drivers/STM32L0xx_HAL_Driver/Inc/stm32l0xx_ll_tim.h ****   uint32_t IC1Prescaler;    /*!< Specifies the TI1 input prescaler value.
 267:Drivers/STM32L0xx_HAL_Driver/Inc/stm32l0xx_ll_tim.h ****                                  This parameter can be a value of @ref TIM_LL_EC_ICPSC.
 268:Drivers/STM32L0xx_HAL_Driver/Inc/stm32l0xx_ll_tim.h **** 
 269:Drivers/STM32L0xx_HAL_Driver/Inc/stm32l0xx_ll_tim.h ****                                  This feature can be modified afterwards using unitary function
 270:Drivers/STM32L0xx_HAL_Driver/Inc/stm32l0xx_ll_tim.h ****                                  @ref LL_TIM_IC_SetPrescaler().*/
 271:Drivers/STM32L0xx_HAL_Driver/Inc/stm32l0xx_ll_tim.h **** 
 272:Drivers/STM32L0xx_HAL_Driver/Inc/stm32l0xx_ll_tim.h ****   uint32_t IC1Filter;       /*!< Specifies the TI1 input filter.
 273:Drivers/STM32L0xx_HAL_Driver/Inc/stm32l0xx_ll_tim.h ****                                  This parameter can be a value of @ref TIM_LL_EC_IC_FILTER.
 274:Drivers/STM32L0xx_HAL_Driver/Inc/stm32l0xx_ll_tim.h **** 
 275:Drivers/STM32L0xx_HAL_Driver/Inc/stm32l0xx_ll_tim.h ****                                  This feature can be modified afterwards using unitary function
 276:Drivers/STM32L0xx_HAL_Driver/Inc/stm32l0xx_ll_tim.h ****                                  @ref LL_TIM_IC_SetFilter().*/
 277:Drivers/STM32L0xx_HAL_Driver/Inc/stm32l0xx_ll_tim.h **** 
 278:Drivers/STM32L0xx_HAL_Driver/Inc/stm32l0xx_ll_tim.h ****   uint32_t IC2Polarity;      /*!< Specifies the active edge of TI2 input.
 279:Drivers/STM32L0xx_HAL_Driver/Inc/stm32l0xx_ll_tim.h ****                                  This parameter can be a value of @ref TIM_LL_EC_IC_POLARITY.
 280:Drivers/STM32L0xx_HAL_Driver/Inc/stm32l0xx_ll_tim.h **** 
 281:Drivers/STM32L0xx_HAL_Driver/Inc/stm32l0xx_ll_tim.h ****                                  This feature can be modified afterwards using unitary function
 282:Drivers/STM32L0xx_HAL_Driver/Inc/stm32l0xx_ll_tim.h ****                                  @ref LL_TIM_IC_SetPolarity().*/
 283:Drivers/STM32L0xx_HAL_Driver/Inc/stm32l0xx_ll_tim.h **** 
 284:Drivers/STM32L0xx_HAL_Driver/Inc/stm32l0xx_ll_tim.h ****   uint32_t IC2ActiveInput;  /*!< Specifies the TI2 input source
 285:Drivers/STM32L0xx_HAL_Driver/Inc/stm32l0xx_ll_tim.h ****                                  This parameter can be a value of @ref TIM_LL_EC_ACTIVEINPUT.
 286:Drivers/STM32L0xx_HAL_Driver/Inc/stm32l0xx_ll_tim.h **** 
 287:Drivers/STM32L0xx_HAL_Driver/Inc/stm32l0xx_ll_tim.h ****                                  This feature can be modified afterwards using unitary function
 288:Drivers/STM32L0xx_HAL_Driver/Inc/stm32l0xx_ll_tim.h ****                                  @ref LL_TIM_IC_SetActiveInput().*/
 289:Drivers/STM32L0xx_HAL_Driver/Inc/stm32l0xx_ll_tim.h **** 
 290:Drivers/STM32L0xx_HAL_Driver/Inc/stm32l0xx_ll_tim.h ****   uint32_t IC2Prescaler;    /*!< Specifies the TI2 input prescaler value.
 291:Drivers/STM32L0xx_HAL_Driver/Inc/stm32l0xx_ll_tim.h ****                                  This parameter can be a value of @ref TIM_LL_EC_ICPSC.
 292:Drivers/STM32L0xx_HAL_Driver/Inc/stm32l0xx_ll_tim.h **** 
 293:Drivers/STM32L0xx_HAL_Driver/Inc/stm32l0xx_ll_tim.h ****                                  This feature can be modified afterwards using unitary function
 294:Drivers/STM32L0xx_HAL_Driver/Inc/stm32l0xx_ll_tim.h ****                                  @ref LL_TIM_IC_SetPrescaler().*/
 295:Drivers/STM32L0xx_HAL_Driver/Inc/stm32l0xx_ll_tim.h **** 
 296:Drivers/STM32L0xx_HAL_Driver/Inc/stm32l0xx_ll_tim.h ****   uint32_t IC2Filter;       /*!< Specifies the TI2 input filter.
 297:Drivers/STM32L0xx_HAL_Driver/Inc/stm32l0xx_ll_tim.h ****                                  This parameter can be a value of @ref TIM_LL_EC_IC_FILTER.
 298:Drivers/STM32L0xx_HAL_Driver/Inc/stm32l0xx_ll_tim.h **** 
ARM GAS  /tmp/cckNMhWV.s 			page 17


 299:Drivers/STM32L0xx_HAL_Driver/Inc/stm32l0xx_ll_tim.h ****                                  This feature can be modified afterwards using unitary function
 300:Drivers/STM32L0xx_HAL_Driver/Inc/stm32l0xx_ll_tim.h ****                                  @ref LL_TIM_IC_SetFilter().*/
 301:Drivers/STM32L0xx_HAL_Driver/Inc/stm32l0xx_ll_tim.h **** 
 302:Drivers/STM32L0xx_HAL_Driver/Inc/stm32l0xx_ll_tim.h **** } LL_TIM_ENCODER_InitTypeDef;
 303:Drivers/STM32L0xx_HAL_Driver/Inc/stm32l0xx_ll_tim.h **** 
 304:Drivers/STM32L0xx_HAL_Driver/Inc/stm32l0xx_ll_tim.h **** 
 305:Drivers/STM32L0xx_HAL_Driver/Inc/stm32l0xx_ll_tim.h **** /**
 306:Drivers/STM32L0xx_HAL_Driver/Inc/stm32l0xx_ll_tim.h ****   * @}
 307:Drivers/STM32L0xx_HAL_Driver/Inc/stm32l0xx_ll_tim.h ****   */
 308:Drivers/STM32L0xx_HAL_Driver/Inc/stm32l0xx_ll_tim.h **** #endif /* USE_FULL_LL_DRIVER */
 309:Drivers/STM32L0xx_HAL_Driver/Inc/stm32l0xx_ll_tim.h **** 
 310:Drivers/STM32L0xx_HAL_Driver/Inc/stm32l0xx_ll_tim.h **** /* Exported constants --------------------------------------------------------*/
 311:Drivers/STM32L0xx_HAL_Driver/Inc/stm32l0xx_ll_tim.h **** /** @defgroup TIM_LL_Exported_Constants TIM Exported Constants
 312:Drivers/STM32L0xx_HAL_Driver/Inc/stm32l0xx_ll_tim.h ****   * @{
 313:Drivers/STM32L0xx_HAL_Driver/Inc/stm32l0xx_ll_tim.h ****   */
 314:Drivers/STM32L0xx_HAL_Driver/Inc/stm32l0xx_ll_tim.h **** 
 315:Drivers/STM32L0xx_HAL_Driver/Inc/stm32l0xx_ll_tim.h **** /** @defgroup TIM_LL_EC_GET_FLAG Get Flags Defines
 316:Drivers/STM32L0xx_HAL_Driver/Inc/stm32l0xx_ll_tim.h ****   * @brief    Flags defines which can be used with LL_TIM_ReadReg function.
 317:Drivers/STM32L0xx_HAL_Driver/Inc/stm32l0xx_ll_tim.h ****   * @{
 318:Drivers/STM32L0xx_HAL_Driver/Inc/stm32l0xx_ll_tim.h ****   */
 319:Drivers/STM32L0xx_HAL_Driver/Inc/stm32l0xx_ll_tim.h **** #define LL_TIM_SR_UIF                          TIM_SR_UIF           /*!< Update interrupt flag */
 320:Drivers/STM32L0xx_HAL_Driver/Inc/stm32l0xx_ll_tim.h **** #define LL_TIM_SR_CC1IF                        TIM_SR_CC1IF         /*!< Capture/compare 1 interrup
 321:Drivers/STM32L0xx_HAL_Driver/Inc/stm32l0xx_ll_tim.h **** #define LL_TIM_SR_CC2IF                        TIM_SR_CC2IF         /*!< Capture/compare 2 interrup
 322:Drivers/STM32L0xx_HAL_Driver/Inc/stm32l0xx_ll_tim.h **** #define LL_TIM_SR_CC3IF                        TIM_SR_CC3IF         /*!< Capture/compare 3 interrup
 323:Drivers/STM32L0xx_HAL_Driver/Inc/stm32l0xx_ll_tim.h **** #define LL_TIM_SR_CC4IF                        TIM_SR_CC4IF         /*!< Capture/compare 4 interrup
 324:Drivers/STM32L0xx_HAL_Driver/Inc/stm32l0xx_ll_tim.h **** #define LL_TIM_SR_TIF                          TIM_SR_TIF           /*!< Trigger interrupt flag */
 325:Drivers/STM32L0xx_HAL_Driver/Inc/stm32l0xx_ll_tim.h **** #define LL_TIM_SR_CC1OF                        TIM_SR_CC1OF         /*!< Capture/Compare 1 overcapt
 326:Drivers/STM32L0xx_HAL_Driver/Inc/stm32l0xx_ll_tim.h **** #define LL_TIM_SR_CC2OF                        TIM_SR_CC2OF         /*!< Capture/Compare 2 overcapt
 327:Drivers/STM32L0xx_HAL_Driver/Inc/stm32l0xx_ll_tim.h **** #define LL_TIM_SR_CC3OF                        TIM_SR_CC3OF         /*!< Capture/Compare 3 overcapt
 328:Drivers/STM32L0xx_HAL_Driver/Inc/stm32l0xx_ll_tim.h **** #define LL_TIM_SR_CC4OF                        TIM_SR_CC4OF         /*!< Capture/Compare 4 overcapt
 329:Drivers/STM32L0xx_HAL_Driver/Inc/stm32l0xx_ll_tim.h **** /**
 330:Drivers/STM32L0xx_HAL_Driver/Inc/stm32l0xx_ll_tim.h ****   * @}
 331:Drivers/STM32L0xx_HAL_Driver/Inc/stm32l0xx_ll_tim.h ****   */
 332:Drivers/STM32L0xx_HAL_Driver/Inc/stm32l0xx_ll_tim.h **** 
 333:Drivers/STM32L0xx_HAL_Driver/Inc/stm32l0xx_ll_tim.h **** /** @defgroup TIM_LL_EC_IT IT Defines
 334:Drivers/STM32L0xx_HAL_Driver/Inc/stm32l0xx_ll_tim.h ****   * @brief    IT defines which can be used with LL_TIM_ReadReg and  LL_TIM_WriteReg functions.
 335:Drivers/STM32L0xx_HAL_Driver/Inc/stm32l0xx_ll_tim.h ****   * @{
 336:Drivers/STM32L0xx_HAL_Driver/Inc/stm32l0xx_ll_tim.h ****   */
 337:Drivers/STM32L0xx_HAL_Driver/Inc/stm32l0xx_ll_tim.h **** #define LL_TIM_DIER_UIE                        TIM_DIER_UIE         /*!< Update interrupt enable */
 338:Drivers/STM32L0xx_HAL_Driver/Inc/stm32l0xx_ll_tim.h **** #define LL_TIM_DIER_CC1IE                      TIM_DIER_CC1IE       /*!< Capture/compare 1 interrup
 339:Drivers/STM32L0xx_HAL_Driver/Inc/stm32l0xx_ll_tim.h **** #define LL_TIM_DIER_CC2IE                      TIM_DIER_CC2IE       /*!< Capture/compare 2 interrup
 340:Drivers/STM32L0xx_HAL_Driver/Inc/stm32l0xx_ll_tim.h **** #define LL_TIM_DIER_CC3IE                      TIM_DIER_CC3IE       /*!< Capture/compare 3 interrup
 341:Drivers/STM32L0xx_HAL_Driver/Inc/stm32l0xx_ll_tim.h **** #define LL_TIM_DIER_CC4IE                      TIM_DIER_CC4IE       /*!< Capture/compare 4 interrup
 342:Drivers/STM32L0xx_HAL_Driver/Inc/stm32l0xx_ll_tim.h **** #define LL_TIM_DIER_TIE                        TIM_DIER_TIE         /*!< Trigger interrupt enable *
 343:Drivers/STM32L0xx_HAL_Driver/Inc/stm32l0xx_ll_tim.h **** /**
 344:Drivers/STM32L0xx_HAL_Driver/Inc/stm32l0xx_ll_tim.h ****   * @}
 345:Drivers/STM32L0xx_HAL_Driver/Inc/stm32l0xx_ll_tim.h ****   */
 346:Drivers/STM32L0xx_HAL_Driver/Inc/stm32l0xx_ll_tim.h **** 
 347:Drivers/STM32L0xx_HAL_Driver/Inc/stm32l0xx_ll_tim.h **** /** @defgroup TIM_LL_EC_UPDATESOURCE Update Source
 348:Drivers/STM32L0xx_HAL_Driver/Inc/stm32l0xx_ll_tim.h ****   * @{
 349:Drivers/STM32L0xx_HAL_Driver/Inc/stm32l0xx_ll_tim.h ****   */
 350:Drivers/STM32L0xx_HAL_Driver/Inc/stm32l0xx_ll_tim.h **** #define LL_TIM_UPDATESOURCE_REGULAR            0x00000000U          /*!< Counter overflow/underflow
 351:Drivers/STM32L0xx_HAL_Driver/Inc/stm32l0xx_ll_tim.h **** #define LL_TIM_UPDATESOURCE_COUNTER            TIM_CR1_URS          /*!< Only counter overflow/unde
 352:Drivers/STM32L0xx_HAL_Driver/Inc/stm32l0xx_ll_tim.h **** /**
 353:Drivers/STM32L0xx_HAL_Driver/Inc/stm32l0xx_ll_tim.h ****   * @}
 354:Drivers/STM32L0xx_HAL_Driver/Inc/stm32l0xx_ll_tim.h ****   */
 355:Drivers/STM32L0xx_HAL_Driver/Inc/stm32l0xx_ll_tim.h **** 
ARM GAS  /tmp/cckNMhWV.s 			page 18


 356:Drivers/STM32L0xx_HAL_Driver/Inc/stm32l0xx_ll_tim.h **** /** @defgroup TIM_LL_EC_ONEPULSEMODE One Pulse Mode
 357:Drivers/STM32L0xx_HAL_Driver/Inc/stm32l0xx_ll_tim.h ****   * @{
 358:Drivers/STM32L0xx_HAL_Driver/Inc/stm32l0xx_ll_tim.h ****   */
 359:Drivers/STM32L0xx_HAL_Driver/Inc/stm32l0xx_ll_tim.h **** #define LL_TIM_ONEPULSEMODE_SINGLE             TIM_CR1_OPM          /*!< Counter stops counting at 
 360:Drivers/STM32L0xx_HAL_Driver/Inc/stm32l0xx_ll_tim.h **** #define LL_TIM_ONEPULSEMODE_REPETITIVE         0x00000000U          /*!< Counter is not stopped at 
 361:Drivers/STM32L0xx_HAL_Driver/Inc/stm32l0xx_ll_tim.h **** /**
 362:Drivers/STM32L0xx_HAL_Driver/Inc/stm32l0xx_ll_tim.h ****   * @}
 363:Drivers/STM32L0xx_HAL_Driver/Inc/stm32l0xx_ll_tim.h ****   */
 364:Drivers/STM32L0xx_HAL_Driver/Inc/stm32l0xx_ll_tim.h **** 
 365:Drivers/STM32L0xx_HAL_Driver/Inc/stm32l0xx_ll_tim.h **** /** @defgroup TIM_LL_EC_COUNTERMODE Counter Mode
 366:Drivers/STM32L0xx_HAL_Driver/Inc/stm32l0xx_ll_tim.h ****   * @{
 367:Drivers/STM32L0xx_HAL_Driver/Inc/stm32l0xx_ll_tim.h ****   */
 368:Drivers/STM32L0xx_HAL_Driver/Inc/stm32l0xx_ll_tim.h **** #define LL_TIM_COUNTERMODE_UP                  0x00000000U          /*!<Counter used as upcounter *
 369:Drivers/STM32L0xx_HAL_Driver/Inc/stm32l0xx_ll_tim.h **** #define LL_TIM_COUNTERMODE_DOWN                TIM_CR1_DIR          /*!< Counter used as downcounte
 370:Drivers/STM32L0xx_HAL_Driver/Inc/stm32l0xx_ll_tim.h **** #define LL_TIM_COUNTERMODE_CENTER_DOWN         TIM_CR1_CMS_0        /*!< The counter counts up and 
 371:Drivers/STM32L0xx_HAL_Driver/Inc/stm32l0xx_ll_tim.h **** #define LL_TIM_COUNTERMODE_CENTER_UP           TIM_CR1_CMS_1        /*!<The counter counts up and d
 372:Drivers/STM32L0xx_HAL_Driver/Inc/stm32l0xx_ll_tim.h **** #define LL_TIM_COUNTERMODE_CENTER_UP_DOWN      TIM_CR1_CMS          /*!< The counter counts up and 
 373:Drivers/STM32L0xx_HAL_Driver/Inc/stm32l0xx_ll_tim.h **** /**
 374:Drivers/STM32L0xx_HAL_Driver/Inc/stm32l0xx_ll_tim.h ****   * @}
 375:Drivers/STM32L0xx_HAL_Driver/Inc/stm32l0xx_ll_tim.h ****   */
 376:Drivers/STM32L0xx_HAL_Driver/Inc/stm32l0xx_ll_tim.h **** 
 377:Drivers/STM32L0xx_HAL_Driver/Inc/stm32l0xx_ll_tim.h **** /** @defgroup TIM_LL_EC_CLOCKDIVISION Clock Division
 378:Drivers/STM32L0xx_HAL_Driver/Inc/stm32l0xx_ll_tim.h ****   * @{
 379:Drivers/STM32L0xx_HAL_Driver/Inc/stm32l0xx_ll_tim.h ****   */
 380:Drivers/STM32L0xx_HAL_Driver/Inc/stm32l0xx_ll_tim.h **** #define LL_TIM_CLOCKDIVISION_DIV1              0x00000000U          /*!< tDTS=tCK_INT */
 381:Drivers/STM32L0xx_HAL_Driver/Inc/stm32l0xx_ll_tim.h **** #define LL_TIM_CLOCKDIVISION_DIV2              TIM_CR1_CKD_0        /*!< tDTS=2*tCK_INT */
 382:Drivers/STM32L0xx_HAL_Driver/Inc/stm32l0xx_ll_tim.h **** #define LL_TIM_CLOCKDIVISION_DIV4              TIM_CR1_CKD_1        /*!< tDTS=4*tCK_INT */
 383:Drivers/STM32L0xx_HAL_Driver/Inc/stm32l0xx_ll_tim.h **** /**
 384:Drivers/STM32L0xx_HAL_Driver/Inc/stm32l0xx_ll_tim.h ****   * @}
 385:Drivers/STM32L0xx_HAL_Driver/Inc/stm32l0xx_ll_tim.h ****   */
 386:Drivers/STM32L0xx_HAL_Driver/Inc/stm32l0xx_ll_tim.h **** 
 387:Drivers/STM32L0xx_HAL_Driver/Inc/stm32l0xx_ll_tim.h **** /** @defgroup TIM_LL_EC_COUNTERDIRECTION Counter Direction
 388:Drivers/STM32L0xx_HAL_Driver/Inc/stm32l0xx_ll_tim.h ****   * @{
 389:Drivers/STM32L0xx_HAL_Driver/Inc/stm32l0xx_ll_tim.h ****   */
 390:Drivers/STM32L0xx_HAL_Driver/Inc/stm32l0xx_ll_tim.h **** #define LL_TIM_COUNTERDIRECTION_UP             0x00000000U          /*!< Timer counter counts up */
 391:Drivers/STM32L0xx_HAL_Driver/Inc/stm32l0xx_ll_tim.h **** #define LL_TIM_COUNTERDIRECTION_DOWN           TIM_CR1_DIR          /*!< Timer counter counts down 
 392:Drivers/STM32L0xx_HAL_Driver/Inc/stm32l0xx_ll_tim.h **** /**
 393:Drivers/STM32L0xx_HAL_Driver/Inc/stm32l0xx_ll_tim.h ****   * @}
 394:Drivers/STM32L0xx_HAL_Driver/Inc/stm32l0xx_ll_tim.h ****   */
 395:Drivers/STM32L0xx_HAL_Driver/Inc/stm32l0xx_ll_tim.h **** 
 396:Drivers/STM32L0xx_HAL_Driver/Inc/stm32l0xx_ll_tim.h **** 
 397:Drivers/STM32L0xx_HAL_Driver/Inc/stm32l0xx_ll_tim.h **** /** @defgroup TIM_LL_EC_CCDMAREQUEST Capture Compare DMA Request
 398:Drivers/STM32L0xx_HAL_Driver/Inc/stm32l0xx_ll_tim.h ****   * @{
 399:Drivers/STM32L0xx_HAL_Driver/Inc/stm32l0xx_ll_tim.h ****   */
 400:Drivers/STM32L0xx_HAL_Driver/Inc/stm32l0xx_ll_tim.h **** #define LL_TIM_CCDMAREQUEST_CC                 0x00000000U          /*!< CCx DMA request sent when 
 401:Drivers/STM32L0xx_HAL_Driver/Inc/stm32l0xx_ll_tim.h **** #define LL_TIM_CCDMAREQUEST_UPDATE             TIM_CR2_CCDS         /*!< CCx DMA requests sent when
 402:Drivers/STM32L0xx_HAL_Driver/Inc/stm32l0xx_ll_tim.h **** /**
 403:Drivers/STM32L0xx_HAL_Driver/Inc/stm32l0xx_ll_tim.h ****   * @}
 404:Drivers/STM32L0xx_HAL_Driver/Inc/stm32l0xx_ll_tim.h ****   */
 405:Drivers/STM32L0xx_HAL_Driver/Inc/stm32l0xx_ll_tim.h **** 
 406:Drivers/STM32L0xx_HAL_Driver/Inc/stm32l0xx_ll_tim.h **** 
 407:Drivers/STM32L0xx_HAL_Driver/Inc/stm32l0xx_ll_tim.h **** /** @defgroup TIM_LL_EC_CHANNEL Channel
 408:Drivers/STM32L0xx_HAL_Driver/Inc/stm32l0xx_ll_tim.h ****   * @{
 409:Drivers/STM32L0xx_HAL_Driver/Inc/stm32l0xx_ll_tim.h ****   */
 410:Drivers/STM32L0xx_HAL_Driver/Inc/stm32l0xx_ll_tim.h **** #define LL_TIM_CHANNEL_CH1                     TIM_CCER_CC1E     /*!< Timer input/output channel 1 
 411:Drivers/STM32L0xx_HAL_Driver/Inc/stm32l0xx_ll_tim.h **** #define LL_TIM_CHANNEL_CH2                     TIM_CCER_CC2E     /*!< Timer input/output channel 2 
 412:Drivers/STM32L0xx_HAL_Driver/Inc/stm32l0xx_ll_tim.h **** #define LL_TIM_CHANNEL_CH3                     TIM_CCER_CC3E     /*!< Timer input/output channel 3 
ARM GAS  /tmp/cckNMhWV.s 			page 19


 413:Drivers/STM32L0xx_HAL_Driver/Inc/stm32l0xx_ll_tim.h **** #define LL_TIM_CHANNEL_CH4                     TIM_CCER_CC4E     /*!< Timer input/output channel 4 
 414:Drivers/STM32L0xx_HAL_Driver/Inc/stm32l0xx_ll_tim.h **** /**
 415:Drivers/STM32L0xx_HAL_Driver/Inc/stm32l0xx_ll_tim.h ****   * @}
 416:Drivers/STM32L0xx_HAL_Driver/Inc/stm32l0xx_ll_tim.h ****   */
 417:Drivers/STM32L0xx_HAL_Driver/Inc/stm32l0xx_ll_tim.h **** 
 418:Drivers/STM32L0xx_HAL_Driver/Inc/stm32l0xx_ll_tim.h **** #if defined(USE_FULL_LL_DRIVER)
 419:Drivers/STM32L0xx_HAL_Driver/Inc/stm32l0xx_ll_tim.h **** /** @defgroup TIM_LL_EC_OCSTATE Output Configuration State
 420:Drivers/STM32L0xx_HAL_Driver/Inc/stm32l0xx_ll_tim.h ****   * @{
 421:Drivers/STM32L0xx_HAL_Driver/Inc/stm32l0xx_ll_tim.h ****   */
 422:Drivers/STM32L0xx_HAL_Driver/Inc/stm32l0xx_ll_tim.h **** #define LL_TIM_OCSTATE_DISABLE                 0x00000000U             /*!< OCx is not active */
 423:Drivers/STM32L0xx_HAL_Driver/Inc/stm32l0xx_ll_tim.h **** #define LL_TIM_OCSTATE_ENABLE                  TIM_CCER_CC1E           /*!< OCx signal is output on
 424:Drivers/STM32L0xx_HAL_Driver/Inc/stm32l0xx_ll_tim.h **** /**
 425:Drivers/STM32L0xx_HAL_Driver/Inc/stm32l0xx_ll_tim.h ****   * @}
 426:Drivers/STM32L0xx_HAL_Driver/Inc/stm32l0xx_ll_tim.h ****   */
 427:Drivers/STM32L0xx_HAL_Driver/Inc/stm32l0xx_ll_tim.h **** #endif /* USE_FULL_LL_DRIVER */
 428:Drivers/STM32L0xx_HAL_Driver/Inc/stm32l0xx_ll_tim.h **** 
 429:Drivers/STM32L0xx_HAL_Driver/Inc/stm32l0xx_ll_tim.h **** /** @defgroup TIM_LL_EC_OCMODE Output Configuration Mode
 430:Drivers/STM32L0xx_HAL_Driver/Inc/stm32l0xx_ll_tim.h ****   * @{
 431:Drivers/STM32L0xx_HAL_Driver/Inc/stm32l0xx_ll_tim.h ****   */
 432:Drivers/STM32L0xx_HAL_Driver/Inc/stm32l0xx_ll_tim.h **** #define LL_TIM_OCMODE_FROZEN                   0x00000000U                                         
 433:Drivers/STM32L0xx_HAL_Driver/Inc/stm32l0xx_ll_tim.h **** #define LL_TIM_OCMODE_ACTIVE                   TIM_CCMR1_OC1M_0                                    
 434:Drivers/STM32L0xx_HAL_Driver/Inc/stm32l0xx_ll_tim.h **** #define LL_TIM_OCMODE_INACTIVE                 TIM_CCMR1_OC1M_1                                    
 435:Drivers/STM32L0xx_HAL_Driver/Inc/stm32l0xx_ll_tim.h **** #define LL_TIM_OCMODE_TOGGLE                   (TIM_CCMR1_OC1M_1 | TIM_CCMR1_OC1M_0)               
 436:Drivers/STM32L0xx_HAL_Driver/Inc/stm32l0xx_ll_tim.h **** #define LL_TIM_OCMODE_FORCED_INACTIVE          TIM_CCMR1_OC1M_2                                    
 437:Drivers/STM32L0xx_HAL_Driver/Inc/stm32l0xx_ll_tim.h **** #define LL_TIM_OCMODE_FORCED_ACTIVE            (TIM_CCMR1_OC1M_2 | TIM_CCMR1_OC1M_0)               
 438:Drivers/STM32L0xx_HAL_Driver/Inc/stm32l0xx_ll_tim.h **** #define LL_TIM_OCMODE_PWM1                     (TIM_CCMR1_OC1M_2 | TIM_CCMR1_OC1M_1)               
 439:Drivers/STM32L0xx_HAL_Driver/Inc/stm32l0xx_ll_tim.h **** #define LL_TIM_OCMODE_PWM2                     (TIM_CCMR1_OC1M_2 | TIM_CCMR1_OC1M_1 | TIM_CCMR1_OC1
 440:Drivers/STM32L0xx_HAL_Driver/Inc/stm32l0xx_ll_tim.h **** /**
 441:Drivers/STM32L0xx_HAL_Driver/Inc/stm32l0xx_ll_tim.h ****   * @}
 442:Drivers/STM32L0xx_HAL_Driver/Inc/stm32l0xx_ll_tim.h ****   */
 443:Drivers/STM32L0xx_HAL_Driver/Inc/stm32l0xx_ll_tim.h **** 
 444:Drivers/STM32L0xx_HAL_Driver/Inc/stm32l0xx_ll_tim.h **** /** @defgroup TIM_LL_EC_OCPOLARITY Output Configuration Polarity
 445:Drivers/STM32L0xx_HAL_Driver/Inc/stm32l0xx_ll_tim.h ****   * @{
 446:Drivers/STM32L0xx_HAL_Driver/Inc/stm32l0xx_ll_tim.h ****   */
 447:Drivers/STM32L0xx_HAL_Driver/Inc/stm32l0xx_ll_tim.h **** #define LL_TIM_OCPOLARITY_HIGH                 0x00000000U                 /*!< OCxactive high*/
 448:Drivers/STM32L0xx_HAL_Driver/Inc/stm32l0xx_ll_tim.h **** #define LL_TIM_OCPOLARITY_LOW                  TIM_CCER_CC1P               /*!< OCxactive low*/
 449:Drivers/STM32L0xx_HAL_Driver/Inc/stm32l0xx_ll_tim.h **** /**
 450:Drivers/STM32L0xx_HAL_Driver/Inc/stm32l0xx_ll_tim.h ****   * @}
 451:Drivers/STM32L0xx_HAL_Driver/Inc/stm32l0xx_ll_tim.h ****   */
 452:Drivers/STM32L0xx_HAL_Driver/Inc/stm32l0xx_ll_tim.h **** 
 453:Drivers/STM32L0xx_HAL_Driver/Inc/stm32l0xx_ll_tim.h **** 
 454:Drivers/STM32L0xx_HAL_Driver/Inc/stm32l0xx_ll_tim.h **** 
 455:Drivers/STM32L0xx_HAL_Driver/Inc/stm32l0xx_ll_tim.h **** /** @defgroup TIM_LL_EC_ACTIVEINPUT Active Input Selection
 456:Drivers/STM32L0xx_HAL_Driver/Inc/stm32l0xx_ll_tim.h ****   * @{
 457:Drivers/STM32L0xx_HAL_Driver/Inc/stm32l0xx_ll_tim.h ****   */
 458:Drivers/STM32L0xx_HAL_Driver/Inc/stm32l0xx_ll_tim.h **** #define LL_TIM_ACTIVEINPUT_DIRECTTI            (TIM_CCMR1_CC1S_0 << 16U) /*!< ICx is mapped on TIx 
 459:Drivers/STM32L0xx_HAL_Driver/Inc/stm32l0xx_ll_tim.h **** #define LL_TIM_ACTIVEINPUT_INDIRECTTI          (TIM_CCMR1_CC1S_1 << 16U) /*!< ICx is mapped on TIy 
 460:Drivers/STM32L0xx_HAL_Driver/Inc/stm32l0xx_ll_tim.h **** #define LL_TIM_ACTIVEINPUT_TRC                 (TIM_CCMR1_CC1S << 16U)   /*!< ICx is mapped on TRC 
 461:Drivers/STM32L0xx_HAL_Driver/Inc/stm32l0xx_ll_tim.h **** /**
 462:Drivers/STM32L0xx_HAL_Driver/Inc/stm32l0xx_ll_tim.h ****   * @}
 463:Drivers/STM32L0xx_HAL_Driver/Inc/stm32l0xx_ll_tim.h ****   */
 464:Drivers/STM32L0xx_HAL_Driver/Inc/stm32l0xx_ll_tim.h **** 
 465:Drivers/STM32L0xx_HAL_Driver/Inc/stm32l0xx_ll_tim.h **** /** @defgroup TIM_LL_EC_ICPSC Input Configuration Prescaler
 466:Drivers/STM32L0xx_HAL_Driver/Inc/stm32l0xx_ll_tim.h ****   * @{
 467:Drivers/STM32L0xx_HAL_Driver/Inc/stm32l0xx_ll_tim.h ****   */
 468:Drivers/STM32L0xx_HAL_Driver/Inc/stm32l0xx_ll_tim.h **** #define LL_TIM_ICPSC_DIV1                      0x00000000U                    /*!< No prescaler, ca
 469:Drivers/STM32L0xx_HAL_Driver/Inc/stm32l0xx_ll_tim.h **** #define LL_TIM_ICPSC_DIV2                      (TIM_CCMR1_IC1PSC_0 << 16U)    /*!< Capture is done 
ARM GAS  /tmp/cckNMhWV.s 			page 20


 470:Drivers/STM32L0xx_HAL_Driver/Inc/stm32l0xx_ll_tim.h **** #define LL_TIM_ICPSC_DIV4                      (TIM_CCMR1_IC1PSC_1 << 16U)    /*!< Capture is done 
 471:Drivers/STM32L0xx_HAL_Driver/Inc/stm32l0xx_ll_tim.h **** #define LL_TIM_ICPSC_DIV8                      (TIM_CCMR1_IC1PSC << 16U)      /*!< Capture is done 
 472:Drivers/STM32L0xx_HAL_Driver/Inc/stm32l0xx_ll_tim.h **** /**
 473:Drivers/STM32L0xx_HAL_Driver/Inc/stm32l0xx_ll_tim.h ****   * @}
 474:Drivers/STM32L0xx_HAL_Driver/Inc/stm32l0xx_ll_tim.h ****   */
 475:Drivers/STM32L0xx_HAL_Driver/Inc/stm32l0xx_ll_tim.h **** 
 476:Drivers/STM32L0xx_HAL_Driver/Inc/stm32l0xx_ll_tim.h **** /** @defgroup TIM_LL_EC_IC_FILTER Input Configuration Filter
 477:Drivers/STM32L0xx_HAL_Driver/Inc/stm32l0xx_ll_tim.h ****   * @{
 478:Drivers/STM32L0xx_HAL_Driver/Inc/stm32l0xx_ll_tim.h ****   */
 479:Drivers/STM32L0xx_HAL_Driver/Inc/stm32l0xx_ll_tim.h **** #define LL_TIM_IC_FILTER_FDIV1                 0x00000000U                                         
 480:Drivers/STM32L0xx_HAL_Driver/Inc/stm32l0xx_ll_tim.h **** #define LL_TIM_IC_FILTER_FDIV1_N2              (TIM_CCMR1_IC1F_0 << 16U)                           
 481:Drivers/STM32L0xx_HAL_Driver/Inc/stm32l0xx_ll_tim.h **** #define LL_TIM_IC_FILTER_FDIV1_N4              (TIM_CCMR1_IC1F_1 << 16U)                           
 482:Drivers/STM32L0xx_HAL_Driver/Inc/stm32l0xx_ll_tim.h **** #define LL_TIM_IC_FILTER_FDIV1_N8              ((TIM_CCMR1_IC1F_1 | TIM_CCMR1_IC1F_0) << 16U)      
 483:Drivers/STM32L0xx_HAL_Driver/Inc/stm32l0xx_ll_tim.h **** #define LL_TIM_IC_FILTER_FDIV2_N6              (TIM_CCMR1_IC1F_2 << 16U)                           
 484:Drivers/STM32L0xx_HAL_Driver/Inc/stm32l0xx_ll_tim.h **** #define LL_TIM_IC_FILTER_FDIV2_N8              ((TIM_CCMR1_IC1F_2 | TIM_CCMR1_IC1F_0) << 16U)      
 485:Drivers/STM32L0xx_HAL_Driver/Inc/stm32l0xx_ll_tim.h **** #define LL_TIM_IC_FILTER_FDIV4_N6              ((TIM_CCMR1_IC1F_2 | TIM_CCMR1_IC1F_1) << 16U)      
 486:Drivers/STM32L0xx_HAL_Driver/Inc/stm32l0xx_ll_tim.h **** #define LL_TIM_IC_FILTER_FDIV4_N8              ((TIM_CCMR1_IC1F_2 | TIM_CCMR1_IC1F_1 | TIM_CCMR1_IC
 487:Drivers/STM32L0xx_HAL_Driver/Inc/stm32l0xx_ll_tim.h **** #define LL_TIM_IC_FILTER_FDIV8_N6              (TIM_CCMR1_IC1F_3 << 16U)                           
 488:Drivers/STM32L0xx_HAL_Driver/Inc/stm32l0xx_ll_tim.h **** #define LL_TIM_IC_FILTER_FDIV8_N8              ((TIM_CCMR1_IC1F_3 | TIM_CCMR1_IC1F_0) << 16U)      
 489:Drivers/STM32L0xx_HAL_Driver/Inc/stm32l0xx_ll_tim.h **** #define LL_TIM_IC_FILTER_FDIV16_N5             ((TIM_CCMR1_IC1F_3 | TIM_CCMR1_IC1F_1) << 16U)      
 490:Drivers/STM32L0xx_HAL_Driver/Inc/stm32l0xx_ll_tim.h **** #define LL_TIM_IC_FILTER_FDIV16_N6             ((TIM_CCMR1_IC1F_3 | TIM_CCMR1_IC1F_1 | TIM_CCMR1_IC
 491:Drivers/STM32L0xx_HAL_Driver/Inc/stm32l0xx_ll_tim.h **** #define LL_TIM_IC_FILTER_FDIV16_N8             ((TIM_CCMR1_IC1F_3 | TIM_CCMR1_IC1F_2) << 16U)      
 492:Drivers/STM32L0xx_HAL_Driver/Inc/stm32l0xx_ll_tim.h **** #define LL_TIM_IC_FILTER_FDIV32_N5             ((TIM_CCMR1_IC1F_3 | TIM_CCMR1_IC1F_2 | TIM_CCMR1_IC
 493:Drivers/STM32L0xx_HAL_Driver/Inc/stm32l0xx_ll_tim.h **** #define LL_TIM_IC_FILTER_FDIV32_N6             ((TIM_CCMR1_IC1F_3 | TIM_CCMR1_IC1F_2 | TIM_CCMR1_IC
 494:Drivers/STM32L0xx_HAL_Driver/Inc/stm32l0xx_ll_tim.h **** #define LL_TIM_IC_FILTER_FDIV32_N8             (TIM_CCMR1_IC1F << 16U)                             
 495:Drivers/STM32L0xx_HAL_Driver/Inc/stm32l0xx_ll_tim.h **** /**
 496:Drivers/STM32L0xx_HAL_Driver/Inc/stm32l0xx_ll_tim.h ****   * @}
 497:Drivers/STM32L0xx_HAL_Driver/Inc/stm32l0xx_ll_tim.h ****   */
 498:Drivers/STM32L0xx_HAL_Driver/Inc/stm32l0xx_ll_tim.h **** 
 499:Drivers/STM32L0xx_HAL_Driver/Inc/stm32l0xx_ll_tim.h **** /** @defgroup TIM_LL_EC_IC_POLARITY Input Configuration Polarity
 500:Drivers/STM32L0xx_HAL_Driver/Inc/stm32l0xx_ll_tim.h ****   * @{
 501:Drivers/STM32L0xx_HAL_Driver/Inc/stm32l0xx_ll_tim.h ****   */
 502:Drivers/STM32L0xx_HAL_Driver/Inc/stm32l0xx_ll_tim.h **** #define LL_TIM_IC_POLARITY_RISING              0x00000000U                      /*!< The circuit is
 503:Drivers/STM32L0xx_HAL_Driver/Inc/stm32l0xx_ll_tim.h **** #define LL_TIM_IC_POLARITY_FALLING             TIM_CCER_CC1P                    /*!< The circuit is
 504:Drivers/STM32L0xx_HAL_Driver/Inc/stm32l0xx_ll_tim.h **** #define LL_TIM_IC_POLARITY_BOTHEDGE            (TIM_CCER_CC1P | TIM_CCER_CC1NP) /*!< The circuit is
 505:Drivers/STM32L0xx_HAL_Driver/Inc/stm32l0xx_ll_tim.h **** /**
 506:Drivers/STM32L0xx_HAL_Driver/Inc/stm32l0xx_ll_tim.h ****   * @}
 507:Drivers/STM32L0xx_HAL_Driver/Inc/stm32l0xx_ll_tim.h ****   */
 508:Drivers/STM32L0xx_HAL_Driver/Inc/stm32l0xx_ll_tim.h **** 
 509:Drivers/STM32L0xx_HAL_Driver/Inc/stm32l0xx_ll_tim.h **** /** @defgroup TIM_LL_EC_CLOCKSOURCE Clock Source
 510:Drivers/STM32L0xx_HAL_Driver/Inc/stm32l0xx_ll_tim.h ****   * @{
 511:Drivers/STM32L0xx_HAL_Driver/Inc/stm32l0xx_ll_tim.h ****   */
 512:Drivers/STM32L0xx_HAL_Driver/Inc/stm32l0xx_ll_tim.h **** #define LL_TIM_CLOCKSOURCE_INTERNAL            0x00000000U                                         
 513:Drivers/STM32L0xx_HAL_Driver/Inc/stm32l0xx_ll_tim.h **** #define LL_TIM_CLOCKSOURCE_EXT_MODE1           (TIM_SMCR_SMS_2 | TIM_SMCR_SMS_1 | TIM_SMCR_SMS_0)  
 514:Drivers/STM32L0xx_HAL_Driver/Inc/stm32l0xx_ll_tim.h **** #define LL_TIM_CLOCKSOURCE_EXT_MODE2           TIM_SMCR_ECE                                        
 515:Drivers/STM32L0xx_HAL_Driver/Inc/stm32l0xx_ll_tim.h **** /**
 516:Drivers/STM32L0xx_HAL_Driver/Inc/stm32l0xx_ll_tim.h ****   * @}
 517:Drivers/STM32L0xx_HAL_Driver/Inc/stm32l0xx_ll_tim.h ****   */
 518:Drivers/STM32L0xx_HAL_Driver/Inc/stm32l0xx_ll_tim.h **** 
 519:Drivers/STM32L0xx_HAL_Driver/Inc/stm32l0xx_ll_tim.h **** /** @defgroup TIM_LL_EC_ENCODERMODE Encoder Mode
 520:Drivers/STM32L0xx_HAL_Driver/Inc/stm32l0xx_ll_tim.h ****   * @{
 521:Drivers/STM32L0xx_HAL_Driver/Inc/stm32l0xx_ll_tim.h ****   */
 522:Drivers/STM32L0xx_HAL_Driver/Inc/stm32l0xx_ll_tim.h **** #define LL_TIM_ENCODERMODE_X2_TI1                     TIM_SMCR_SMS_0                               
 523:Drivers/STM32L0xx_HAL_Driver/Inc/stm32l0xx_ll_tim.h **** #define LL_TIM_ENCODERMODE_X2_TI2                     TIM_SMCR_SMS_1                               
 524:Drivers/STM32L0xx_HAL_Driver/Inc/stm32l0xx_ll_tim.h **** #define LL_TIM_ENCODERMODE_X4_TI12                   (TIM_SMCR_SMS_1 | TIM_SMCR_SMS_0)             
 525:Drivers/STM32L0xx_HAL_Driver/Inc/stm32l0xx_ll_tim.h **** /**
 526:Drivers/STM32L0xx_HAL_Driver/Inc/stm32l0xx_ll_tim.h ****   * @}
ARM GAS  /tmp/cckNMhWV.s 			page 21


 527:Drivers/STM32L0xx_HAL_Driver/Inc/stm32l0xx_ll_tim.h ****   */
 528:Drivers/STM32L0xx_HAL_Driver/Inc/stm32l0xx_ll_tim.h **** 
 529:Drivers/STM32L0xx_HAL_Driver/Inc/stm32l0xx_ll_tim.h **** /** @defgroup TIM_LL_EC_TRGO Trigger Output
 530:Drivers/STM32L0xx_HAL_Driver/Inc/stm32l0xx_ll_tim.h ****   * @{
 531:Drivers/STM32L0xx_HAL_Driver/Inc/stm32l0xx_ll_tim.h ****   */
 532:Drivers/STM32L0xx_HAL_Driver/Inc/stm32l0xx_ll_tim.h **** #define LL_TIM_TRGO_RESET                      0x00000000U                                     /*!<
 533:Drivers/STM32L0xx_HAL_Driver/Inc/stm32l0xx_ll_tim.h **** #define LL_TIM_TRGO_ENABLE                     TIM_CR2_MMS_0                                   /*!<
 534:Drivers/STM32L0xx_HAL_Driver/Inc/stm32l0xx_ll_tim.h **** #define LL_TIM_TRGO_UPDATE                     TIM_CR2_MMS_1                                   /*!<
 535:Drivers/STM32L0xx_HAL_Driver/Inc/stm32l0xx_ll_tim.h **** #define LL_TIM_TRGO_CC1IF                      (TIM_CR2_MMS_1 | TIM_CR2_MMS_0)                 /*!<
 536:Drivers/STM32L0xx_HAL_Driver/Inc/stm32l0xx_ll_tim.h **** #define LL_TIM_TRGO_OC1REF                     TIM_CR2_MMS_2                                   /*!<
 537:Drivers/STM32L0xx_HAL_Driver/Inc/stm32l0xx_ll_tim.h **** #define LL_TIM_TRGO_OC2REF                     (TIM_CR2_MMS_2 | TIM_CR2_MMS_0)                 /*!<
 538:Drivers/STM32L0xx_HAL_Driver/Inc/stm32l0xx_ll_tim.h **** #define LL_TIM_TRGO_OC3REF                     (TIM_CR2_MMS_2 | TIM_CR2_MMS_1)                 /*!<
 539:Drivers/STM32L0xx_HAL_Driver/Inc/stm32l0xx_ll_tim.h **** #define LL_TIM_TRGO_OC4REF                     (TIM_CR2_MMS_2 | TIM_CR2_MMS_1 | TIM_CR2_MMS_0) /*!<
 540:Drivers/STM32L0xx_HAL_Driver/Inc/stm32l0xx_ll_tim.h **** /**
 541:Drivers/STM32L0xx_HAL_Driver/Inc/stm32l0xx_ll_tim.h ****   * @}
 542:Drivers/STM32L0xx_HAL_Driver/Inc/stm32l0xx_ll_tim.h ****   */
 543:Drivers/STM32L0xx_HAL_Driver/Inc/stm32l0xx_ll_tim.h **** 
 544:Drivers/STM32L0xx_HAL_Driver/Inc/stm32l0xx_ll_tim.h **** 
 545:Drivers/STM32L0xx_HAL_Driver/Inc/stm32l0xx_ll_tim.h **** /** @defgroup TIM_LL_EC_SLAVEMODE Slave Mode
 546:Drivers/STM32L0xx_HAL_Driver/Inc/stm32l0xx_ll_tim.h ****   * @{
 547:Drivers/STM32L0xx_HAL_Driver/Inc/stm32l0xx_ll_tim.h ****   */
 548:Drivers/STM32L0xx_HAL_Driver/Inc/stm32l0xx_ll_tim.h **** #define LL_TIM_SLAVEMODE_DISABLED              0x00000000U                         /*!< Slave mode 
 549:Drivers/STM32L0xx_HAL_Driver/Inc/stm32l0xx_ll_tim.h **** #define LL_TIM_SLAVEMODE_RESET                 TIM_SMCR_SMS_2                      /*!< Reset Mode 
 550:Drivers/STM32L0xx_HAL_Driver/Inc/stm32l0xx_ll_tim.h **** #define LL_TIM_SLAVEMODE_GATED                 (TIM_SMCR_SMS_2 | TIM_SMCR_SMS_0)   /*!< Gated Mode 
 551:Drivers/STM32L0xx_HAL_Driver/Inc/stm32l0xx_ll_tim.h **** #define LL_TIM_SLAVEMODE_TRIGGER               (TIM_SMCR_SMS_2 | TIM_SMCR_SMS_1)   /*!< Trigger Mod
 552:Drivers/STM32L0xx_HAL_Driver/Inc/stm32l0xx_ll_tim.h **** /**
 553:Drivers/STM32L0xx_HAL_Driver/Inc/stm32l0xx_ll_tim.h ****   * @}
 554:Drivers/STM32L0xx_HAL_Driver/Inc/stm32l0xx_ll_tim.h ****   */
 555:Drivers/STM32L0xx_HAL_Driver/Inc/stm32l0xx_ll_tim.h **** 
 556:Drivers/STM32L0xx_HAL_Driver/Inc/stm32l0xx_ll_tim.h **** /** @defgroup TIM_LL_EC_TS Trigger Selection
 557:Drivers/STM32L0xx_HAL_Driver/Inc/stm32l0xx_ll_tim.h ****   * @{
 558:Drivers/STM32L0xx_HAL_Driver/Inc/stm32l0xx_ll_tim.h ****   */
 559:Drivers/STM32L0xx_HAL_Driver/Inc/stm32l0xx_ll_tim.h **** #define LL_TIM_TS_ITR0                         0x00000000U                                         
 560:Drivers/STM32L0xx_HAL_Driver/Inc/stm32l0xx_ll_tim.h **** #define LL_TIM_TS_ITR1                         TIM_SMCR_TS_0                                       
 561:Drivers/STM32L0xx_HAL_Driver/Inc/stm32l0xx_ll_tim.h **** #define LL_TIM_TS_ITR2                         TIM_SMCR_TS_1                                       
 562:Drivers/STM32L0xx_HAL_Driver/Inc/stm32l0xx_ll_tim.h **** #define LL_TIM_TS_ITR3                         (TIM_SMCR_TS_0 | TIM_SMCR_TS_1)                     
 563:Drivers/STM32L0xx_HAL_Driver/Inc/stm32l0xx_ll_tim.h **** #define LL_TIM_TS_TI1F_ED                      TIM_SMCR_TS_2                                       
 564:Drivers/STM32L0xx_HAL_Driver/Inc/stm32l0xx_ll_tim.h **** #define LL_TIM_TS_TI1FP1                       (TIM_SMCR_TS_2 | TIM_SMCR_TS_0)                     
 565:Drivers/STM32L0xx_HAL_Driver/Inc/stm32l0xx_ll_tim.h **** #define LL_TIM_TS_TI2FP2                       (TIM_SMCR_TS_2 | TIM_SMCR_TS_1)                     
 566:Drivers/STM32L0xx_HAL_Driver/Inc/stm32l0xx_ll_tim.h **** #define LL_TIM_TS_ETRF                         (TIM_SMCR_TS_2 | TIM_SMCR_TS_1 | TIM_SMCR_TS_0)     
 567:Drivers/STM32L0xx_HAL_Driver/Inc/stm32l0xx_ll_tim.h **** /**
 568:Drivers/STM32L0xx_HAL_Driver/Inc/stm32l0xx_ll_tim.h ****   * @}
 569:Drivers/STM32L0xx_HAL_Driver/Inc/stm32l0xx_ll_tim.h ****   */
 570:Drivers/STM32L0xx_HAL_Driver/Inc/stm32l0xx_ll_tim.h **** 
 571:Drivers/STM32L0xx_HAL_Driver/Inc/stm32l0xx_ll_tim.h **** /** @defgroup TIM_LL_EC_ETR_POLARITY External Trigger Polarity
 572:Drivers/STM32L0xx_HAL_Driver/Inc/stm32l0xx_ll_tim.h ****   * @{
 573:Drivers/STM32L0xx_HAL_Driver/Inc/stm32l0xx_ll_tim.h ****   */
 574:Drivers/STM32L0xx_HAL_Driver/Inc/stm32l0xx_ll_tim.h **** #define LL_TIM_ETR_POLARITY_NONINVERTED        0x00000000U             /*!< ETR is non-inverted, ac
 575:Drivers/STM32L0xx_HAL_Driver/Inc/stm32l0xx_ll_tim.h **** #define LL_TIM_ETR_POLARITY_INVERTED           TIM_SMCR_ETP            /*!< ETR is inverted, active
 576:Drivers/STM32L0xx_HAL_Driver/Inc/stm32l0xx_ll_tim.h **** /**
 577:Drivers/STM32L0xx_HAL_Driver/Inc/stm32l0xx_ll_tim.h ****   * @}
 578:Drivers/STM32L0xx_HAL_Driver/Inc/stm32l0xx_ll_tim.h ****   */
 579:Drivers/STM32L0xx_HAL_Driver/Inc/stm32l0xx_ll_tim.h **** 
 580:Drivers/STM32L0xx_HAL_Driver/Inc/stm32l0xx_ll_tim.h **** /** @defgroup TIM_LL_EC_ETR_PRESCALER External Trigger Prescaler
 581:Drivers/STM32L0xx_HAL_Driver/Inc/stm32l0xx_ll_tim.h ****   * @{
 582:Drivers/STM32L0xx_HAL_Driver/Inc/stm32l0xx_ll_tim.h ****   */
 583:Drivers/STM32L0xx_HAL_Driver/Inc/stm32l0xx_ll_tim.h **** #define LL_TIM_ETR_PRESCALER_DIV1              0x00000000U             /*!< ETR prescaler OFF */
ARM GAS  /tmp/cckNMhWV.s 			page 22


 584:Drivers/STM32L0xx_HAL_Driver/Inc/stm32l0xx_ll_tim.h **** #define LL_TIM_ETR_PRESCALER_DIV2              TIM_SMCR_ETPS_0         /*!< ETR frequency is divide
 585:Drivers/STM32L0xx_HAL_Driver/Inc/stm32l0xx_ll_tim.h **** #define LL_TIM_ETR_PRESCALER_DIV4              TIM_SMCR_ETPS_1         /*!< ETR frequency is divide
 586:Drivers/STM32L0xx_HAL_Driver/Inc/stm32l0xx_ll_tim.h **** #define LL_TIM_ETR_PRESCALER_DIV8              TIM_SMCR_ETPS           /*!< ETR frequency is divide
 587:Drivers/STM32L0xx_HAL_Driver/Inc/stm32l0xx_ll_tim.h **** /**
 588:Drivers/STM32L0xx_HAL_Driver/Inc/stm32l0xx_ll_tim.h ****   * @}
 589:Drivers/STM32L0xx_HAL_Driver/Inc/stm32l0xx_ll_tim.h ****   */
 590:Drivers/STM32L0xx_HAL_Driver/Inc/stm32l0xx_ll_tim.h **** 
 591:Drivers/STM32L0xx_HAL_Driver/Inc/stm32l0xx_ll_tim.h **** /** @defgroup TIM_LL_EC_ETR_FILTER External Trigger Filter
 592:Drivers/STM32L0xx_HAL_Driver/Inc/stm32l0xx_ll_tim.h ****   * @{
 593:Drivers/STM32L0xx_HAL_Driver/Inc/stm32l0xx_ll_tim.h ****   */
 594:Drivers/STM32L0xx_HAL_Driver/Inc/stm32l0xx_ll_tim.h **** #define LL_TIM_ETR_FILTER_FDIV1                0x00000000U                                         
 595:Drivers/STM32L0xx_HAL_Driver/Inc/stm32l0xx_ll_tim.h **** #define LL_TIM_ETR_FILTER_FDIV1_N2             TIM_SMCR_ETF_0                                      
 596:Drivers/STM32L0xx_HAL_Driver/Inc/stm32l0xx_ll_tim.h **** #define LL_TIM_ETR_FILTER_FDIV1_N4             TIM_SMCR_ETF_1                                      
 597:Drivers/STM32L0xx_HAL_Driver/Inc/stm32l0xx_ll_tim.h **** #define LL_TIM_ETR_FILTER_FDIV1_N8             (TIM_SMCR_ETF_1 | TIM_SMCR_ETF_0)                   
 598:Drivers/STM32L0xx_HAL_Driver/Inc/stm32l0xx_ll_tim.h **** #define LL_TIM_ETR_FILTER_FDIV2_N6             TIM_SMCR_ETF_2                                      
 599:Drivers/STM32L0xx_HAL_Driver/Inc/stm32l0xx_ll_tim.h **** #define LL_TIM_ETR_FILTER_FDIV2_N8             (TIM_SMCR_ETF_2 | TIM_SMCR_ETF_0)                   
 600:Drivers/STM32L0xx_HAL_Driver/Inc/stm32l0xx_ll_tim.h **** #define LL_TIM_ETR_FILTER_FDIV4_N6             (TIM_SMCR_ETF_2 | TIM_SMCR_ETF_1)                   
 601:Drivers/STM32L0xx_HAL_Driver/Inc/stm32l0xx_ll_tim.h **** #define LL_TIM_ETR_FILTER_FDIV4_N8             (TIM_SMCR_ETF_2 | TIM_SMCR_ETF_1 | TIM_SMCR_ETF_0)  
 602:Drivers/STM32L0xx_HAL_Driver/Inc/stm32l0xx_ll_tim.h **** #define LL_TIM_ETR_FILTER_FDIV8_N6             TIM_SMCR_ETF_3                                      
 603:Drivers/STM32L0xx_HAL_Driver/Inc/stm32l0xx_ll_tim.h **** #define LL_TIM_ETR_FILTER_FDIV8_N8             (TIM_SMCR_ETF_3 | TIM_SMCR_ETF_0)                   
 604:Drivers/STM32L0xx_HAL_Driver/Inc/stm32l0xx_ll_tim.h **** #define LL_TIM_ETR_FILTER_FDIV16_N5            (TIM_SMCR_ETF_3 | TIM_SMCR_ETF_1)                   
 605:Drivers/STM32L0xx_HAL_Driver/Inc/stm32l0xx_ll_tim.h **** #define LL_TIM_ETR_FILTER_FDIV16_N6            (TIM_SMCR_ETF_3 | TIM_SMCR_ETF_1 | TIM_SMCR_ETF_0)  
 606:Drivers/STM32L0xx_HAL_Driver/Inc/stm32l0xx_ll_tim.h **** #define LL_TIM_ETR_FILTER_FDIV16_N8            (TIM_SMCR_ETF_3 | TIM_SMCR_ETF_2)                   
 607:Drivers/STM32L0xx_HAL_Driver/Inc/stm32l0xx_ll_tim.h **** #define LL_TIM_ETR_FILTER_FDIV32_N5            (TIM_SMCR_ETF_3 | TIM_SMCR_ETF_2 | TIM_SMCR_ETF_0)  
 608:Drivers/STM32L0xx_HAL_Driver/Inc/stm32l0xx_ll_tim.h **** #define LL_TIM_ETR_FILTER_FDIV32_N6            (TIM_SMCR_ETF_3 | TIM_SMCR_ETF_2 | TIM_SMCR_ETF_1)  
 609:Drivers/STM32L0xx_HAL_Driver/Inc/stm32l0xx_ll_tim.h **** #define LL_TIM_ETR_FILTER_FDIV32_N8            TIM_SMCR_ETF                                        
 610:Drivers/STM32L0xx_HAL_Driver/Inc/stm32l0xx_ll_tim.h **** /**
 611:Drivers/STM32L0xx_HAL_Driver/Inc/stm32l0xx_ll_tim.h ****   * @}
 612:Drivers/STM32L0xx_HAL_Driver/Inc/stm32l0xx_ll_tim.h ****   */
 613:Drivers/STM32L0xx_HAL_Driver/Inc/stm32l0xx_ll_tim.h **** 
 614:Drivers/STM32L0xx_HAL_Driver/Inc/stm32l0xx_ll_tim.h **** 
 615:Drivers/STM32L0xx_HAL_Driver/Inc/stm32l0xx_ll_tim.h **** 
 616:Drivers/STM32L0xx_HAL_Driver/Inc/stm32l0xx_ll_tim.h **** 
 617:Drivers/STM32L0xx_HAL_Driver/Inc/stm32l0xx_ll_tim.h **** 
 618:Drivers/STM32L0xx_HAL_Driver/Inc/stm32l0xx_ll_tim.h **** 
 619:Drivers/STM32L0xx_HAL_Driver/Inc/stm32l0xx_ll_tim.h **** 
 620:Drivers/STM32L0xx_HAL_Driver/Inc/stm32l0xx_ll_tim.h **** /** @defgroup TIM_LL_EC_DMABURST_BASEADDR DMA Burst Base Address
 621:Drivers/STM32L0xx_HAL_Driver/Inc/stm32l0xx_ll_tim.h ****   * @{
 622:Drivers/STM32L0xx_HAL_Driver/Inc/stm32l0xx_ll_tim.h ****   */
 623:Drivers/STM32L0xx_HAL_Driver/Inc/stm32l0xx_ll_tim.h **** #define LL_TIM_DMABURST_BASEADDR_CR1           0x00000000U                                         
 624:Drivers/STM32L0xx_HAL_Driver/Inc/stm32l0xx_ll_tim.h **** #define LL_TIM_DMABURST_BASEADDR_CR2           TIM_DCR_DBA_0                                       
 625:Drivers/STM32L0xx_HAL_Driver/Inc/stm32l0xx_ll_tim.h **** #define LL_TIM_DMABURST_BASEADDR_SMCR          TIM_DCR_DBA_1                                       
 626:Drivers/STM32L0xx_HAL_Driver/Inc/stm32l0xx_ll_tim.h **** #define LL_TIM_DMABURST_BASEADDR_DIER          (TIM_DCR_DBA_1 |  TIM_DCR_DBA_0)                    
 627:Drivers/STM32L0xx_HAL_Driver/Inc/stm32l0xx_ll_tim.h **** #define LL_TIM_DMABURST_BASEADDR_SR            TIM_DCR_DBA_2                                       
 628:Drivers/STM32L0xx_HAL_Driver/Inc/stm32l0xx_ll_tim.h **** #define LL_TIM_DMABURST_BASEADDR_EGR           (TIM_DCR_DBA_2 | TIM_DCR_DBA_0)                     
 629:Drivers/STM32L0xx_HAL_Driver/Inc/stm32l0xx_ll_tim.h **** #define LL_TIM_DMABURST_BASEADDR_CCMR1         (TIM_DCR_DBA_2 | TIM_DCR_DBA_1)                     
 630:Drivers/STM32L0xx_HAL_Driver/Inc/stm32l0xx_ll_tim.h **** #define LL_TIM_DMABURST_BASEADDR_CCMR2         (TIM_DCR_DBA_2 | TIM_DCR_DBA_1 | TIM_DCR_DBA_0)     
 631:Drivers/STM32L0xx_HAL_Driver/Inc/stm32l0xx_ll_tim.h **** #define LL_TIM_DMABURST_BASEADDR_CCER          TIM_DCR_DBA_3                                       
 632:Drivers/STM32L0xx_HAL_Driver/Inc/stm32l0xx_ll_tim.h **** #define LL_TIM_DMABURST_BASEADDR_CNT           (TIM_DCR_DBA_3 | TIM_DCR_DBA_0)                     
 633:Drivers/STM32L0xx_HAL_Driver/Inc/stm32l0xx_ll_tim.h **** #define LL_TIM_DMABURST_BASEADDR_PSC           (TIM_DCR_DBA_3 | TIM_DCR_DBA_1)                     
 634:Drivers/STM32L0xx_HAL_Driver/Inc/stm32l0xx_ll_tim.h **** #define LL_TIM_DMABURST_BASEADDR_ARR           (TIM_DCR_DBA_3 | TIM_DCR_DBA_1 | TIM_DCR_DBA_0)     
 635:Drivers/STM32L0xx_HAL_Driver/Inc/stm32l0xx_ll_tim.h **** #define LL_TIM_DMABURST_BASEADDR_CCR1          (TIM_DCR_DBA_3 | TIM_DCR_DBA_2 | TIM_DCR_DBA_0)     
 636:Drivers/STM32L0xx_HAL_Driver/Inc/stm32l0xx_ll_tim.h **** #define LL_TIM_DMABURST_BASEADDR_CCR2          (TIM_DCR_DBA_3 | TIM_DCR_DBA_2 | TIM_DCR_DBA_1)     
 637:Drivers/STM32L0xx_HAL_Driver/Inc/stm32l0xx_ll_tim.h **** #define LL_TIM_DMABURST_BASEADDR_CCR3          (TIM_DCR_DBA_3 | TIM_DCR_DBA_2 | TIM_DCR_DBA_1 | TIM
 638:Drivers/STM32L0xx_HAL_Driver/Inc/stm32l0xx_ll_tim.h **** #define LL_TIM_DMABURST_BASEADDR_CCR4          TIM_DCR_DBA_4                                       
 639:Drivers/STM32L0xx_HAL_Driver/Inc/stm32l0xx_ll_tim.h **** #define LL_TIM_DMABURST_BASEADDR_OR            (TIM_DCR_DBA_4 | TIM_DCR_DBA_2)                     
 640:Drivers/STM32L0xx_HAL_Driver/Inc/stm32l0xx_ll_tim.h **** /**
ARM GAS  /tmp/cckNMhWV.s 			page 23


 641:Drivers/STM32L0xx_HAL_Driver/Inc/stm32l0xx_ll_tim.h ****   * @}
 642:Drivers/STM32L0xx_HAL_Driver/Inc/stm32l0xx_ll_tim.h ****   */
 643:Drivers/STM32L0xx_HAL_Driver/Inc/stm32l0xx_ll_tim.h **** 
 644:Drivers/STM32L0xx_HAL_Driver/Inc/stm32l0xx_ll_tim.h **** /** @defgroup TIM_LL_EC_DMABURST_LENGTH DMA Burst Length
 645:Drivers/STM32L0xx_HAL_Driver/Inc/stm32l0xx_ll_tim.h ****   * @{
 646:Drivers/STM32L0xx_HAL_Driver/Inc/stm32l0xx_ll_tim.h ****   */
 647:Drivers/STM32L0xx_HAL_Driver/Inc/stm32l0xx_ll_tim.h **** #define LL_TIM_DMABURST_LENGTH_1TRANSFER       0x00000000U                                         
 648:Drivers/STM32L0xx_HAL_Driver/Inc/stm32l0xx_ll_tim.h **** #define LL_TIM_DMABURST_LENGTH_2TRANSFERS      TIM_DCR_DBL_0                                       
 649:Drivers/STM32L0xx_HAL_Driver/Inc/stm32l0xx_ll_tim.h **** #define LL_TIM_DMABURST_LENGTH_3TRANSFERS      TIM_DCR_DBL_1                                       
 650:Drivers/STM32L0xx_HAL_Driver/Inc/stm32l0xx_ll_tim.h **** #define LL_TIM_DMABURST_LENGTH_4TRANSFERS      (TIM_DCR_DBL_1 |  TIM_DCR_DBL_0)                    
 651:Drivers/STM32L0xx_HAL_Driver/Inc/stm32l0xx_ll_tim.h **** #define LL_TIM_DMABURST_LENGTH_5TRANSFERS      TIM_DCR_DBL_2                                       
 652:Drivers/STM32L0xx_HAL_Driver/Inc/stm32l0xx_ll_tim.h **** #define LL_TIM_DMABURST_LENGTH_6TRANSFERS      (TIM_DCR_DBL_2 | TIM_DCR_DBL_0)                     
 653:Drivers/STM32L0xx_HAL_Driver/Inc/stm32l0xx_ll_tim.h **** #define LL_TIM_DMABURST_LENGTH_7TRANSFERS      (TIM_DCR_DBL_2 | TIM_DCR_DBL_1)                     
 654:Drivers/STM32L0xx_HAL_Driver/Inc/stm32l0xx_ll_tim.h **** #define LL_TIM_DMABURST_LENGTH_8TRANSFERS      (TIM_DCR_DBL_2 | TIM_DCR_DBL_1 | TIM_DCR_DBL_0)     
 655:Drivers/STM32L0xx_HAL_Driver/Inc/stm32l0xx_ll_tim.h **** #define LL_TIM_DMABURST_LENGTH_9TRANSFERS      TIM_DCR_DBL_3                                       
 656:Drivers/STM32L0xx_HAL_Driver/Inc/stm32l0xx_ll_tim.h **** #define LL_TIM_DMABURST_LENGTH_10TRANSFERS     (TIM_DCR_DBL_3 | TIM_DCR_DBL_0)                     
 657:Drivers/STM32L0xx_HAL_Driver/Inc/stm32l0xx_ll_tim.h **** #define LL_TIM_DMABURST_LENGTH_11TRANSFERS     (TIM_DCR_DBL_3 | TIM_DCR_DBL_1)                     
 658:Drivers/STM32L0xx_HAL_Driver/Inc/stm32l0xx_ll_tim.h **** #define LL_TIM_DMABURST_LENGTH_12TRANSFERS     (TIM_DCR_DBL_3 | TIM_DCR_DBL_1 | TIM_DCR_DBL_0)     
 659:Drivers/STM32L0xx_HAL_Driver/Inc/stm32l0xx_ll_tim.h **** #define LL_TIM_DMABURST_LENGTH_13TRANSFERS     (TIM_DCR_DBL_3 | TIM_DCR_DBL_2)                     
 660:Drivers/STM32L0xx_HAL_Driver/Inc/stm32l0xx_ll_tim.h **** #define LL_TIM_DMABURST_LENGTH_14TRANSFERS     (TIM_DCR_DBL_3 | TIM_DCR_DBL_2 | TIM_DCR_DBL_0)     
 661:Drivers/STM32L0xx_HAL_Driver/Inc/stm32l0xx_ll_tim.h **** #define LL_TIM_DMABURST_LENGTH_15TRANSFERS     (TIM_DCR_DBL_3 | TIM_DCR_DBL_2 | TIM_DCR_DBL_1)     
 662:Drivers/STM32L0xx_HAL_Driver/Inc/stm32l0xx_ll_tim.h **** #define LL_TIM_DMABURST_LENGTH_16TRANSFERS     (TIM_DCR_DBL_3 | TIM_DCR_DBL_2 | TIM_DCR_DBL_1 | TIM
 663:Drivers/STM32L0xx_HAL_Driver/Inc/stm32l0xx_ll_tim.h **** #define LL_TIM_DMABURST_LENGTH_17TRANSFERS     TIM_DCR_DBL_4                                       
 664:Drivers/STM32L0xx_HAL_Driver/Inc/stm32l0xx_ll_tim.h **** #define LL_TIM_DMABURST_LENGTH_18TRANSFERS     (TIM_DCR_DBL_4 |  TIM_DCR_DBL_0)                    
 665:Drivers/STM32L0xx_HAL_Driver/Inc/stm32l0xx_ll_tim.h **** /**
 666:Drivers/STM32L0xx_HAL_Driver/Inc/stm32l0xx_ll_tim.h ****   * @}
 667:Drivers/STM32L0xx_HAL_Driver/Inc/stm32l0xx_ll_tim.h ****   */
 668:Drivers/STM32L0xx_HAL_Driver/Inc/stm32l0xx_ll_tim.h **** 
 669:Drivers/STM32L0xx_HAL_Driver/Inc/stm32l0xx_ll_tim.h **** 
 670:Drivers/STM32L0xx_HAL_Driver/Inc/stm32l0xx_ll_tim.h **** /** @defgroup TIM_LL_EC_TIM2_ETR_RMP  TIM2 External Trigger Remap
 671:Drivers/STM32L0xx_HAL_Driver/Inc/stm32l0xx_ll_tim.h ****   * @{
 672:Drivers/STM32L0xx_HAL_Driver/Inc/stm32l0xx_ll_tim.h ****   */
 673:Drivers/STM32L0xx_HAL_Driver/Inc/stm32l0xx_ll_tim.h **** #define LL_TIM_TIM2_ETR_RMP_GPIO     TIM2_OR_RMP_MASK                                             /
 674:Drivers/STM32L0xx_HAL_Driver/Inc/stm32l0xx_ll_tim.h **** #if defined(TIM_TIM2_REMAP_HSI_SUPPORT)
 675:Drivers/STM32L0xx_HAL_Driver/Inc/stm32l0xx_ll_tim.h **** #define LL_TIM_TIM2_ETR_RMP_HSI      (TIM2_OR_ETR_RMP_1 | TIM2_OR_ETR_RMP_0 | TIM2_OR_RMP_MASK)   /
 676:Drivers/STM32L0xx_HAL_Driver/Inc/stm32l0xx_ll_tim.h **** #endif /* defined(TIM_TIM2_REMAP_HSI_SUPPORT) */
 677:Drivers/STM32L0xx_HAL_Driver/Inc/stm32l0xx_ll_tim.h **** #if defined(TIM_TIM2_REMAP_HSI48_SUPPORT)
 678:Drivers/STM32L0xx_HAL_Driver/Inc/stm32l0xx_ll_tim.h **** #define LL_TIM_TIM2_ETR_RMP_HSI48    (TIM2_OR_ETR_RMP_2 | TIM2_OR_RMP_MASK)                       /
 679:Drivers/STM32L0xx_HAL_Driver/Inc/stm32l0xx_ll_tim.h **** #endif /* defined(TIM_TIM2_REMAP_HSI48_SUPPORT) */
 680:Drivers/STM32L0xx_HAL_Driver/Inc/stm32l0xx_ll_tim.h **** #define LL_TIM_TIM2_ETR_RMP_LSE      (TIM2_OR_ETR_RMP_2 | TIM2_OR_ETR_RMP_0 | TIM2_OR_RMP_MASK)   /
 681:Drivers/STM32L0xx_HAL_Driver/Inc/stm32l0xx_ll_tim.h **** #define LL_TIM_TIM2_ETR_RMP_COMP2    (TIM2_OR_ETR_RMP_2 | TIM2_OR_ETR_RMP_1 | TIM2_OR_RMP_MASK)   /
 682:Drivers/STM32L0xx_HAL_Driver/Inc/stm32l0xx_ll_tim.h **** #define LL_TIM_TIM2_ETR_RMP_COMP1    (TIM2_OR_ETR_RMP | TIM2_OR_RMP_MASK)                         /
 683:Drivers/STM32L0xx_HAL_Driver/Inc/stm32l0xx_ll_tim.h **** 
 684:Drivers/STM32L0xx_HAL_Driver/Inc/stm32l0xx_ll_tim.h **** /**
 685:Drivers/STM32L0xx_HAL_Driver/Inc/stm32l0xx_ll_tim.h ****   * @}
 686:Drivers/STM32L0xx_HAL_Driver/Inc/stm32l0xx_ll_tim.h ****   */
 687:Drivers/STM32L0xx_HAL_Driver/Inc/stm32l0xx_ll_tim.h **** 
 688:Drivers/STM32L0xx_HAL_Driver/Inc/stm32l0xx_ll_tim.h **** /** @defgroup TIM_LL_EC_TIM2_TI4_RMP  TIM2 Timer Input Ch4 Remap
 689:Drivers/STM32L0xx_HAL_Driver/Inc/stm32l0xx_ll_tim.h ****   * @{
 690:Drivers/STM32L0xx_HAL_Driver/Inc/stm32l0xx_ll_tim.h ****   */
 691:Drivers/STM32L0xx_HAL_Driver/Inc/stm32l0xx_ll_tim.h **** #define LL_TIM_TIM2_TI4_RMP_GPIO      TIM2_OR_RMP_MASK                           /*!< TIM2 input ca
 692:Drivers/STM32L0xx_HAL_Driver/Inc/stm32l0xx_ll_tim.h **** #define LL_TIM_TIM2_TI4_RMP_COMP2     (TIM2_OR_TI4_RMP_0 | TIM2_OR_RMP_MASK)     /*!< TIM2 input ca
 693:Drivers/STM32L0xx_HAL_Driver/Inc/stm32l0xx_ll_tim.h **** #define LL_TIM_TIM2_TI4_RMP_COMP1     (TIM2_OR_TI4_RMP_1 | TIM2_OR_RMP_MASK)     /*!< TIM2 input ca
 694:Drivers/STM32L0xx_HAL_Driver/Inc/stm32l0xx_ll_tim.h **** /**
 695:Drivers/STM32L0xx_HAL_Driver/Inc/stm32l0xx_ll_tim.h ****   * @}
 696:Drivers/STM32L0xx_HAL_Driver/Inc/stm32l0xx_ll_tim.h ****   */
 697:Drivers/STM32L0xx_HAL_Driver/Inc/stm32l0xx_ll_tim.h **** 
ARM GAS  /tmp/cckNMhWV.s 			page 24


 698:Drivers/STM32L0xx_HAL_Driver/Inc/stm32l0xx_ll_tim.h **** #if defined(TIM3_OR_ETR_RMP)
 699:Drivers/STM32L0xx_HAL_Driver/Inc/stm32l0xx_ll_tim.h **** /** @defgroup TIM_LL_EC_TIM3_ETR_RMP  TIM3 External Trigger Remap
 700:Drivers/STM32L0xx_HAL_Driver/Inc/stm32l0xx_ll_tim.h ****   * @{
 701:Drivers/STM32L0xx_HAL_Driver/Inc/stm32l0xx_ll_tim.h ****   */
 702:Drivers/STM32L0xx_HAL_Driver/Inc/stm32l0xx_ll_tim.h **** #define LL_TIM_TIM3_ETR_RMP_GPIO         TIM3_OR_RMP_MASK                               /*!< TIM3_E
 703:Drivers/STM32L0xx_HAL_Driver/Inc/stm32l0xx_ll_tim.h **** #define LL_TIM_TIM3_ETR_RMP_HSI48DIV6    (TIM3_OR_ETR_RMP_1 | TIM3_OR_RMP_MASK)         /*!< TIM3_E
 704:Drivers/STM32L0xx_HAL_Driver/Inc/stm32l0xx_ll_tim.h **** /**
 705:Drivers/STM32L0xx_HAL_Driver/Inc/stm32l0xx_ll_tim.h ****   * @}
 706:Drivers/STM32L0xx_HAL_Driver/Inc/stm32l0xx_ll_tim.h ****   */
 707:Drivers/STM32L0xx_HAL_Driver/Inc/stm32l0xx_ll_tim.h **** #endif /* defined(TIM3_OR_ETR_RMP) */
 708:Drivers/STM32L0xx_HAL_Driver/Inc/stm32l0xx_ll_tim.h **** 
 709:Drivers/STM32L0xx_HAL_Driver/Inc/stm32l0xx_ll_tim.h **** #if defined(TIM3_OR_TI1_RMP) || defined(TIM3_OR_TI2_RMP) || defined(TIM3_OR_TI4_RMP)
 710:Drivers/STM32L0xx_HAL_Driver/Inc/stm32l0xx_ll_tim.h **** /** @defgroup TIM_LL_EC_TIM3_TI_RMP  TIM3 External Inputs Remap
 711:Drivers/STM32L0xx_HAL_Driver/Inc/stm32l0xx_ll_tim.h ****   * @{
 712:Drivers/STM32L0xx_HAL_Driver/Inc/stm32l0xx_ll_tim.h ****   */
 713:Drivers/STM32L0xx_HAL_Driver/Inc/stm32l0xx_ll_tim.h **** #define LL_TIM_TIM3_TI_RMP_TI1_USB_SOF      TIM3_OR_RMP_MASK                           /*!< TIM3_TI
 714:Drivers/STM32L0xx_HAL_Driver/Inc/stm32l0xx_ll_tim.h **** #define LL_TIM_TIM3_TI_RMP_TI1_GPIO         (TIM3_OR_TI1_RMP | TIM3_OR_RMP_MASK)       /*!< TIM3_TI
 715:Drivers/STM32L0xx_HAL_Driver/Inc/stm32l0xx_ll_tim.h **** 
 716:Drivers/STM32L0xx_HAL_Driver/Inc/stm32l0xx_ll_tim.h **** #define LL_TIM_TIM3_TI_RMP_TI2_GPIO_DEF     TIM3_OR_RMP_MASK                           /*!< Mapping
 717:Drivers/STM32L0xx_HAL_Driver/Inc/stm32l0xx_ll_tim.h **** #define LL_TIM_TIM3_TI_RMP_TI2_GPIOB5_AF4   (TIM3_OR_TI2_RMP | TIM3_OR_RMP_MASK)       /*!< Mapping
 718:Drivers/STM32L0xx_HAL_Driver/Inc/stm32l0xx_ll_tim.h **** 
 719:Drivers/STM32L0xx_HAL_Driver/Inc/stm32l0xx_ll_tim.h **** #define LL_TIM_TIM3_TI_RMP_TI4_GPIO_DEF     (0x00000000U | TIM3_OR_RMP_MASK)           /*!< Mapping
 720:Drivers/STM32L0xx_HAL_Driver/Inc/stm32l0xx_ll_tim.h **** #define LL_TIM_TIM3_TI_RMP_TI4_GPIOC9_AF2   (TIM3_OR_TI4_RMP | TIM3_OR_RMP_MASK)       /*!< Mapping
 721:Drivers/STM32L0xx_HAL_Driver/Inc/stm32l0xx_ll_tim.h **** /**
 722:Drivers/STM32L0xx_HAL_Driver/Inc/stm32l0xx_ll_tim.h ****   * @}
 723:Drivers/STM32L0xx_HAL_Driver/Inc/stm32l0xx_ll_tim.h ****   */
 724:Drivers/STM32L0xx_HAL_Driver/Inc/stm32l0xx_ll_tim.h **** #endif /*defined(TIM3_OR_TI1_RMP) or defined(TIM3_OR_TI2_RMP) or defined(TIM3_OR_TI4_RMP)*/
 725:Drivers/STM32L0xx_HAL_Driver/Inc/stm32l0xx_ll_tim.h **** 
 726:Drivers/STM32L0xx_HAL_Driver/Inc/stm32l0xx_ll_tim.h **** /** @defgroup TIM_LL_EC_TIM21_ETR_RMP  TIM21 External Trigger Remap
 727:Drivers/STM32L0xx_HAL_Driver/Inc/stm32l0xx_ll_tim.h ****   * @{
 728:Drivers/STM32L0xx_HAL_Driver/Inc/stm32l0xx_ll_tim.h ****   */
 729:Drivers/STM32L0xx_HAL_Driver/Inc/stm32l0xx_ll_tim.h **** #define LL_TIM_TIM21_ETR_RMP_GPIO  TIM21_OR_RMP_MASK                           /*!< TIM21_ETR is co
 730:Drivers/STM32L0xx_HAL_Driver/Inc/stm32l0xx_ll_tim.h **** #define LL_TIM_TIM21_ETR_RMP_COMP2 (TIM21_OR_ETR_RMP_0 | TIM21_OR_RMP_MASK)    /*!< TIM21_ETR is co
 731:Drivers/STM32L0xx_HAL_Driver/Inc/stm32l0xx_ll_tim.h **** #define LL_TIM_TIM21_ETR_RMP_COMP1 (TIM21_OR_ETR_RMP_1 | TIM21_OR_RMP_MASK)    /*!< TIM21_ETR is co
 732:Drivers/STM32L0xx_HAL_Driver/Inc/stm32l0xx_ll_tim.h **** #define LL_TIM_TIM21_ETR_RMP_LSE   (TIM21_OR_ETR_RMP | TIM21_OR_RMP_MASK)      /*!< TIM21_ETR is co
 733:Drivers/STM32L0xx_HAL_Driver/Inc/stm32l0xx_ll_tim.h **** /**
 734:Drivers/STM32L0xx_HAL_Driver/Inc/stm32l0xx_ll_tim.h ****   * @}
 735:Drivers/STM32L0xx_HAL_Driver/Inc/stm32l0xx_ll_tim.h ****   */
 736:Drivers/STM32L0xx_HAL_Driver/Inc/stm32l0xx_ll_tim.h **** 
 737:Drivers/STM32L0xx_HAL_Driver/Inc/stm32l0xx_ll_tim.h **** /** @defgroup TIM_LL_EC_TIM21_TI1_RMP  TIM21 External Input Ch1 Remap
 738:Drivers/STM32L0xx_HAL_Driver/Inc/stm32l0xx_ll_tim.h ****   * @{
 739:Drivers/STM32L0xx_HAL_Driver/Inc/stm32l0xx_ll_tim.h ****   */
 740:Drivers/STM32L0xx_HAL_Driver/Inc/stm32l0xx_ll_tim.h **** #define LL_TIM_TIM21_TI1_RMP_GPIO    TIM21_OR_RMP_MASK                                             
 741:Drivers/STM32L0xx_HAL_Driver/Inc/stm32l0xx_ll_tim.h **** #define LL_TIM_TIM21_TI1_RMP_RTC_WK  (TIM21_OR_TI1_RMP_0 | TIM21_OR_RMP_MASK)                      
 742:Drivers/STM32L0xx_HAL_Driver/Inc/stm32l0xx_ll_tim.h **** #define LL_TIM_TIM21_TI1_RMP_HSE_RTC (TIM21_OR_TI1_RMP_1 | TIM21_OR_RMP_MASK)                      
 743:Drivers/STM32L0xx_HAL_Driver/Inc/stm32l0xx_ll_tim.h **** #define LL_TIM_TIM21_TI1_RMP_MSI     (TIM21_OR_TI1_RMP_1 | TIM21_OR_TI1_RMP_0 | TIM21_OR_RMP_MASK) 
 744:Drivers/STM32L0xx_HAL_Driver/Inc/stm32l0xx_ll_tim.h **** #define LL_TIM_TIM21_TI1_RMP_LSE     (TIM21_OR_TI1_RMP_2 | TIM21_OR_RMP_MASK)                      
 745:Drivers/STM32L0xx_HAL_Driver/Inc/stm32l0xx_ll_tim.h **** #define LL_TIM_TIM21_TI1_RMP_LSI     (TIM21_OR_TI1_RMP_2 | TIM21_OR_TI1_RMP_0 | TIM21_OR_RMP_MASK) 
 746:Drivers/STM32L0xx_HAL_Driver/Inc/stm32l0xx_ll_tim.h **** #define LL_TIM_TIM21_TI1_RMP_COMP1   (TIM21_OR_TI1_RMP_2 | TIM21_OR_TI1_RMP_1 | TIM21_OR_RMP_MASK) 
 747:Drivers/STM32L0xx_HAL_Driver/Inc/stm32l0xx_ll_tim.h **** #define LL_TIM_TIM21_TI1_RMP_MCO     (TIM21_OR_TI1_RMP | TIM21_OR_RMP_MASK)                        
 748:Drivers/STM32L0xx_HAL_Driver/Inc/stm32l0xx_ll_tim.h **** /**
 749:Drivers/STM32L0xx_HAL_Driver/Inc/stm32l0xx_ll_tim.h ****   * @}
 750:Drivers/STM32L0xx_HAL_Driver/Inc/stm32l0xx_ll_tim.h ****   */
 751:Drivers/STM32L0xx_HAL_Driver/Inc/stm32l0xx_ll_tim.h **** 
 752:Drivers/STM32L0xx_HAL_Driver/Inc/stm32l0xx_ll_tim.h **** /** @defgroup TIM_LL_EC_TIM21_TI2_RMP  TIM21 External Input Ch2 Remap
 753:Drivers/STM32L0xx_HAL_Driver/Inc/stm32l0xx_ll_tim.h ****   * @{
 754:Drivers/STM32L0xx_HAL_Driver/Inc/stm32l0xx_ll_tim.h ****   */
ARM GAS  /tmp/cckNMhWV.s 			page 25


 755:Drivers/STM32L0xx_HAL_Driver/Inc/stm32l0xx_ll_tim.h **** #define LL_TIM_TIM21_TI2_RMP_GPIO    TIM21_OR_RMP_MASK                            /*!< TIM21_TI2 is
 756:Drivers/STM32L0xx_HAL_Driver/Inc/stm32l0xx_ll_tim.h **** #define LL_TIM_TIM21_TI2_RMP_COMP2   (TIM21_OR_TI2_RMP | TIM21_OR_RMP_MASK)       /*!< TIM21_TI2 is
 757:Drivers/STM32L0xx_HAL_Driver/Inc/stm32l0xx_ll_tim.h **** /**
 758:Drivers/STM32L0xx_HAL_Driver/Inc/stm32l0xx_ll_tim.h ****   * @}
 759:Drivers/STM32L0xx_HAL_Driver/Inc/stm32l0xx_ll_tim.h ****   */
 760:Drivers/STM32L0xx_HAL_Driver/Inc/stm32l0xx_ll_tim.h **** 
 761:Drivers/STM32L0xx_HAL_Driver/Inc/stm32l0xx_ll_tim.h **** #if defined(TIM22_OR_ETR_RMP)
 762:Drivers/STM32L0xx_HAL_Driver/Inc/stm32l0xx_ll_tim.h **** 
 763:Drivers/STM32L0xx_HAL_Driver/Inc/stm32l0xx_ll_tim.h **** /** @defgroup TIM_LL_EC_TIM22_ETR_RMP  TIM22 External Trigger Remap
 764:Drivers/STM32L0xx_HAL_Driver/Inc/stm32l0xx_ll_tim.h ****   * @{
 765:Drivers/STM32L0xx_HAL_Driver/Inc/stm32l0xx_ll_tim.h ****   */
 766:Drivers/STM32L0xx_HAL_Driver/Inc/stm32l0xx_ll_tim.h **** #define LL_TIM_TIM22_ETR_RMP_GPIO  TIM22_OR_RMP_MASK                           /*!< TIM22_ETR is co
 767:Drivers/STM32L0xx_HAL_Driver/Inc/stm32l0xx_ll_tim.h **** #define LL_TIM_TIM22_ETR_RMP_COMP2 (TIM22_OR_ETR_RMP_0 | TIM22_OR_RMP_MASK)    /*!< TIM22_ETR is co
 768:Drivers/STM32L0xx_HAL_Driver/Inc/stm32l0xx_ll_tim.h **** #define LL_TIM_TIM22_ETR_RMP_COMP1 (TIM22_OR_ETR_RMP_1 | TIM22_OR_RMP_MASK)    /*!< TIM22_ETR is co
 769:Drivers/STM32L0xx_HAL_Driver/Inc/stm32l0xx_ll_tim.h **** #define LL_TIM_TIM22_ETR_RMP_LSE   (TIM22_OR_ETR_RMP | TIM22_OR_RMP_MASK)      /*!< TIM22_ETR is co
 770:Drivers/STM32L0xx_HAL_Driver/Inc/stm32l0xx_ll_tim.h **** /**
 771:Drivers/STM32L0xx_HAL_Driver/Inc/stm32l0xx_ll_tim.h ****   * @}
 772:Drivers/STM32L0xx_HAL_Driver/Inc/stm32l0xx_ll_tim.h ****   */
 773:Drivers/STM32L0xx_HAL_Driver/Inc/stm32l0xx_ll_tim.h **** #endif /* defined(TIM22_OR_ETR_RMP) */
 774:Drivers/STM32L0xx_HAL_Driver/Inc/stm32l0xx_ll_tim.h **** 
 775:Drivers/STM32L0xx_HAL_Driver/Inc/stm32l0xx_ll_tim.h **** #if defined(TIM22_OR_TI1_RMP)
 776:Drivers/STM32L0xx_HAL_Driver/Inc/stm32l0xx_ll_tim.h **** /** @defgroup TIM_LL_EC_TIM22_TI1_RMP  TIM22 External Input Ch1 Remap
 777:Drivers/STM32L0xx_HAL_Driver/Inc/stm32l0xx_ll_tim.h ****   * @{
 778:Drivers/STM32L0xx_HAL_Driver/Inc/stm32l0xx_ll_tim.h ****   */
 779:Drivers/STM32L0xx_HAL_Driver/Inc/stm32l0xx_ll_tim.h **** #define LL_TIM_TIM22_TI1_RMP_GPIO1  TIM22_OR_RMP_MASK                            /*!< TIM22_TI1 is 
 780:Drivers/STM32L0xx_HAL_Driver/Inc/stm32l0xx_ll_tim.h **** #define LL_TIM_TIM22_TI1_RMP_COMP2  (TIM22_OR_TI1_RMP_0 | TIM22_OR_RMP_MASK)     /*!< TIM22_TI1 is 
 781:Drivers/STM32L0xx_HAL_Driver/Inc/stm32l0xx_ll_tim.h **** #define LL_TIM_TIM22_TI1_RMP_COMP1  (TIM22_OR_TI1_RMP_1 | TIM22_OR_RMP_MASK)     /*!< TIM22_TI1 is 
 782:Drivers/STM32L0xx_HAL_Driver/Inc/stm32l0xx_ll_tim.h **** #define LL_TIM_TIM22_TI1_RMP_GPIO2  (TIM22_OR_TI1_RMP | TIM22_OR_RMP_MASK)       /*!< TIM22_TI1 is 
 783:Drivers/STM32L0xx_HAL_Driver/Inc/stm32l0xx_ll_tim.h **** /**
 784:Drivers/STM32L0xx_HAL_Driver/Inc/stm32l0xx_ll_tim.h ****   * @}
 785:Drivers/STM32L0xx_HAL_Driver/Inc/stm32l0xx_ll_tim.h ****   */
 786:Drivers/STM32L0xx_HAL_Driver/Inc/stm32l0xx_ll_tim.h **** #endif /* defined(TIM22_OR_TI1_RMP) */
 787:Drivers/STM32L0xx_HAL_Driver/Inc/stm32l0xx_ll_tim.h **** 
 788:Drivers/STM32L0xx_HAL_Driver/Inc/stm32l0xx_ll_tim.h **** 
 789:Drivers/STM32L0xx_HAL_Driver/Inc/stm32l0xx_ll_tim.h **** /**
 790:Drivers/STM32L0xx_HAL_Driver/Inc/stm32l0xx_ll_tim.h ****   * @}
 791:Drivers/STM32L0xx_HAL_Driver/Inc/stm32l0xx_ll_tim.h ****   */
 792:Drivers/STM32L0xx_HAL_Driver/Inc/stm32l0xx_ll_tim.h **** 
 793:Drivers/STM32L0xx_HAL_Driver/Inc/stm32l0xx_ll_tim.h **** /* Exported macro ------------------------------------------------------------*/
 794:Drivers/STM32L0xx_HAL_Driver/Inc/stm32l0xx_ll_tim.h **** /** @defgroup TIM_LL_Exported_Macros TIM Exported Macros
 795:Drivers/STM32L0xx_HAL_Driver/Inc/stm32l0xx_ll_tim.h ****   * @{
 796:Drivers/STM32L0xx_HAL_Driver/Inc/stm32l0xx_ll_tim.h ****   */
 797:Drivers/STM32L0xx_HAL_Driver/Inc/stm32l0xx_ll_tim.h **** 
 798:Drivers/STM32L0xx_HAL_Driver/Inc/stm32l0xx_ll_tim.h **** /** @defgroup TIM_LL_EM_WRITE_READ Common Write and read registers Macros
 799:Drivers/STM32L0xx_HAL_Driver/Inc/stm32l0xx_ll_tim.h ****   * @{
 800:Drivers/STM32L0xx_HAL_Driver/Inc/stm32l0xx_ll_tim.h ****   */
 801:Drivers/STM32L0xx_HAL_Driver/Inc/stm32l0xx_ll_tim.h **** /**
 802:Drivers/STM32L0xx_HAL_Driver/Inc/stm32l0xx_ll_tim.h ****   * @brief  Write a value in TIM register.
 803:Drivers/STM32L0xx_HAL_Driver/Inc/stm32l0xx_ll_tim.h ****   * @param  __INSTANCE__ TIM Instance
 804:Drivers/STM32L0xx_HAL_Driver/Inc/stm32l0xx_ll_tim.h ****   * @param  __REG__ Register to be written
 805:Drivers/STM32L0xx_HAL_Driver/Inc/stm32l0xx_ll_tim.h ****   * @param  __VALUE__ Value to be written in the register
 806:Drivers/STM32L0xx_HAL_Driver/Inc/stm32l0xx_ll_tim.h ****   * @retval None
 807:Drivers/STM32L0xx_HAL_Driver/Inc/stm32l0xx_ll_tim.h ****   */
 808:Drivers/STM32L0xx_HAL_Driver/Inc/stm32l0xx_ll_tim.h **** #define LL_TIM_WriteReg(__INSTANCE__, __REG__, __VALUE__) WRITE_REG((__INSTANCE__)->__REG__, (__VAL
 809:Drivers/STM32L0xx_HAL_Driver/Inc/stm32l0xx_ll_tim.h **** 
 810:Drivers/STM32L0xx_HAL_Driver/Inc/stm32l0xx_ll_tim.h **** /**
 811:Drivers/STM32L0xx_HAL_Driver/Inc/stm32l0xx_ll_tim.h ****   * @brief  Read a value in TIM register.
ARM GAS  /tmp/cckNMhWV.s 			page 26


 812:Drivers/STM32L0xx_HAL_Driver/Inc/stm32l0xx_ll_tim.h ****   * @param  __INSTANCE__ TIM Instance
 813:Drivers/STM32L0xx_HAL_Driver/Inc/stm32l0xx_ll_tim.h ****   * @param  __REG__ Register to be read
 814:Drivers/STM32L0xx_HAL_Driver/Inc/stm32l0xx_ll_tim.h ****   * @retval Register value
 815:Drivers/STM32L0xx_HAL_Driver/Inc/stm32l0xx_ll_tim.h ****   */
 816:Drivers/STM32L0xx_HAL_Driver/Inc/stm32l0xx_ll_tim.h **** #define LL_TIM_ReadReg(__INSTANCE__, __REG__) READ_REG((__INSTANCE__)->__REG__)
 817:Drivers/STM32L0xx_HAL_Driver/Inc/stm32l0xx_ll_tim.h **** /**
 818:Drivers/STM32L0xx_HAL_Driver/Inc/stm32l0xx_ll_tim.h ****   * @}
 819:Drivers/STM32L0xx_HAL_Driver/Inc/stm32l0xx_ll_tim.h ****   */
 820:Drivers/STM32L0xx_HAL_Driver/Inc/stm32l0xx_ll_tim.h **** 
 821:Drivers/STM32L0xx_HAL_Driver/Inc/stm32l0xx_ll_tim.h **** /** @defgroup TIM_LL_EM_Exported_Macros Exported_Macros
 822:Drivers/STM32L0xx_HAL_Driver/Inc/stm32l0xx_ll_tim.h ****   * @{
 823:Drivers/STM32L0xx_HAL_Driver/Inc/stm32l0xx_ll_tim.h ****   */
 824:Drivers/STM32L0xx_HAL_Driver/Inc/stm32l0xx_ll_tim.h **** 
 825:Drivers/STM32L0xx_HAL_Driver/Inc/stm32l0xx_ll_tim.h **** /**
 826:Drivers/STM32L0xx_HAL_Driver/Inc/stm32l0xx_ll_tim.h ****   * @brief  HELPER macro calculating the prescaler value to achieve the required counter clock freq
 827:Drivers/STM32L0xx_HAL_Driver/Inc/stm32l0xx_ll_tim.h ****   * @note ex: @ref __LL_TIM_CALC_PSC (80000000, 1000000);
 828:Drivers/STM32L0xx_HAL_Driver/Inc/stm32l0xx_ll_tim.h ****   * @param  __TIMCLK__ timer input clock frequency (in Hz)
 829:Drivers/STM32L0xx_HAL_Driver/Inc/stm32l0xx_ll_tim.h ****   * @param  __CNTCLK__ counter clock frequency (in Hz)
 830:Drivers/STM32L0xx_HAL_Driver/Inc/stm32l0xx_ll_tim.h ****   * @retval Prescaler value  (between Min_Data=0 and Max_Data=65535)
 831:Drivers/STM32L0xx_HAL_Driver/Inc/stm32l0xx_ll_tim.h ****   */
 832:Drivers/STM32L0xx_HAL_Driver/Inc/stm32l0xx_ll_tim.h **** #define __LL_TIM_CALC_PSC(__TIMCLK__, __CNTCLK__)   \
 833:Drivers/STM32L0xx_HAL_Driver/Inc/stm32l0xx_ll_tim.h ****   (((__TIMCLK__) >= (__CNTCLK__)) ? (uint32_t)(((__TIMCLK__)/(__CNTCLK__)) - 1U) : 0U)
 834:Drivers/STM32L0xx_HAL_Driver/Inc/stm32l0xx_ll_tim.h **** 
 835:Drivers/STM32L0xx_HAL_Driver/Inc/stm32l0xx_ll_tim.h **** /**
 836:Drivers/STM32L0xx_HAL_Driver/Inc/stm32l0xx_ll_tim.h ****   * @brief  HELPER macro calculating the auto-reload value to achieve the required output signal fr
 837:Drivers/STM32L0xx_HAL_Driver/Inc/stm32l0xx_ll_tim.h ****   * @note ex: @ref __LL_TIM_CALC_ARR (1000000, @ref LL_TIM_GetPrescaler (), 10000);
 838:Drivers/STM32L0xx_HAL_Driver/Inc/stm32l0xx_ll_tim.h ****   * @param  __TIMCLK__ timer input clock frequency (in Hz)
 839:Drivers/STM32L0xx_HAL_Driver/Inc/stm32l0xx_ll_tim.h ****   * @param  __PSC__ prescaler
 840:Drivers/STM32L0xx_HAL_Driver/Inc/stm32l0xx_ll_tim.h ****   * @param  __FREQ__ output signal frequency (in Hz)
 841:Drivers/STM32L0xx_HAL_Driver/Inc/stm32l0xx_ll_tim.h ****   * @retval  Auto-reload value  (between Min_Data=0 and Max_Data=65535)
 842:Drivers/STM32L0xx_HAL_Driver/Inc/stm32l0xx_ll_tim.h ****   */
 843:Drivers/STM32L0xx_HAL_Driver/Inc/stm32l0xx_ll_tim.h **** #define __LL_TIM_CALC_ARR(__TIMCLK__, __PSC__, __FREQ__) \
 844:Drivers/STM32L0xx_HAL_Driver/Inc/stm32l0xx_ll_tim.h ****   ((((__TIMCLK__)/((__PSC__) + 1U)) >= (__FREQ__)) ? (((__TIMCLK__)/((__FREQ__) * ((__PSC__) + 1U))
 845:Drivers/STM32L0xx_HAL_Driver/Inc/stm32l0xx_ll_tim.h **** 
 846:Drivers/STM32L0xx_HAL_Driver/Inc/stm32l0xx_ll_tim.h **** /**
 847:Drivers/STM32L0xx_HAL_Driver/Inc/stm32l0xx_ll_tim.h ****   * @brief  HELPER macro calculating the compare value required to achieve the required timer outpu
 848:Drivers/STM32L0xx_HAL_Driver/Inc/stm32l0xx_ll_tim.h ****   *         active/inactive delay.
 849:Drivers/STM32L0xx_HAL_Driver/Inc/stm32l0xx_ll_tim.h ****   * @note ex: @ref __LL_TIM_CALC_DELAY (1000000, @ref LL_TIM_GetPrescaler (), 10);
 850:Drivers/STM32L0xx_HAL_Driver/Inc/stm32l0xx_ll_tim.h ****   * @param  __TIMCLK__ timer input clock frequency (in Hz)
 851:Drivers/STM32L0xx_HAL_Driver/Inc/stm32l0xx_ll_tim.h ****   * @param  __PSC__ prescaler
 852:Drivers/STM32L0xx_HAL_Driver/Inc/stm32l0xx_ll_tim.h ****   * @param  __DELAY__ timer output compare active/inactive delay (in us)
 853:Drivers/STM32L0xx_HAL_Driver/Inc/stm32l0xx_ll_tim.h ****   * @retval Compare value  (between Min_Data=0 and Max_Data=65535)
 854:Drivers/STM32L0xx_HAL_Driver/Inc/stm32l0xx_ll_tim.h ****   */
 855:Drivers/STM32L0xx_HAL_Driver/Inc/stm32l0xx_ll_tim.h **** #define __LL_TIM_CALC_DELAY(__TIMCLK__, __PSC__, __DELAY__)  \
 856:Drivers/STM32L0xx_HAL_Driver/Inc/stm32l0xx_ll_tim.h ****   ((uint32_t)(((uint64_t)(__TIMCLK__) * (uint64_t)(__DELAY__)) \
 857:Drivers/STM32L0xx_HAL_Driver/Inc/stm32l0xx_ll_tim.h ****               / ((uint64_t)1000000U * (uint64_t)((__PSC__) + 1U))))
 858:Drivers/STM32L0xx_HAL_Driver/Inc/stm32l0xx_ll_tim.h **** 
 859:Drivers/STM32L0xx_HAL_Driver/Inc/stm32l0xx_ll_tim.h **** /**
 860:Drivers/STM32L0xx_HAL_Driver/Inc/stm32l0xx_ll_tim.h ****   * @brief  HELPER macro calculating the auto-reload value to achieve the required pulse duration
 861:Drivers/STM32L0xx_HAL_Driver/Inc/stm32l0xx_ll_tim.h ****   *         (when the timer operates in one pulse mode).
 862:Drivers/STM32L0xx_HAL_Driver/Inc/stm32l0xx_ll_tim.h ****   * @note ex: @ref __LL_TIM_CALC_PULSE (1000000, @ref LL_TIM_GetPrescaler (), 10, 20);
 863:Drivers/STM32L0xx_HAL_Driver/Inc/stm32l0xx_ll_tim.h ****   * @param  __TIMCLK__ timer input clock frequency (in Hz)
 864:Drivers/STM32L0xx_HAL_Driver/Inc/stm32l0xx_ll_tim.h ****   * @param  __PSC__ prescaler
 865:Drivers/STM32L0xx_HAL_Driver/Inc/stm32l0xx_ll_tim.h ****   * @param  __DELAY__ timer output compare active/inactive delay (in us)
 866:Drivers/STM32L0xx_HAL_Driver/Inc/stm32l0xx_ll_tim.h ****   * @param  __PULSE__ pulse duration (in us)
 867:Drivers/STM32L0xx_HAL_Driver/Inc/stm32l0xx_ll_tim.h ****   * @retval Auto-reload value  (between Min_Data=0 and Max_Data=65535)
 868:Drivers/STM32L0xx_HAL_Driver/Inc/stm32l0xx_ll_tim.h ****   */
ARM GAS  /tmp/cckNMhWV.s 			page 27


 869:Drivers/STM32L0xx_HAL_Driver/Inc/stm32l0xx_ll_tim.h **** #define __LL_TIM_CALC_PULSE(__TIMCLK__, __PSC__, __DELAY__, __PULSE__)  \
 870:Drivers/STM32L0xx_HAL_Driver/Inc/stm32l0xx_ll_tim.h ****   ((uint32_t)(__LL_TIM_CALC_DELAY((__TIMCLK__), (__PSC__), (__PULSE__)) \
 871:Drivers/STM32L0xx_HAL_Driver/Inc/stm32l0xx_ll_tim.h ****               + __LL_TIM_CALC_DELAY((__TIMCLK__), (__PSC__), (__DELAY__))))
 872:Drivers/STM32L0xx_HAL_Driver/Inc/stm32l0xx_ll_tim.h **** 
 873:Drivers/STM32L0xx_HAL_Driver/Inc/stm32l0xx_ll_tim.h **** /**
 874:Drivers/STM32L0xx_HAL_Driver/Inc/stm32l0xx_ll_tim.h ****   * @brief  HELPER macro retrieving the ratio of the input capture prescaler
 875:Drivers/STM32L0xx_HAL_Driver/Inc/stm32l0xx_ll_tim.h ****   * @note ex: @ref __LL_TIM_GET_ICPSC_RATIO (@ref LL_TIM_IC_GetPrescaler ());
 876:Drivers/STM32L0xx_HAL_Driver/Inc/stm32l0xx_ll_tim.h ****   * @param  __ICPSC__ This parameter can be one of the following values:
 877:Drivers/STM32L0xx_HAL_Driver/Inc/stm32l0xx_ll_tim.h ****   *         @arg @ref LL_TIM_ICPSC_DIV1
 878:Drivers/STM32L0xx_HAL_Driver/Inc/stm32l0xx_ll_tim.h ****   *         @arg @ref LL_TIM_ICPSC_DIV2
 879:Drivers/STM32L0xx_HAL_Driver/Inc/stm32l0xx_ll_tim.h ****   *         @arg @ref LL_TIM_ICPSC_DIV4
 880:Drivers/STM32L0xx_HAL_Driver/Inc/stm32l0xx_ll_tim.h ****   *         @arg @ref LL_TIM_ICPSC_DIV8
 881:Drivers/STM32L0xx_HAL_Driver/Inc/stm32l0xx_ll_tim.h ****   * @retval Input capture prescaler ratio (1, 2, 4 or 8)
 882:Drivers/STM32L0xx_HAL_Driver/Inc/stm32l0xx_ll_tim.h ****   */
 883:Drivers/STM32L0xx_HAL_Driver/Inc/stm32l0xx_ll_tim.h **** #define __LL_TIM_GET_ICPSC_RATIO(__ICPSC__)  \
 884:Drivers/STM32L0xx_HAL_Driver/Inc/stm32l0xx_ll_tim.h ****   ((uint32_t)(0x01U << (((__ICPSC__) >> 16U) >> TIM_CCMR1_IC1PSC_Pos)))
 885:Drivers/STM32L0xx_HAL_Driver/Inc/stm32l0xx_ll_tim.h **** 
 886:Drivers/STM32L0xx_HAL_Driver/Inc/stm32l0xx_ll_tim.h **** 
 887:Drivers/STM32L0xx_HAL_Driver/Inc/stm32l0xx_ll_tim.h **** /**
 888:Drivers/STM32L0xx_HAL_Driver/Inc/stm32l0xx_ll_tim.h ****   * @}
 889:Drivers/STM32L0xx_HAL_Driver/Inc/stm32l0xx_ll_tim.h ****   */
 890:Drivers/STM32L0xx_HAL_Driver/Inc/stm32l0xx_ll_tim.h **** 
 891:Drivers/STM32L0xx_HAL_Driver/Inc/stm32l0xx_ll_tim.h **** 
 892:Drivers/STM32L0xx_HAL_Driver/Inc/stm32l0xx_ll_tim.h **** /**
 893:Drivers/STM32L0xx_HAL_Driver/Inc/stm32l0xx_ll_tim.h ****   * @}
 894:Drivers/STM32L0xx_HAL_Driver/Inc/stm32l0xx_ll_tim.h ****   */
 895:Drivers/STM32L0xx_HAL_Driver/Inc/stm32l0xx_ll_tim.h **** 
 896:Drivers/STM32L0xx_HAL_Driver/Inc/stm32l0xx_ll_tim.h **** /* Exported functions --------------------------------------------------------*/
 897:Drivers/STM32L0xx_HAL_Driver/Inc/stm32l0xx_ll_tim.h **** /** @defgroup TIM_LL_Exported_Functions TIM Exported Functions
 898:Drivers/STM32L0xx_HAL_Driver/Inc/stm32l0xx_ll_tim.h ****   * @{
 899:Drivers/STM32L0xx_HAL_Driver/Inc/stm32l0xx_ll_tim.h ****   */
 900:Drivers/STM32L0xx_HAL_Driver/Inc/stm32l0xx_ll_tim.h **** 
 901:Drivers/STM32L0xx_HAL_Driver/Inc/stm32l0xx_ll_tim.h **** /** @defgroup TIM_LL_EF_Time_Base Time Base configuration
 902:Drivers/STM32L0xx_HAL_Driver/Inc/stm32l0xx_ll_tim.h ****   * @{
 903:Drivers/STM32L0xx_HAL_Driver/Inc/stm32l0xx_ll_tim.h ****   */
 904:Drivers/STM32L0xx_HAL_Driver/Inc/stm32l0xx_ll_tim.h **** /**
 905:Drivers/STM32L0xx_HAL_Driver/Inc/stm32l0xx_ll_tim.h ****   * @brief  Enable timer counter.
 906:Drivers/STM32L0xx_HAL_Driver/Inc/stm32l0xx_ll_tim.h ****   * @rmtoll CR1          CEN           LL_TIM_EnableCounter
 907:Drivers/STM32L0xx_HAL_Driver/Inc/stm32l0xx_ll_tim.h ****   * @param  TIMx Timer instance
 908:Drivers/STM32L0xx_HAL_Driver/Inc/stm32l0xx_ll_tim.h ****   * @retval None
 909:Drivers/STM32L0xx_HAL_Driver/Inc/stm32l0xx_ll_tim.h ****   */
 910:Drivers/STM32L0xx_HAL_Driver/Inc/stm32l0xx_ll_tim.h **** __STATIC_INLINE void LL_TIM_EnableCounter(TIM_TypeDef *TIMx)
 911:Drivers/STM32L0xx_HAL_Driver/Inc/stm32l0xx_ll_tim.h **** {
 912:Drivers/STM32L0xx_HAL_Driver/Inc/stm32l0xx_ll_tim.h ****   SET_BIT(TIMx->CR1, TIM_CR1_CEN);
 913:Drivers/STM32L0xx_HAL_Driver/Inc/stm32l0xx_ll_tim.h **** }
 914:Drivers/STM32L0xx_HAL_Driver/Inc/stm32l0xx_ll_tim.h **** 
 915:Drivers/STM32L0xx_HAL_Driver/Inc/stm32l0xx_ll_tim.h **** /**
 916:Drivers/STM32L0xx_HAL_Driver/Inc/stm32l0xx_ll_tim.h ****   * @brief  Disable timer counter.
 917:Drivers/STM32L0xx_HAL_Driver/Inc/stm32l0xx_ll_tim.h ****   * @rmtoll CR1          CEN           LL_TIM_DisableCounter
 918:Drivers/STM32L0xx_HAL_Driver/Inc/stm32l0xx_ll_tim.h ****   * @param  TIMx Timer instance
 919:Drivers/STM32L0xx_HAL_Driver/Inc/stm32l0xx_ll_tim.h ****   * @retval None
 920:Drivers/STM32L0xx_HAL_Driver/Inc/stm32l0xx_ll_tim.h ****   */
 921:Drivers/STM32L0xx_HAL_Driver/Inc/stm32l0xx_ll_tim.h **** __STATIC_INLINE void LL_TIM_DisableCounter(TIM_TypeDef *TIMx)
 922:Drivers/STM32L0xx_HAL_Driver/Inc/stm32l0xx_ll_tim.h **** {
 923:Drivers/STM32L0xx_HAL_Driver/Inc/stm32l0xx_ll_tim.h ****   CLEAR_BIT(TIMx->CR1, TIM_CR1_CEN);
 924:Drivers/STM32L0xx_HAL_Driver/Inc/stm32l0xx_ll_tim.h **** }
 925:Drivers/STM32L0xx_HAL_Driver/Inc/stm32l0xx_ll_tim.h **** 
ARM GAS  /tmp/cckNMhWV.s 			page 28


 926:Drivers/STM32L0xx_HAL_Driver/Inc/stm32l0xx_ll_tim.h **** /**
 927:Drivers/STM32L0xx_HAL_Driver/Inc/stm32l0xx_ll_tim.h ****   * @brief  Indicates whether the timer counter is enabled.
 928:Drivers/STM32L0xx_HAL_Driver/Inc/stm32l0xx_ll_tim.h ****   * @rmtoll CR1          CEN           LL_TIM_IsEnabledCounter
 929:Drivers/STM32L0xx_HAL_Driver/Inc/stm32l0xx_ll_tim.h ****   * @param  TIMx Timer instance
 930:Drivers/STM32L0xx_HAL_Driver/Inc/stm32l0xx_ll_tim.h ****   * @retval State of bit (1 or 0).
 931:Drivers/STM32L0xx_HAL_Driver/Inc/stm32l0xx_ll_tim.h ****   */
 932:Drivers/STM32L0xx_HAL_Driver/Inc/stm32l0xx_ll_tim.h **** __STATIC_INLINE uint32_t LL_TIM_IsEnabledCounter(TIM_TypeDef *TIMx)
 933:Drivers/STM32L0xx_HAL_Driver/Inc/stm32l0xx_ll_tim.h **** {
 934:Drivers/STM32L0xx_HAL_Driver/Inc/stm32l0xx_ll_tim.h ****   return ((READ_BIT(TIMx->CR1, TIM_CR1_CEN) == (TIM_CR1_CEN)) ? 1UL : 0UL);
 935:Drivers/STM32L0xx_HAL_Driver/Inc/stm32l0xx_ll_tim.h **** }
 936:Drivers/STM32L0xx_HAL_Driver/Inc/stm32l0xx_ll_tim.h **** 
 937:Drivers/STM32L0xx_HAL_Driver/Inc/stm32l0xx_ll_tim.h **** /**
 938:Drivers/STM32L0xx_HAL_Driver/Inc/stm32l0xx_ll_tim.h ****   * @brief  Enable update event generation.
 939:Drivers/STM32L0xx_HAL_Driver/Inc/stm32l0xx_ll_tim.h ****   * @rmtoll CR1          UDIS          LL_TIM_EnableUpdateEvent
 940:Drivers/STM32L0xx_HAL_Driver/Inc/stm32l0xx_ll_tim.h ****   * @param  TIMx Timer instance
 941:Drivers/STM32L0xx_HAL_Driver/Inc/stm32l0xx_ll_tim.h ****   * @retval None
 942:Drivers/STM32L0xx_HAL_Driver/Inc/stm32l0xx_ll_tim.h ****   */
 943:Drivers/STM32L0xx_HAL_Driver/Inc/stm32l0xx_ll_tim.h **** __STATIC_INLINE void LL_TIM_EnableUpdateEvent(TIM_TypeDef *TIMx)
 944:Drivers/STM32L0xx_HAL_Driver/Inc/stm32l0xx_ll_tim.h **** {
 945:Drivers/STM32L0xx_HAL_Driver/Inc/stm32l0xx_ll_tim.h ****   CLEAR_BIT(TIMx->CR1, TIM_CR1_UDIS);
 946:Drivers/STM32L0xx_HAL_Driver/Inc/stm32l0xx_ll_tim.h **** }
 947:Drivers/STM32L0xx_HAL_Driver/Inc/stm32l0xx_ll_tim.h **** 
 948:Drivers/STM32L0xx_HAL_Driver/Inc/stm32l0xx_ll_tim.h **** /**
 949:Drivers/STM32L0xx_HAL_Driver/Inc/stm32l0xx_ll_tim.h ****   * @brief  Disable update event generation.
 950:Drivers/STM32L0xx_HAL_Driver/Inc/stm32l0xx_ll_tim.h ****   * @rmtoll CR1          UDIS          LL_TIM_DisableUpdateEvent
 951:Drivers/STM32L0xx_HAL_Driver/Inc/stm32l0xx_ll_tim.h ****   * @param  TIMx Timer instance
 952:Drivers/STM32L0xx_HAL_Driver/Inc/stm32l0xx_ll_tim.h ****   * @retval None
 953:Drivers/STM32L0xx_HAL_Driver/Inc/stm32l0xx_ll_tim.h ****   */
 954:Drivers/STM32L0xx_HAL_Driver/Inc/stm32l0xx_ll_tim.h **** __STATIC_INLINE void LL_TIM_DisableUpdateEvent(TIM_TypeDef *TIMx)
 955:Drivers/STM32L0xx_HAL_Driver/Inc/stm32l0xx_ll_tim.h **** {
 956:Drivers/STM32L0xx_HAL_Driver/Inc/stm32l0xx_ll_tim.h ****   SET_BIT(TIMx->CR1, TIM_CR1_UDIS);
 957:Drivers/STM32L0xx_HAL_Driver/Inc/stm32l0xx_ll_tim.h **** }
 958:Drivers/STM32L0xx_HAL_Driver/Inc/stm32l0xx_ll_tim.h **** 
 959:Drivers/STM32L0xx_HAL_Driver/Inc/stm32l0xx_ll_tim.h **** /**
 960:Drivers/STM32L0xx_HAL_Driver/Inc/stm32l0xx_ll_tim.h ****   * @brief  Indicates whether update event generation is enabled.
 961:Drivers/STM32L0xx_HAL_Driver/Inc/stm32l0xx_ll_tim.h ****   * @rmtoll CR1          UDIS          LL_TIM_IsEnabledUpdateEvent
 962:Drivers/STM32L0xx_HAL_Driver/Inc/stm32l0xx_ll_tim.h ****   * @param  TIMx Timer instance
 963:Drivers/STM32L0xx_HAL_Driver/Inc/stm32l0xx_ll_tim.h ****   * @retval Inverted state of bit (0 or 1).
 964:Drivers/STM32L0xx_HAL_Driver/Inc/stm32l0xx_ll_tim.h ****   */
 965:Drivers/STM32L0xx_HAL_Driver/Inc/stm32l0xx_ll_tim.h **** __STATIC_INLINE uint32_t LL_TIM_IsEnabledUpdateEvent(TIM_TypeDef *TIMx)
 966:Drivers/STM32L0xx_HAL_Driver/Inc/stm32l0xx_ll_tim.h **** {
 967:Drivers/STM32L0xx_HAL_Driver/Inc/stm32l0xx_ll_tim.h ****   return ((READ_BIT(TIMx->CR1, TIM_CR1_UDIS) == (uint32_t)RESET) ? 1UL : 0UL);
 968:Drivers/STM32L0xx_HAL_Driver/Inc/stm32l0xx_ll_tim.h **** }
 969:Drivers/STM32L0xx_HAL_Driver/Inc/stm32l0xx_ll_tim.h **** 
 970:Drivers/STM32L0xx_HAL_Driver/Inc/stm32l0xx_ll_tim.h **** /**
 971:Drivers/STM32L0xx_HAL_Driver/Inc/stm32l0xx_ll_tim.h ****   * @brief  Set update event source
 972:Drivers/STM32L0xx_HAL_Driver/Inc/stm32l0xx_ll_tim.h ****   * @note Update event source set to LL_TIM_UPDATESOURCE_REGULAR: any of the following events
 973:Drivers/STM32L0xx_HAL_Driver/Inc/stm32l0xx_ll_tim.h ****   *       generate an update interrupt or DMA request if enabled:
 974:Drivers/STM32L0xx_HAL_Driver/Inc/stm32l0xx_ll_tim.h ****   *        - Counter overflow/underflow
 975:Drivers/STM32L0xx_HAL_Driver/Inc/stm32l0xx_ll_tim.h ****   *        - Setting the UG bit
 976:Drivers/STM32L0xx_HAL_Driver/Inc/stm32l0xx_ll_tim.h ****   *        - Update generation through the slave mode controller
 977:Drivers/STM32L0xx_HAL_Driver/Inc/stm32l0xx_ll_tim.h ****   * @note Update event source set to LL_TIM_UPDATESOURCE_COUNTER: only counter
 978:Drivers/STM32L0xx_HAL_Driver/Inc/stm32l0xx_ll_tim.h ****   *       overflow/underflow generates an update interrupt or DMA request if enabled.
 979:Drivers/STM32L0xx_HAL_Driver/Inc/stm32l0xx_ll_tim.h ****   * @rmtoll CR1          URS           LL_TIM_SetUpdateSource
 980:Drivers/STM32L0xx_HAL_Driver/Inc/stm32l0xx_ll_tim.h ****   * @param  TIMx Timer instance
 981:Drivers/STM32L0xx_HAL_Driver/Inc/stm32l0xx_ll_tim.h ****   * @param  UpdateSource This parameter can be one of the following values:
 982:Drivers/STM32L0xx_HAL_Driver/Inc/stm32l0xx_ll_tim.h ****   *         @arg @ref LL_TIM_UPDATESOURCE_REGULAR
ARM GAS  /tmp/cckNMhWV.s 			page 29


 983:Drivers/STM32L0xx_HAL_Driver/Inc/stm32l0xx_ll_tim.h ****   *         @arg @ref LL_TIM_UPDATESOURCE_COUNTER
 984:Drivers/STM32L0xx_HAL_Driver/Inc/stm32l0xx_ll_tim.h ****   * @retval None
 985:Drivers/STM32L0xx_HAL_Driver/Inc/stm32l0xx_ll_tim.h ****   */
 986:Drivers/STM32L0xx_HAL_Driver/Inc/stm32l0xx_ll_tim.h **** __STATIC_INLINE void LL_TIM_SetUpdateSource(TIM_TypeDef *TIMx, uint32_t UpdateSource)
 987:Drivers/STM32L0xx_HAL_Driver/Inc/stm32l0xx_ll_tim.h **** {
 988:Drivers/STM32L0xx_HAL_Driver/Inc/stm32l0xx_ll_tim.h ****   MODIFY_REG(TIMx->CR1, TIM_CR1_URS, UpdateSource);
 989:Drivers/STM32L0xx_HAL_Driver/Inc/stm32l0xx_ll_tim.h **** }
 990:Drivers/STM32L0xx_HAL_Driver/Inc/stm32l0xx_ll_tim.h **** 
 991:Drivers/STM32L0xx_HAL_Driver/Inc/stm32l0xx_ll_tim.h **** /**
 992:Drivers/STM32L0xx_HAL_Driver/Inc/stm32l0xx_ll_tim.h ****   * @brief  Get actual event update source
 993:Drivers/STM32L0xx_HAL_Driver/Inc/stm32l0xx_ll_tim.h ****   * @rmtoll CR1          URS           LL_TIM_GetUpdateSource
 994:Drivers/STM32L0xx_HAL_Driver/Inc/stm32l0xx_ll_tim.h ****   * @param  TIMx Timer instance
 995:Drivers/STM32L0xx_HAL_Driver/Inc/stm32l0xx_ll_tim.h ****   * @retval Returned value can be one of the following values:
 996:Drivers/STM32L0xx_HAL_Driver/Inc/stm32l0xx_ll_tim.h ****   *         @arg @ref LL_TIM_UPDATESOURCE_REGULAR
 997:Drivers/STM32L0xx_HAL_Driver/Inc/stm32l0xx_ll_tim.h ****   *         @arg @ref LL_TIM_UPDATESOURCE_COUNTER
 998:Drivers/STM32L0xx_HAL_Driver/Inc/stm32l0xx_ll_tim.h ****   */
 999:Drivers/STM32L0xx_HAL_Driver/Inc/stm32l0xx_ll_tim.h **** __STATIC_INLINE uint32_t LL_TIM_GetUpdateSource(TIM_TypeDef *TIMx)
1000:Drivers/STM32L0xx_HAL_Driver/Inc/stm32l0xx_ll_tim.h **** {
1001:Drivers/STM32L0xx_HAL_Driver/Inc/stm32l0xx_ll_tim.h ****   return (uint32_t)(READ_BIT(TIMx->CR1, TIM_CR1_URS));
1002:Drivers/STM32L0xx_HAL_Driver/Inc/stm32l0xx_ll_tim.h **** }
1003:Drivers/STM32L0xx_HAL_Driver/Inc/stm32l0xx_ll_tim.h **** 
1004:Drivers/STM32L0xx_HAL_Driver/Inc/stm32l0xx_ll_tim.h **** /**
1005:Drivers/STM32L0xx_HAL_Driver/Inc/stm32l0xx_ll_tim.h ****   * @brief  Set one pulse mode (one shot v.s. repetitive).
1006:Drivers/STM32L0xx_HAL_Driver/Inc/stm32l0xx_ll_tim.h ****   * @rmtoll CR1          OPM           LL_TIM_SetOnePulseMode
1007:Drivers/STM32L0xx_HAL_Driver/Inc/stm32l0xx_ll_tim.h ****   * @param  TIMx Timer instance
1008:Drivers/STM32L0xx_HAL_Driver/Inc/stm32l0xx_ll_tim.h ****   * @param  OnePulseMode This parameter can be one of the following values:
1009:Drivers/STM32L0xx_HAL_Driver/Inc/stm32l0xx_ll_tim.h ****   *         @arg @ref LL_TIM_ONEPULSEMODE_SINGLE
1010:Drivers/STM32L0xx_HAL_Driver/Inc/stm32l0xx_ll_tim.h ****   *         @arg @ref LL_TIM_ONEPULSEMODE_REPETITIVE
1011:Drivers/STM32L0xx_HAL_Driver/Inc/stm32l0xx_ll_tim.h ****   * @retval None
1012:Drivers/STM32L0xx_HAL_Driver/Inc/stm32l0xx_ll_tim.h ****   */
1013:Drivers/STM32L0xx_HAL_Driver/Inc/stm32l0xx_ll_tim.h **** __STATIC_INLINE void LL_TIM_SetOnePulseMode(TIM_TypeDef *TIMx, uint32_t OnePulseMode)
1014:Drivers/STM32L0xx_HAL_Driver/Inc/stm32l0xx_ll_tim.h **** {
1015:Drivers/STM32L0xx_HAL_Driver/Inc/stm32l0xx_ll_tim.h ****   MODIFY_REG(TIMx->CR1, TIM_CR1_OPM, OnePulseMode);
1016:Drivers/STM32L0xx_HAL_Driver/Inc/stm32l0xx_ll_tim.h **** }
1017:Drivers/STM32L0xx_HAL_Driver/Inc/stm32l0xx_ll_tim.h **** 
1018:Drivers/STM32L0xx_HAL_Driver/Inc/stm32l0xx_ll_tim.h **** /**
1019:Drivers/STM32L0xx_HAL_Driver/Inc/stm32l0xx_ll_tim.h ****   * @brief  Get actual one pulse mode.
1020:Drivers/STM32L0xx_HAL_Driver/Inc/stm32l0xx_ll_tim.h ****   * @rmtoll CR1          OPM           LL_TIM_GetOnePulseMode
1021:Drivers/STM32L0xx_HAL_Driver/Inc/stm32l0xx_ll_tim.h ****   * @param  TIMx Timer instance
1022:Drivers/STM32L0xx_HAL_Driver/Inc/stm32l0xx_ll_tim.h ****   * @retval Returned value can be one of the following values:
1023:Drivers/STM32L0xx_HAL_Driver/Inc/stm32l0xx_ll_tim.h ****   *         @arg @ref LL_TIM_ONEPULSEMODE_SINGLE
1024:Drivers/STM32L0xx_HAL_Driver/Inc/stm32l0xx_ll_tim.h ****   *         @arg @ref LL_TIM_ONEPULSEMODE_REPETITIVE
1025:Drivers/STM32L0xx_HAL_Driver/Inc/stm32l0xx_ll_tim.h ****   */
1026:Drivers/STM32L0xx_HAL_Driver/Inc/stm32l0xx_ll_tim.h **** __STATIC_INLINE uint32_t LL_TIM_GetOnePulseMode(TIM_TypeDef *TIMx)
1027:Drivers/STM32L0xx_HAL_Driver/Inc/stm32l0xx_ll_tim.h **** {
1028:Drivers/STM32L0xx_HAL_Driver/Inc/stm32l0xx_ll_tim.h ****   return (uint32_t)(READ_BIT(TIMx->CR1, TIM_CR1_OPM));
1029:Drivers/STM32L0xx_HAL_Driver/Inc/stm32l0xx_ll_tim.h **** }
1030:Drivers/STM32L0xx_HAL_Driver/Inc/stm32l0xx_ll_tim.h **** 
1031:Drivers/STM32L0xx_HAL_Driver/Inc/stm32l0xx_ll_tim.h **** /**
1032:Drivers/STM32L0xx_HAL_Driver/Inc/stm32l0xx_ll_tim.h ****   * @brief  Set the timer counter counting mode.
1033:Drivers/STM32L0xx_HAL_Driver/Inc/stm32l0xx_ll_tim.h ****   * @note Macro IS_TIM_COUNTER_MODE_SELECT_INSTANCE(TIMx) can be used to
1034:Drivers/STM32L0xx_HAL_Driver/Inc/stm32l0xx_ll_tim.h ****   *       check whether or not the counter mode selection feature is supported
1035:Drivers/STM32L0xx_HAL_Driver/Inc/stm32l0xx_ll_tim.h ****   *       by a timer instance.
1036:Drivers/STM32L0xx_HAL_Driver/Inc/stm32l0xx_ll_tim.h ****   * @note Switching from Center Aligned counter mode to Edge counter mode (or reverse)
1037:Drivers/STM32L0xx_HAL_Driver/Inc/stm32l0xx_ll_tim.h ****   *       requires a timer reset to avoid unexpected direction
1038:Drivers/STM32L0xx_HAL_Driver/Inc/stm32l0xx_ll_tim.h ****   *       due to DIR bit readonly in center aligned mode.
1039:Drivers/STM32L0xx_HAL_Driver/Inc/stm32l0xx_ll_tim.h ****   * @rmtoll CR1          DIR           LL_TIM_SetCounterMode\n
ARM GAS  /tmp/cckNMhWV.s 			page 30


1040:Drivers/STM32L0xx_HAL_Driver/Inc/stm32l0xx_ll_tim.h ****   *         CR1          CMS           LL_TIM_SetCounterMode
1041:Drivers/STM32L0xx_HAL_Driver/Inc/stm32l0xx_ll_tim.h ****   * @param  TIMx Timer instance
1042:Drivers/STM32L0xx_HAL_Driver/Inc/stm32l0xx_ll_tim.h ****   * @param  CounterMode This parameter can be one of the following values:
1043:Drivers/STM32L0xx_HAL_Driver/Inc/stm32l0xx_ll_tim.h ****   *         @arg @ref LL_TIM_COUNTERMODE_UP
1044:Drivers/STM32L0xx_HAL_Driver/Inc/stm32l0xx_ll_tim.h ****   *         @arg @ref LL_TIM_COUNTERMODE_DOWN
1045:Drivers/STM32L0xx_HAL_Driver/Inc/stm32l0xx_ll_tim.h ****   *         @arg @ref LL_TIM_COUNTERMODE_CENTER_UP
1046:Drivers/STM32L0xx_HAL_Driver/Inc/stm32l0xx_ll_tim.h ****   *         @arg @ref LL_TIM_COUNTERMODE_CENTER_DOWN
1047:Drivers/STM32L0xx_HAL_Driver/Inc/stm32l0xx_ll_tim.h ****   *         @arg @ref LL_TIM_COUNTERMODE_CENTER_UP_DOWN
1048:Drivers/STM32L0xx_HAL_Driver/Inc/stm32l0xx_ll_tim.h ****   * @retval None
1049:Drivers/STM32L0xx_HAL_Driver/Inc/stm32l0xx_ll_tim.h ****   */
1050:Drivers/STM32L0xx_HAL_Driver/Inc/stm32l0xx_ll_tim.h **** __STATIC_INLINE void LL_TIM_SetCounterMode(TIM_TypeDef *TIMx, uint32_t CounterMode)
1051:Drivers/STM32L0xx_HAL_Driver/Inc/stm32l0xx_ll_tim.h **** {
1052:Drivers/STM32L0xx_HAL_Driver/Inc/stm32l0xx_ll_tim.h ****   MODIFY_REG(TIMx->CR1, (TIM_CR1_DIR | TIM_CR1_CMS), CounterMode);
1053:Drivers/STM32L0xx_HAL_Driver/Inc/stm32l0xx_ll_tim.h **** }
1054:Drivers/STM32L0xx_HAL_Driver/Inc/stm32l0xx_ll_tim.h **** 
1055:Drivers/STM32L0xx_HAL_Driver/Inc/stm32l0xx_ll_tim.h **** /**
1056:Drivers/STM32L0xx_HAL_Driver/Inc/stm32l0xx_ll_tim.h ****   * @brief  Get actual counter mode.
1057:Drivers/STM32L0xx_HAL_Driver/Inc/stm32l0xx_ll_tim.h ****   * @note Macro IS_TIM_COUNTER_MODE_SELECT_INSTANCE(TIMx) can be used to
1058:Drivers/STM32L0xx_HAL_Driver/Inc/stm32l0xx_ll_tim.h ****   *       check whether or not the counter mode selection feature is supported
1059:Drivers/STM32L0xx_HAL_Driver/Inc/stm32l0xx_ll_tim.h ****   *       by a timer instance.
1060:Drivers/STM32L0xx_HAL_Driver/Inc/stm32l0xx_ll_tim.h ****   * @rmtoll CR1          DIR           LL_TIM_GetCounterMode\n
1061:Drivers/STM32L0xx_HAL_Driver/Inc/stm32l0xx_ll_tim.h ****   *         CR1          CMS           LL_TIM_GetCounterMode
1062:Drivers/STM32L0xx_HAL_Driver/Inc/stm32l0xx_ll_tim.h ****   * @param  TIMx Timer instance
1063:Drivers/STM32L0xx_HAL_Driver/Inc/stm32l0xx_ll_tim.h ****   * @retval Returned value can be one of the following values:
1064:Drivers/STM32L0xx_HAL_Driver/Inc/stm32l0xx_ll_tim.h ****   *         @arg @ref LL_TIM_COUNTERMODE_UP
1065:Drivers/STM32L0xx_HAL_Driver/Inc/stm32l0xx_ll_tim.h ****   *         @arg @ref LL_TIM_COUNTERMODE_DOWN
1066:Drivers/STM32L0xx_HAL_Driver/Inc/stm32l0xx_ll_tim.h ****   *         @arg @ref LL_TIM_COUNTERMODE_CENTER_UP
1067:Drivers/STM32L0xx_HAL_Driver/Inc/stm32l0xx_ll_tim.h ****   *         @arg @ref LL_TIM_COUNTERMODE_CENTER_DOWN
1068:Drivers/STM32L0xx_HAL_Driver/Inc/stm32l0xx_ll_tim.h ****   *         @arg @ref LL_TIM_COUNTERMODE_CENTER_UP_DOWN
1069:Drivers/STM32L0xx_HAL_Driver/Inc/stm32l0xx_ll_tim.h ****   */
1070:Drivers/STM32L0xx_HAL_Driver/Inc/stm32l0xx_ll_tim.h **** __STATIC_INLINE uint32_t LL_TIM_GetCounterMode(TIM_TypeDef *TIMx)
1071:Drivers/STM32L0xx_HAL_Driver/Inc/stm32l0xx_ll_tim.h **** {
1072:Drivers/STM32L0xx_HAL_Driver/Inc/stm32l0xx_ll_tim.h ****   uint32_t counter_mode;
1073:Drivers/STM32L0xx_HAL_Driver/Inc/stm32l0xx_ll_tim.h **** 
1074:Drivers/STM32L0xx_HAL_Driver/Inc/stm32l0xx_ll_tim.h ****   counter_mode = (uint32_t)(READ_BIT(TIMx->CR1, TIM_CR1_CMS));
1075:Drivers/STM32L0xx_HAL_Driver/Inc/stm32l0xx_ll_tim.h **** 
1076:Drivers/STM32L0xx_HAL_Driver/Inc/stm32l0xx_ll_tim.h ****   if (counter_mode == 0U)
1077:Drivers/STM32L0xx_HAL_Driver/Inc/stm32l0xx_ll_tim.h ****   {
1078:Drivers/STM32L0xx_HAL_Driver/Inc/stm32l0xx_ll_tim.h ****     counter_mode = (uint32_t)(READ_BIT(TIMx->CR1, TIM_CR1_DIR));
1079:Drivers/STM32L0xx_HAL_Driver/Inc/stm32l0xx_ll_tim.h ****   }
1080:Drivers/STM32L0xx_HAL_Driver/Inc/stm32l0xx_ll_tim.h **** 
1081:Drivers/STM32L0xx_HAL_Driver/Inc/stm32l0xx_ll_tim.h ****   return counter_mode;
1082:Drivers/STM32L0xx_HAL_Driver/Inc/stm32l0xx_ll_tim.h **** }
1083:Drivers/STM32L0xx_HAL_Driver/Inc/stm32l0xx_ll_tim.h **** 
1084:Drivers/STM32L0xx_HAL_Driver/Inc/stm32l0xx_ll_tim.h **** /**
1085:Drivers/STM32L0xx_HAL_Driver/Inc/stm32l0xx_ll_tim.h ****   * @brief  Enable auto-reload (ARR) preload.
1086:Drivers/STM32L0xx_HAL_Driver/Inc/stm32l0xx_ll_tim.h ****   * @rmtoll CR1          ARPE          LL_TIM_EnableARRPreload
1087:Drivers/STM32L0xx_HAL_Driver/Inc/stm32l0xx_ll_tim.h ****   * @param  TIMx Timer instance
1088:Drivers/STM32L0xx_HAL_Driver/Inc/stm32l0xx_ll_tim.h ****   * @retval None
1089:Drivers/STM32L0xx_HAL_Driver/Inc/stm32l0xx_ll_tim.h ****   */
1090:Drivers/STM32L0xx_HAL_Driver/Inc/stm32l0xx_ll_tim.h **** __STATIC_INLINE void LL_TIM_EnableARRPreload(TIM_TypeDef *TIMx)
1091:Drivers/STM32L0xx_HAL_Driver/Inc/stm32l0xx_ll_tim.h **** {
1092:Drivers/STM32L0xx_HAL_Driver/Inc/stm32l0xx_ll_tim.h ****   SET_BIT(TIMx->CR1, TIM_CR1_ARPE);
1093:Drivers/STM32L0xx_HAL_Driver/Inc/stm32l0xx_ll_tim.h **** }
1094:Drivers/STM32L0xx_HAL_Driver/Inc/stm32l0xx_ll_tim.h **** 
1095:Drivers/STM32L0xx_HAL_Driver/Inc/stm32l0xx_ll_tim.h **** /**
1096:Drivers/STM32L0xx_HAL_Driver/Inc/stm32l0xx_ll_tim.h ****   * @brief  Disable auto-reload (ARR) preload.
ARM GAS  /tmp/cckNMhWV.s 			page 31


1097:Drivers/STM32L0xx_HAL_Driver/Inc/stm32l0xx_ll_tim.h ****   * @rmtoll CR1          ARPE          LL_TIM_DisableARRPreload
1098:Drivers/STM32L0xx_HAL_Driver/Inc/stm32l0xx_ll_tim.h ****   * @param  TIMx Timer instance
1099:Drivers/STM32L0xx_HAL_Driver/Inc/stm32l0xx_ll_tim.h ****   * @retval None
1100:Drivers/STM32L0xx_HAL_Driver/Inc/stm32l0xx_ll_tim.h ****   */
1101:Drivers/STM32L0xx_HAL_Driver/Inc/stm32l0xx_ll_tim.h **** __STATIC_INLINE void LL_TIM_DisableARRPreload(TIM_TypeDef *TIMx)
1102:Drivers/STM32L0xx_HAL_Driver/Inc/stm32l0xx_ll_tim.h **** {
1103:Drivers/STM32L0xx_HAL_Driver/Inc/stm32l0xx_ll_tim.h ****   CLEAR_BIT(TIMx->CR1, TIM_CR1_ARPE);
1104:Drivers/STM32L0xx_HAL_Driver/Inc/stm32l0xx_ll_tim.h **** }
1105:Drivers/STM32L0xx_HAL_Driver/Inc/stm32l0xx_ll_tim.h **** 
1106:Drivers/STM32L0xx_HAL_Driver/Inc/stm32l0xx_ll_tim.h **** /**
1107:Drivers/STM32L0xx_HAL_Driver/Inc/stm32l0xx_ll_tim.h ****   * @brief  Indicates whether auto-reload (ARR) preload is enabled.
1108:Drivers/STM32L0xx_HAL_Driver/Inc/stm32l0xx_ll_tim.h ****   * @rmtoll CR1          ARPE          LL_TIM_IsEnabledARRPreload
1109:Drivers/STM32L0xx_HAL_Driver/Inc/stm32l0xx_ll_tim.h ****   * @param  TIMx Timer instance
1110:Drivers/STM32L0xx_HAL_Driver/Inc/stm32l0xx_ll_tim.h ****   * @retval State of bit (1 or 0).
1111:Drivers/STM32L0xx_HAL_Driver/Inc/stm32l0xx_ll_tim.h ****   */
1112:Drivers/STM32L0xx_HAL_Driver/Inc/stm32l0xx_ll_tim.h **** __STATIC_INLINE uint32_t LL_TIM_IsEnabledARRPreload(TIM_TypeDef *TIMx)
1113:Drivers/STM32L0xx_HAL_Driver/Inc/stm32l0xx_ll_tim.h **** {
1114:Drivers/STM32L0xx_HAL_Driver/Inc/stm32l0xx_ll_tim.h ****   return ((READ_BIT(TIMx->CR1, TIM_CR1_ARPE) == (TIM_CR1_ARPE)) ? 1UL : 0UL);
1115:Drivers/STM32L0xx_HAL_Driver/Inc/stm32l0xx_ll_tim.h **** }
1116:Drivers/STM32L0xx_HAL_Driver/Inc/stm32l0xx_ll_tim.h **** 
1117:Drivers/STM32L0xx_HAL_Driver/Inc/stm32l0xx_ll_tim.h **** /**
1118:Drivers/STM32L0xx_HAL_Driver/Inc/stm32l0xx_ll_tim.h ****   * @brief  Set the division ratio between the timer clock  and the sampling clock used by the dead
1119:Drivers/STM32L0xx_HAL_Driver/Inc/stm32l0xx_ll_tim.h ****   *         (when supported) and the digital filters.
1120:Drivers/STM32L0xx_HAL_Driver/Inc/stm32l0xx_ll_tim.h ****   * @note Macro IS_TIM_CLOCK_DIVISION_INSTANCE(TIMx) can be used to check
1121:Drivers/STM32L0xx_HAL_Driver/Inc/stm32l0xx_ll_tim.h ****   *       whether or not the clock division feature is supported by the timer
1122:Drivers/STM32L0xx_HAL_Driver/Inc/stm32l0xx_ll_tim.h ****   *       instance.
1123:Drivers/STM32L0xx_HAL_Driver/Inc/stm32l0xx_ll_tim.h ****   * @rmtoll CR1          CKD           LL_TIM_SetClockDivision
1124:Drivers/STM32L0xx_HAL_Driver/Inc/stm32l0xx_ll_tim.h ****   * @param  TIMx Timer instance
1125:Drivers/STM32L0xx_HAL_Driver/Inc/stm32l0xx_ll_tim.h ****   * @param  ClockDivision This parameter can be one of the following values:
1126:Drivers/STM32L0xx_HAL_Driver/Inc/stm32l0xx_ll_tim.h ****   *         @arg @ref LL_TIM_CLOCKDIVISION_DIV1
1127:Drivers/STM32L0xx_HAL_Driver/Inc/stm32l0xx_ll_tim.h ****   *         @arg @ref LL_TIM_CLOCKDIVISION_DIV2
1128:Drivers/STM32L0xx_HAL_Driver/Inc/stm32l0xx_ll_tim.h ****   *         @arg @ref LL_TIM_CLOCKDIVISION_DIV4
1129:Drivers/STM32L0xx_HAL_Driver/Inc/stm32l0xx_ll_tim.h ****   * @retval None
1130:Drivers/STM32L0xx_HAL_Driver/Inc/stm32l0xx_ll_tim.h ****   */
1131:Drivers/STM32L0xx_HAL_Driver/Inc/stm32l0xx_ll_tim.h **** __STATIC_INLINE void LL_TIM_SetClockDivision(TIM_TypeDef *TIMx, uint32_t ClockDivision)
1132:Drivers/STM32L0xx_HAL_Driver/Inc/stm32l0xx_ll_tim.h **** {
1133:Drivers/STM32L0xx_HAL_Driver/Inc/stm32l0xx_ll_tim.h ****   MODIFY_REG(TIMx->CR1, TIM_CR1_CKD, ClockDivision);
1134:Drivers/STM32L0xx_HAL_Driver/Inc/stm32l0xx_ll_tim.h **** }
1135:Drivers/STM32L0xx_HAL_Driver/Inc/stm32l0xx_ll_tim.h **** 
1136:Drivers/STM32L0xx_HAL_Driver/Inc/stm32l0xx_ll_tim.h **** /**
1137:Drivers/STM32L0xx_HAL_Driver/Inc/stm32l0xx_ll_tim.h ****   * @brief  Get the actual division ratio between the timer clock  and the sampling clock used by t
1138:Drivers/STM32L0xx_HAL_Driver/Inc/stm32l0xx_ll_tim.h ****   *         generators (when supported) and the digital filters.
1139:Drivers/STM32L0xx_HAL_Driver/Inc/stm32l0xx_ll_tim.h ****   * @note Macro IS_TIM_CLOCK_DIVISION_INSTANCE(TIMx) can be used to check
1140:Drivers/STM32L0xx_HAL_Driver/Inc/stm32l0xx_ll_tim.h ****   *       whether or not the clock division feature is supported by the timer
1141:Drivers/STM32L0xx_HAL_Driver/Inc/stm32l0xx_ll_tim.h ****   *       instance.
1142:Drivers/STM32L0xx_HAL_Driver/Inc/stm32l0xx_ll_tim.h ****   * @rmtoll CR1          CKD           LL_TIM_GetClockDivision
1143:Drivers/STM32L0xx_HAL_Driver/Inc/stm32l0xx_ll_tim.h ****   * @param  TIMx Timer instance
1144:Drivers/STM32L0xx_HAL_Driver/Inc/stm32l0xx_ll_tim.h ****   * @retval Returned value can be one of the following values:
1145:Drivers/STM32L0xx_HAL_Driver/Inc/stm32l0xx_ll_tim.h ****   *         @arg @ref LL_TIM_CLOCKDIVISION_DIV1
1146:Drivers/STM32L0xx_HAL_Driver/Inc/stm32l0xx_ll_tim.h ****   *         @arg @ref LL_TIM_CLOCKDIVISION_DIV2
1147:Drivers/STM32L0xx_HAL_Driver/Inc/stm32l0xx_ll_tim.h ****   *         @arg @ref LL_TIM_CLOCKDIVISION_DIV4
1148:Drivers/STM32L0xx_HAL_Driver/Inc/stm32l0xx_ll_tim.h ****   */
1149:Drivers/STM32L0xx_HAL_Driver/Inc/stm32l0xx_ll_tim.h **** __STATIC_INLINE uint32_t LL_TIM_GetClockDivision(TIM_TypeDef *TIMx)
1150:Drivers/STM32L0xx_HAL_Driver/Inc/stm32l0xx_ll_tim.h **** {
1151:Drivers/STM32L0xx_HAL_Driver/Inc/stm32l0xx_ll_tim.h ****   return (uint32_t)(READ_BIT(TIMx->CR1, TIM_CR1_CKD));
1152:Drivers/STM32L0xx_HAL_Driver/Inc/stm32l0xx_ll_tim.h **** }
1153:Drivers/STM32L0xx_HAL_Driver/Inc/stm32l0xx_ll_tim.h **** 
ARM GAS  /tmp/cckNMhWV.s 			page 32


1154:Drivers/STM32L0xx_HAL_Driver/Inc/stm32l0xx_ll_tim.h **** /**
1155:Drivers/STM32L0xx_HAL_Driver/Inc/stm32l0xx_ll_tim.h ****   * @brief  Set the counter value.
1156:Drivers/STM32L0xx_HAL_Driver/Inc/stm32l0xx_ll_tim.h ****   * @rmtoll CNT          CNT           LL_TIM_SetCounter
1157:Drivers/STM32L0xx_HAL_Driver/Inc/stm32l0xx_ll_tim.h ****   * @param  TIMx Timer instance
1158:Drivers/STM32L0xx_HAL_Driver/Inc/stm32l0xx_ll_tim.h ****   * @param  Counter Counter value (between Min_Data=0 and Max_Data=0xFFFF)
1159:Drivers/STM32L0xx_HAL_Driver/Inc/stm32l0xx_ll_tim.h ****   * @retval None
1160:Drivers/STM32L0xx_HAL_Driver/Inc/stm32l0xx_ll_tim.h ****   */
1161:Drivers/STM32L0xx_HAL_Driver/Inc/stm32l0xx_ll_tim.h **** __STATIC_INLINE void LL_TIM_SetCounter(TIM_TypeDef *TIMx, uint32_t Counter)
1162:Drivers/STM32L0xx_HAL_Driver/Inc/stm32l0xx_ll_tim.h **** {
1163:Drivers/STM32L0xx_HAL_Driver/Inc/stm32l0xx_ll_tim.h ****   WRITE_REG(TIMx->CNT, Counter);
1164:Drivers/STM32L0xx_HAL_Driver/Inc/stm32l0xx_ll_tim.h **** }
1165:Drivers/STM32L0xx_HAL_Driver/Inc/stm32l0xx_ll_tim.h **** 
1166:Drivers/STM32L0xx_HAL_Driver/Inc/stm32l0xx_ll_tim.h **** /**
1167:Drivers/STM32L0xx_HAL_Driver/Inc/stm32l0xx_ll_tim.h ****   * @brief  Get the counter value.
1168:Drivers/STM32L0xx_HAL_Driver/Inc/stm32l0xx_ll_tim.h ****   * @rmtoll CNT          CNT           LL_TIM_GetCounter
1169:Drivers/STM32L0xx_HAL_Driver/Inc/stm32l0xx_ll_tim.h ****   * @param  TIMx Timer instance
1170:Drivers/STM32L0xx_HAL_Driver/Inc/stm32l0xx_ll_tim.h ****   * @retval Counter value (between Min_Data=0 and Max_Data=0xFFFF)
1171:Drivers/STM32L0xx_HAL_Driver/Inc/stm32l0xx_ll_tim.h ****   */
1172:Drivers/STM32L0xx_HAL_Driver/Inc/stm32l0xx_ll_tim.h **** __STATIC_INLINE uint32_t LL_TIM_GetCounter(TIM_TypeDef *TIMx)
1173:Drivers/STM32L0xx_HAL_Driver/Inc/stm32l0xx_ll_tim.h **** {
1174:Drivers/STM32L0xx_HAL_Driver/Inc/stm32l0xx_ll_tim.h ****   return (uint32_t)(READ_REG(TIMx->CNT));
1175:Drivers/STM32L0xx_HAL_Driver/Inc/stm32l0xx_ll_tim.h **** }
1176:Drivers/STM32L0xx_HAL_Driver/Inc/stm32l0xx_ll_tim.h **** 
1177:Drivers/STM32L0xx_HAL_Driver/Inc/stm32l0xx_ll_tim.h **** /**
1178:Drivers/STM32L0xx_HAL_Driver/Inc/stm32l0xx_ll_tim.h ****   * @brief  Get the current direction of the counter
1179:Drivers/STM32L0xx_HAL_Driver/Inc/stm32l0xx_ll_tim.h ****   * @rmtoll CR1          DIR           LL_TIM_GetDirection
1180:Drivers/STM32L0xx_HAL_Driver/Inc/stm32l0xx_ll_tim.h ****   * @param  TIMx Timer instance
1181:Drivers/STM32L0xx_HAL_Driver/Inc/stm32l0xx_ll_tim.h ****   * @retval Returned value can be one of the following values:
1182:Drivers/STM32L0xx_HAL_Driver/Inc/stm32l0xx_ll_tim.h ****   *         @arg @ref LL_TIM_COUNTERDIRECTION_UP
1183:Drivers/STM32L0xx_HAL_Driver/Inc/stm32l0xx_ll_tim.h ****   *         @arg @ref LL_TIM_COUNTERDIRECTION_DOWN
1184:Drivers/STM32L0xx_HAL_Driver/Inc/stm32l0xx_ll_tim.h ****   */
1185:Drivers/STM32L0xx_HAL_Driver/Inc/stm32l0xx_ll_tim.h **** __STATIC_INLINE uint32_t LL_TIM_GetDirection(TIM_TypeDef *TIMx)
1186:Drivers/STM32L0xx_HAL_Driver/Inc/stm32l0xx_ll_tim.h **** {
1187:Drivers/STM32L0xx_HAL_Driver/Inc/stm32l0xx_ll_tim.h ****   return (uint32_t)(READ_BIT(TIMx->CR1, TIM_CR1_DIR));
1188:Drivers/STM32L0xx_HAL_Driver/Inc/stm32l0xx_ll_tim.h **** }
1189:Drivers/STM32L0xx_HAL_Driver/Inc/stm32l0xx_ll_tim.h **** 
1190:Drivers/STM32L0xx_HAL_Driver/Inc/stm32l0xx_ll_tim.h **** /**
1191:Drivers/STM32L0xx_HAL_Driver/Inc/stm32l0xx_ll_tim.h ****   * @brief  Set the prescaler value.
1192:Drivers/STM32L0xx_HAL_Driver/Inc/stm32l0xx_ll_tim.h ****   * @note The counter clock frequency CK_CNT is equal to fCK_PSC / (PSC[15:0] + 1).
1193:Drivers/STM32L0xx_HAL_Driver/Inc/stm32l0xx_ll_tim.h ****   * @note The prescaler can be changed on the fly as this control register is buffered. The new
1194:Drivers/STM32L0xx_HAL_Driver/Inc/stm32l0xx_ll_tim.h ****   *       prescaler ratio is taken into account at the next update event.
1195:Drivers/STM32L0xx_HAL_Driver/Inc/stm32l0xx_ll_tim.h ****   * @note Helper macro @ref __LL_TIM_CALC_PSC can be used to calculate the Prescaler parameter
1196:Drivers/STM32L0xx_HAL_Driver/Inc/stm32l0xx_ll_tim.h ****   * @rmtoll PSC          PSC           LL_TIM_SetPrescaler
1197:Drivers/STM32L0xx_HAL_Driver/Inc/stm32l0xx_ll_tim.h ****   * @param  TIMx Timer instance
1198:Drivers/STM32L0xx_HAL_Driver/Inc/stm32l0xx_ll_tim.h ****   * @param  Prescaler between Min_Data=0 and Max_Data=65535
1199:Drivers/STM32L0xx_HAL_Driver/Inc/stm32l0xx_ll_tim.h ****   * @retval None
1200:Drivers/STM32L0xx_HAL_Driver/Inc/stm32l0xx_ll_tim.h ****   */
1201:Drivers/STM32L0xx_HAL_Driver/Inc/stm32l0xx_ll_tim.h **** __STATIC_INLINE void LL_TIM_SetPrescaler(TIM_TypeDef *TIMx, uint32_t Prescaler)
1202:Drivers/STM32L0xx_HAL_Driver/Inc/stm32l0xx_ll_tim.h **** {
1203:Drivers/STM32L0xx_HAL_Driver/Inc/stm32l0xx_ll_tim.h ****   WRITE_REG(TIMx->PSC, Prescaler);
1204:Drivers/STM32L0xx_HAL_Driver/Inc/stm32l0xx_ll_tim.h **** }
1205:Drivers/STM32L0xx_HAL_Driver/Inc/stm32l0xx_ll_tim.h **** 
1206:Drivers/STM32L0xx_HAL_Driver/Inc/stm32l0xx_ll_tim.h **** /**
1207:Drivers/STM32L0xx_HAL_Driver/Inc/stm32l0xx_ll_tim.h ****   * @brief  Get the prescaler value.
1208:Drivers/STM32L0xx_HAL_Driver/Inc/stm32l0xx_ll_tim.h ****   * @rmtoll PSC          PSC           LL_TIM_GetPrescaler
1209:Drivers/STM32L0xx_HAL_Driver/Inc/stm32l0xx_ll_tim.h ****   * @param  TIMx Timer instance
1210:Drivers/STM32L0xx_HAL_Driver/Inc/stm32l0xx_ll_tim.h ****   * @retval  Prescaler value between Min_Data=0 and Max_Data=65535
ARM GAS  /tmp/cckNMhWV.s 			page 33


1211:Drivers/STM32L0xx_HAL_Driver/Inc/stm32l0xx_ll_tim.h ****   */
1212:Drivers/STM32L0xx_HAL_Driver/Inc/stm32l0xx_ll_tim.h **** __STATIC_INLINE uint32_t LL_TIM_GetPrescaler(TIM_TypeDef *TIMx)
1213:Drivers/STM32L0xx_HAL_Driver/Inc/stm32l0xx_ll_tim.h **** {
1214:Drivers/STM32L0xx_HAL_Driver/Inc/stm32l0xx_ll_tim.h ****   return (uint32_t)(READ_REG(TIMx->PSC));
1215:Drivers/STM32L0xx_HAL_Driver/Inc/stm32l0xx_ll_tim.h **** }
1216:Drivers/STM32L0xx_HAL_Driver/Inc/stm32l0xx_ll_tim.h **** 
1217:Drivers/STM32L0xx_HAL_Driver/Inc/stm32l0xx_ll_tim.h **** /**
1218:Drivers/STM32L0xx_HAL_Driver/Inc/stm32l0xx_ll_tim.h ****   * @brief  Set the auto-reload value.
1219:Drivers/STM32L0xx_HAL_Driver/Inc/stm32l0xx_ll_tim.h ****   * @note The counter is blocked while the auto-reload value is null.
1220:Drivers/STM32L0xx_HAL_Driver/Inc/stm32l0xx_ll_tim.h ****   * @note Helper macro @ref __LL_TIM_CALC_ARR can be used to calculate the AutoReload parameter
1221:Drivers/STM32L0xx_HAL_Driver/Inc/stm32l0xx_ll_tim.h ****   * @rmtoll ARR          ARR           LL_TIM_SetAutoReload
1222:Drivers/STM32L0xx_HAL_Driver/Inc/stm32l0xx_ll_tim.h ****   * @param  TIMx Timer instance
1223:Drivers/STM32L0xx_HAL_Driver/Inc/stm32l0xx_ll_tim.h ****   * @param  AutoReload between Min_Data=0 and Max_Data=65535
1224:Drivers/STM32L0xx_HAL_Driver/Inc/stm32l0xx_ll_tim.h ****   * @retval None
1225:Drivers/STM32L0xx_HAL_Driver/Inc/stm32l0xx_ll_tim.h ****   */
1226:Drivers/STM32L0xx_HAL_Driver/Inc/stm32l0xx_ll_tim.h **** __STATIC_INLINE void LL_TIM_SetAutoReload(TIM_TypeDef *TIMx, uint32_t AutoReload)
1227:Drivers/STM32L0xx_HAL_Driver/Inc/stm32l0xx_ll_tim.h **** {
1228:Drivers/STM32L0xx_HAL_Driver/Inc/stm32l0xx_ll_tim.h ****   WRITE_REG(TIMx->ARR, AutoReload);
1229:Drivers/STM32L0xx_HAL_Driver/Inc/stm32l0xx_ll_tim.h **** }
1230:Drivers/STM32L0xx_HAL_Driver/Inc/stm32l0xx_ll_tim.h **** 
1231:Drivers/STM32L0xx_HAL_Driver/Inc/stm32l0xx_ll_tim.h **** /**
1232:Drivers/STM32L0xx_HAL_Driver/Inc/stm32l0xx_ll_tim.h ****   * @brief  Get the auto-reload value.
1233:Drivers/STM32L0xx_HAL_Driver/Inc/stm32l0xx_ll_tim.h ****   * @rmtoll ARR          ARR           LL_TIM_GetAutoReload
1234:Drivers/STM32L0xx_HAL_Driver/Inc/stm32l0xx_ll_tim.h ****   * @param  TIMx Timer instance
1235:Drivers/STM32L0xx_HAL_Driver/Inc/stm32l0xx_ll_tim.h ****   * @retval Auto-reload value
1236:Drivers/STM32L0xx_HAL_Driver/Inc/stm32l0xx_ll_tim.h ****   */
1237:Drivers/STM32L0xx_HAL_Driver/Inc/stm32l0xx_ll_tim.h **** __STATIC_INLINE uint32_t LL_TIM_GetAutoReload(TIM_TypeDef *TIMx)
1238:Drivers/STM32L0xx_HAL_Driver/Inc/stm32l0xx_ll_tim.h **** {
1239:Drivers/STM32L0xx_HAL_Driver/Inc/stm32l0xx_ll_tim.h ****   return (uint32_t)(READ_REG(TIMx->ARR));
1240:Drivers/STM32L0xx_HAL_Driver/Inc/stm32l0xx_ll_tim.h **** }
1241:Drivers/STM32L0xx_HAL_Driver/Inc/stm32l0xx_ll_tim.h **** 
1242:Drivers/STM32L0xx_HAL_Driver/Inc/stm32l0xx_ll_tim.h **** /**
1243:Drivers/STM32L0xx_HAL_Driver/Inc/stm32l0xx_ll_tim.h ****   * @}
1244:Drivers/STM32L0xx_HAL_Driver/Inc/stm32l0xx_ll_tim.h ****   */
1245:Drivers/STM32L0xx_HAL_Driver/Inc/stm32l0xx_ll_tim.h **** 
1246:Drivers/STM32L0xx_HAL_Driver/Inc/stm32l0xx_ll_tim.h **** /** @defgroup TIM_LL_EF_Capture_Compare Capture Compare configuration
1247:Drivers/STM32L0xx_HAL_Driver/Inc/stm32l0xx_ll_tim.h ****   * @{
1248:Drivers/STM32L0xx_HAL_Driver/Inc/stm32l0xx_ll_tim.h ****   */
1249:Drivers/STM32L0xx_HAL_Driver/Inc/stm32l0xx_ll_tim.h **** /**
1250:Drivers/STM32L0xx_HAL_Driver/Inc/stm32l0xx_ll_tim.h ****   * @brief  Set the trigger of the capture/compare DMA request.
1251:Drivers/STM32L0xx_HAL_Driver/Inc/stm32l0xx_ll_tim.h ****   * @rmtoll CR2          CCDS          LL_TIM_CC_SetDMAReqTrigger
1252:Drivers/STM32L0xx_HAL_Driver/Inc/stm32l0xx_ll_tim.h ****   * @param  TIMx Timer instance
1253:Drivers/STM32L0xx_HAL_Driver/Inc/stm32l0xx_ll_tim.h ****   * @param  DMAReqTrigger This parameter can be one of the following values:
1254:Drivers/STM32L0xx_HAL_Driver/Inc/stm32l0xx_ll_tim.h ****   *         @arg @ref LL_TIM_CCDMAREQUEST_CC
1255:Drivers/STM32L0xx_HAL_Driver/Inc/stm32l0xx_ll_tim.h ****   *         @arg @ref LL_TIM_CCDMAREQUEST_UPDATE
1256:Drivers/STM32L0xx_HAL_Driver/Inc/stm32l0xx_ll_tim.h ****   * @retval None
1257:Drivers/STM32L0xx_HAL_Driver/Inc/stm32l0xx_ll_tim.h ****   */
1258:Drivers/STM32L0xx_HAL_Driver/Inc/stm32l0xx_ll_tim.h **** __STATIC_INLINE void LL_TIM_CC_SetDMAReqTrigger(TIM_TypeDef *TIMx, uint32_t DMAReqTrigger)
1259:Drivers/STM32L0xx_HAL_Driver/Inc/stm32l0xx_ll_tim.h **** {
1260:Drivers/STM32L0xx_HAL_Driver/Inc/stm32l0xx_ll_tim.h ****   MODIFY_REG(TIMx->CR2, TIM_CR2_CCDS, DMAReqTrigger);
1261:Drivers/STM32L0xx_HAL_Driver/Inc/stm32l0xx_ll_tim.h **** }
1262:Drivers/STM32L0xx_HAL_Driver/Inc/stm32l0xx_ll_tim.h **** 
1263:Drivers/STM32L0xx_HAL_Driver/Inc/stm32l0xx_ll_tim.h **** /**
1264:Drivers/STM32L0xx_HAL_Driver/Inc/stm32l0xx_ll_tim.h ****   * @brief  Get actual trigger of the capture/compare DMA request.
1265:Drivers/STM32L0xx_HAL_Driver/Inc/stm32l0xx_ll_tim.h ****   * @rmtoll CR2          CCDS          LL_TIM_CC_GetDMAReqTrigger
1266:Drivers/STM32L0xx_HAL_Driver/Inc/stm32l0xx_ll_tim.h ****   * @param  TIMx Timer instance
1267:Drivers/STM32L0xx_HAL_Driver/Inc/stm32l0xx_ll_tim.h ****   * @retval Returned value can be one of the following values:
ARM GAS  /tmp/cckNMhWV.s 			page 34


1268:Drivers/STM32L0xx_HAL_Driver/Inc/stm32l0xx_ll_tim.h ****   *         @arg @ref LL_TIM_CCDMAREQUEST_CC
1269:Drivers/STM32L0xx_HAL_Driver/Inc/stm32l0xx_ll_tim.h ****   *         @arg @ref LL_TIM_CCDMAREQUEST_UPDATE
1270:Drivers/STM32L0xx_HAL_Driver/Inc/stm32l0xx_ll_tim.h ****   */
1271:Drivers/STM32L0xx_HAL_Driver/Inc/stm32l0xx_ll_tim.h **** __STATIC_INLINE uint32_t LL_TIM_CC_GetDMAReqTrigger(TIM_TypeDef *TIMx)
1272:Drivers/STM32L0xx_HAL_Driver/Inc/stm32l0xx_ll_tim.h **** {
1273:Drivers/STM32L0xx_HAL_Driver/Inc/stm32l0xx_ll_tim.h ****   return (uint32_t)(READ_BIT(TIMx->CR2, TIM_CR2_CCDS));
1274:Drivers/STM32L0xx_HAL_Driver/Inc/stm32l0xx_ll_tim.h **** }
1275:Drivers/STM32L0xx_HAL_Driver/Inc/stm32l0xx_ll_tim.h **** 
1276:Drivers/STM32L0xx_HAL_Driver/Inc/stm32l0xx_ll_tim.h **** /**
1277:Drivers/STM32L0xx_HAL_Driver/Inc/stm32l0xx_ll_tim.h ****   * @brief  Enable capture/compare channels.
1278:Drivers/STM32L0xx_HAL_Driver/Inc/stm32l0xx_ll_tim.h ****   * @rmtoll CCER         CC1E          LL_TIM_CC_EnableChannel\n
1279:Drivers/STM32L0xx_HAL_Driver/Inc/stm32l0xx_ll_tim.h ****   *         CCER         CC2E          LL_TIM_CC_EnableChannel\n
1280:Drivers/STM32L0xx_HAL_Driver/Inc/stm32l0xx_ll_tim.h ****   *         CCER         CC3E          LL_TIM_CC_EnableChannel\n
1281:Drivers/STM32L0xx_HAL_Driver/Inc/stm32l0xx_ll_tim.h ****   *         CCER         CC4E          LL_TIM_CC_EnableChannel
1282:Drivers/STM32L0xx_HAL_Driver/Inc/stm32l0xx_ll_tim.h ****   * @param  TIMx Timer instance
1283:Drivers/STM32L0xx_HAL_Driver/Inc/stm32l0xx_ll_tim.h ****   * @param  Channels This parameter can be a combination of the following values:
1284:Drivers/STM32L0xx_HAL_Driver/Inc/stm32l0xx_ll_tim.h ****   *         @arg @ref LL_TIM_CHANNEL_CH1
1285:Drivers/STM32L0xx_HAL_Driver/Inc/stm32l0xx_ll_tim.h ****   *         @arg @ref LL_TIM_CHANNEL_CH2
1286:Drivers/STM32L0xx_HAL_Driver/Inc/stm32l0xx_ll_tim.h ****   *         @arg @ref LL_TIM_CHANNEL_CH3
1287:Drivers/STM32L0xx_HAL_Driver/Inc/stm32l0xx_ll_tim.h ****   *         @arg @ref LL_TIM_CHANNEL_CH4
1288:Drivers/STM32L0xx_HAL_Driver/Inc/stm32l0xx_ll_tim.h ****   * @retval None
1289:Drivers/STM32L0xx_HAL_Driver/Inc/stm32l0xx_ll_tim.h ****   */
1290:Drivers/STM32L0xx_HAL_Driver/Inc/stm32l0xx_ll_tim.h **** __STATIC_INLINE void LL_TIM_CC_EnableChannel(TIM_TypeDef *TIMx, uint32_t Channels)
1291:Drivers/STM32L0xx_HAL_Driver/Inc/stm32l0xx_ll_tim.h **** {
1292:Drivers/STM32L0xx_HAL_Driver/Inc/stm32l0xx_ll_tim.h ****   SET_BIT(TIMx->CCER, Channels);
1293:Drivers/STM32L0xx_HAL_Driver/Inc/stm32l0xx_ll_tim.h **** }
1294:Drivers/STM32L0xx_HAL_Driver/Inc/stm32l0xx_ll_tim.h **** 
1295:Drivers/STM32L0xx_HAL_Driver/Inc/stm32l0xx_ll_tim.h **** /**
1296:Drivers/STM32L0xx_HAL_Driver/Inc/stm32l0xx_ll_tim.h ****   * @brief  Disable capture/compare channels.
1297:Drivers/STM32L0xx_HAL_Driver/Inc/stm32l0xx_ll_tim.h ****   * @rmtoll CCER         CC1E          LL_TIM_CC_DisableChannel\n
1298:Drivers/STM32L0xx_HAL_Driver/Inc/stm32l0xx_ll_tim.h ****   *         CCER         CC2E          LL_TIM_CC_DisableChannel\n
1299:Drivers/STM32L0xx_HAL_Driver/Inc/stm32l0xx_ll_tim.h ****   *         CCER         CC3E          LL_TIM_CC_DisableChannel\n
1300:Drivers/STM32L0xx_HAL_Driver/Inc/stm32l0xx_ll_tim.h ****   *         CCER         CC4E          LL_TIM_CC_DisableChannel
1301:Drivers/STM32L0xx_HAL_Driver/Inc/stm32l0xx_ll_tim.h ****   * @param  TIMx Timer instance
1302:Drivers/STM32L0xx_HAL_Driver/Inc/stm32l0xx_ll_tim.h ****   * @param  Channels This parameter can be a combination of the following values:
1303:Drivers/STM32L0xx_HAL_Driver/Inc/stm32l0xx_ll_tim.h ****   *         @arg @ref LL_TIM_CHANNEL_CH1
1304:Drivers/STM32L0xx_HAL_Driver/Inc/stm32l0xx_ll_tim.h ****   *         @arg @ref LL_TIM_CHANNEL_CH2
1305:Drivers/STM32L0xx_HAL_Driver/Inc/stm32l0xx_ll_tim.h ****   *         @arg @ref LL_TIM_CHANNEL_CH3
1306:Drivers/STM32L0xx_HAL_Driver/Inc/stm32l0xx_ll_tim.h ****   *         @arg @ref LL_TIM_CHANNEL_CH4
1307:Drivers/STM32L0xx_HAL_Driver/Inc/stm32l0xx_ll_tim.h ****   * @retval None
1308:Drivers/STM32L0xx_HAL_Driver/Inc/stm32l0xx_ll_tim.h ****   */
1309:Drivers/STM32L0xx_HAL_Driver/Inc/stm32l0xx_ll_tim.h **** __STATIC_INLINE void LL_TIM_CC_DisableChannel(TIM_TypeDef *TIMx, uint32_t Channels)
1310:Drivers/STM32L0xx_HAL_Driver/Inc/stm32l0xx_ll_tim.h **** {
1311:Drivers/STM32L0xx_HAL_Driver/Inc/stm32l0xx_ll_tim.h ****   CLEAR_BIT(TIMx->CCER, Channels);
1312:Drivers/STM32L0xx_HAL_Driver/Inc/stm32l0xx_ll_tim.h **** }
1313:Drivers/STM32L0xx_HAL_Driver/Inc/stm32l0xx_ll_tim.h **** 
1314:Drivers/STM32L0xx_HAL_Driver/Inc/stm32l0xx_ll_tim.h **** /**
1315:Drivers/STM32L0xx_HAL_Driver/Inc/stm32l0xx_ll_tim.h ****   * @brief  Indicate whether channel(s) is(are) enabled.
1316:Drivers/STM32L0xx_HAL_Driver/Inc/stm32l0xx_ll_tim.h ****   * @rmtoll CCER         CC1E          LL_TIM_CC_IsEnabledChannel\n
1317:Drivers/STM32L0xx_HAL_Driver/Inc/stm32l0xx_ll_tim.h ****   *         CCER         CC2E          LL_TIM_CC_IsEnabledChannel\n
1318:Drivers/STM32L0xx_HAL_Driver/Inc/stm32l0xx_ll_tim.h ****   *         CCER         CC3E          LL_TIM_CC_IsEnabledChannel\n
1319:Drivers/STM32L0xx_HAL_Driver/Inc/stm32l0xx_ll_tim.h ****   *         CCER         CC4E          LL_TIM_CC_IsEnabledChannel
1320:Drivers/STM32L0xx_HAL_Driver/Inc/stm32l0xx_ll_tim.h ****   * @param  TIMx Timer instance
1321:Drivers/STM32L0xx_HAL_Driver/Inc/stm32l0xx_ll_tim.h ****   * @param  Channels This parameter can be a combination of the following values:
1322:Drivers/STM32L0xx_HAL_Driver/Inc/stm32l0xx_ll_tim.h ****   *         @arg @ref LL_TIM_CHANNEL_CH1
1323:Drivers/STM32L0xx_HAL_Driver/Inc/stm32l0xx_ll_tim.h ****   *         @arg @ref LL_TIM_CHANNEL_CH2
1324:Drivers/STM32L0xx_HAL_Driver/Inc/stm32l0xx_ll_tim.h ****   *         @arg @ref LL_TIM_CHANNEL_CH3
ARM GAS  /tmp/cckNMhWV.s 			page 35


1325:Drivers/STM32L0xx_HAL_Driver/Inc/stm32l0xx_ll_tim.h ****   *         @arg @ref LL_TIM_CHANNEL_CH4
1326:Drivers/STM32L0xx_HAL_Driver/Inc/stm32l0xx_ll_tim.h ****   * @retval State of bit (1 or 0).
1327:Drivers/STM32L0xx_HAL_Driver/Inc/stm32l0xx_ll_tim.h ****   */
1328:Drivers/STM32L0xx_HAL_Driver/Inc/stm32l0xx_ll_tim.h **** __STATIC_INLINE uint32_t LL_TIM_CC_IsEnabledChannel(TIM_TypeDef *TIMx, uint32_t Channels)
1329:Drivers/STM32L0xx_HAL_Driver/Inc/stm32l0xx_ll_tim.h **** {
1330:Drivers/STM32L0xx_HAL_Driver/Inc/stm32l0xx_ll_tim.h ****   return ((READ_BIT(TIMx->CCER, Channels) == (Channels)) ? 1UL : 0UL);
1331:Drivers/STM32L0xx_HAL_Driver/Inc/stm32l0xx_ll_tim.h **** }
1332:Drivers/STM32L0xx_HAL_Driver/Inc/stm32l0xx_ll_tim.h **** 
1333:Drivers/STM32L0xx_HAL_Driver/Inc/stm32l0xx_ll_tim.h **** /**
1334:Drivers/STM32L0xx_HAL_Driver/Inc/stm32l0xx_ll_tim.h ****   * @}
1335:Drivers/STM32L0xx_HAL_Driver/Inc/stm32l0xx_ll_tim.h ****   */
1336:Drivers/STM32L0xx_HAL_Driver/Inc/stm32l0xx_ll_tim.h **** 
1337:Drivers/STM32L0xx_HAL_Driver/Inc/stm32l0xx_ll_tim.h **** /** @defgroup TIM_LL_EF_Output_Channel Output channel configuration
1338:Drivers/STM32L0xx_HAL_Driver/Inc/stm32l0xx_ll_tim.h ****   * @{
1339:Drivers/STM32L0xx_HAL_Driver/Inc/stm32l0xx_ll_tim.h ****   */
1340:Drivers/STM32L0xx_HAL_Driver/Inc/stm32l0xx_ll_tim.h **** /**
1341:Drivers/STM32L0xx_HAL_Driver/Inc/stm32l0xx_ll_tim.h ****   * @brief  Configure an output channel.
1342:Drivers/STM32L0xx_HAL_Driver/Inc/stm32l0xx_ll_tim.h ****   * @rmtoll CCMR1        CC1S          LL_TIM_OC_ConfigOutput\n
1343:Drivers/STM32L0xx_HAL_Driver/Inc/stm32l0xx_ll_tim.h ****   *         CCMR1        CC2S          LL_TIM_OC_ConfigOutput\n
1344:Drivers/STM32L0xx_HAL_Driver/Inc/stm32l0xx_ll_tim.h ****   *         CCMR2        CC3S          LL_TIM_OC_ConfigOutput\n
1345:Drivers/STM32L0xx_HAL_Driver/Inc/stm32l0xx_ll_tim.h ****   *         CCMR2        CC4S          LL_TIM_OC_ConfigOutput\n
1346:Drivers/STM32L0xx_HAL_Driver/Inc/stm32l0xx_ll_tim.h ****   *         CCER         CC1P          LL_TIM_OC_ConfigOutput\n
1347:Drivers/STM32L0xx_HAL_Driver/Inc/stm32l0xx_ll_tim.h ****   *         CCER         CC2P          LL_TIM_OC_ConfigOutput\n
1348:Drivers/STM32L0xx_HAL_Driver/Inc/stm32l0xx_ll_tim.h ****   *         CCER         CC3P          LL_TIM_OC_ConfigOutput\n
1349:Drivers/STM32L0xx_HAL_Driver/Inc/stm32l0xx_ll_tim.h ****   *         CCER         CC4P          LL_TIM_OC_ConfigOutput\n
1350:Drivers/STM32L0xx_HAL_Driver/Inc/stm32l0xx_ll_tim.h ****   * @param  TIMx Timer instance
1351:Drivers/STM32L0xx_HAL_Driver/Inc/stm32l0xx_ll_tim.h ****   * @param  Channel This parameter can be one of the following values:
1352:Drivers/STM32L0xx_HAL_Driver/Inc/stm32l0xx_ll_tim.h ****   *         @arg @ref LL_TIM_CHANNEL_CH1
1353:Drivers/STM32L0xx_HAL_Driver/Inc/stm32l0xx_ll_tim.h ****   *         @arg @ref LL_TIM_CHANNEL_CH2
1354:Drivers/STM32L0xx_HAL_Driver/Inc/stm32l0xx_ll_tim.h ****   *         @arg @ref LL_TIM_CHANNEL_CH3
1355:Drivers/STM32L0xx_HAL_Driver/Inc/stm32l0xx_ll_tim.h ****   *         @arg @ref LL_TIM_CHANNEL_CH4
1356:Drivers/STM32L0xx_HAL_Driver/Inc/stm32l0xx_ll_tim.h ****   * @param  Configuration This parameter must be a combination of all the following values:
1357:Drivers/STM32L0xx_HAL_Driver/Inc/stm32l0xx_ll_tim.h ****   *         @arg @ref LL_TIM_OCPOLARITY_HIGH or @ref LL_TIM_OCPOLARITY_LOW
1358:Drivers/STM32L0xx_HAL_Driver/Inc/stm32l0xx_ll_tim.h ****   * @retval None
1359:Drivers/STM32L0xx_HAL_Driver/Inc/stm32l0xx_ll_tim.h ****   */
1360:Drivers/STM32L0xx_HAL_Driver/Inc/stm32l0xx_ll_tim.h **** __STATIC_INLINE void LL_TIM_OC_ConfigOutput(TIM_TypeDef *TIMx, uint32_t Channel, uint32_t Configura
1361:Drivers/STM32L0xx_HAL_Driver/Inc/stm32l0xx_ll_tim.h **** {
1362:Drivers/STM32L0xx_HAL_Driver/Inc/stm32l0xx_ll_tim.h ****   uint8_t iChannel = TIM_GET_CHANNEL_INDEX(Channel);
1363:Drivers/STM32L0xx_HAL_Driver/Inc/stm32l0xx_ll_tim.h ****   __IO uint32_t *pReg = (__IO uint32_t *)((uint32_t)((uint32_t)(&TIMx->CCMR1) + OFFSET_TAB_CCMRx[iC
1364:Drivers/STM32L0xx_HAL_Driver/Inc/stm32l0xx_ll_tim.h ****   CLEAR_BIT(*pReg, (TIM_CCMR1_CC1S << SHIFT_TAB_OCxx[iChannel]));
1365:Drivers/STM32L0xx_HAL_Driver/Inc/stm32l0xx_ll_tim.h ****   MODIFY_REG(TIMx->CCER, (TIM_CCER_CC1P << SHIFT_TAB_CCxP[iChannel]),
1366:Drivers/STM32L0xx_HAL_Driver/Inc/stm32l0xx_ll_tim.h ****              (Configuration & TIM_CCER_CC1P) << SHIFT_TAB_CCxP[iChannel]);
1367:Drivers/STM32L0xx_HAL_Driver/Inc/stm32l0xx_ll_tim.h **** }
1368:Drivers/STM32L0xx_HAL_Driver/Inc/stm32l0xx_ll_tim.h **** 
1369:Drivers/STM32L0xx_HAL_Driver/Inc/stm32l0xx_ll_tim.h **** /**
1370:Drivers/STM32L0xx_HAL_Driver/Inc/stm32l0xx_ll_tim.h ****   * @brief  Define the behavior of the output reference signal OCxREF from which
1371:Drivers/STM32L0xx_HAL_Driver/Inc/stm32l0xx_ll_tim.h ****   *         OCx and OCxN (when relevant) are derived.
1372:Drivers/STM32L0xx_HAL_Driver/Inc/stm32l0xx_ll_tim.h ****   * @rmtoll CCMR1        OC1M          LL_TIM_OC_SetMode\n
1373:Drivers/STM32L0xx_HAL_Driver/Inc/stm32l0xx_ll_tim.h ****   *         CCMR1        OC2M          LL_TIM_OC_SetMode\n
1374:Drivers/STM32L0xx_HAL_Driver/Inc/stm32l0xx_ll_tim.h ****   *         CCMR2        OC3M          LL_TIM_OC_SetMode\n
1375:Drivers/STM32L0xx_HAL_Driver/Inc/stm32l0xx_ll_tim.h ****   *         CCMR2        OC4M          LL_TIM_OC_SetMode
1376:Drivers/STM32L0xx_HAL_Driver/Inc/stm32l0xx_ll_tim.h ****   * @param  TIMx Timer instance
1377:Drivers/STM32L0xx_HAL_Driver/Inc/stm32l0xx_ll_tim.h ****   * @param  Channel This parameter can be one of the following values:
1378:Drivers/STM32L0xx_HAL_Driver/Inc/stm32l0xx_ll_tim.h ****   *         @arg @ref LL_TIM_CHANNEL_CH1
1379:Drivers/STM32L0xx_HAL_Driver/Inc/stm32l0xx_ll_tim.h ****   *         @arg @ref LL_TIM_CHANNEL_CH2
1380:Drivers/STM32L0xx_HAL_Driver/Inc/stm32l0xx_ll_tim.h ****   *         @arg @ref LL_TIM_CHANNEL_CH3
1381:Drivers/STM32L0xx_HAL_Driver/Inc/stm32l0xx_ll_tim.h ****   *         @arg @ref LL_TIM_CHANNEL_CH4
ARM GAS  /tmp/cckNMhWV.s 			page 36


1382:Drivers/STM32L0xx_HAL_Driver/Inc/stm32l0xx_ll_tim.h ****   * @param  Mode This parameter can be one of the following values:
1383:Drivers/STM32L0xx_HAL_Driver/Inc/stm32l0xx_ll_tim.h ****   *         @arg @ref LL_TIM_OCMODE_FROZEN
1384:Drivers/STM32L0xx_HAL_Driver/Inc/stm32l0xx_ll_tim.h ****   *         @arg @ref LL_TIM_OCMODE_ACTIVE
1385:Drivers/STM32L0xx_HAL_Driver/Inc/stm32l0xx_ll_tim.h ****   *         @arg @ref LL_TIM_OCMODE_INACTIVE
1386:Drivers/STM32L0xx_HAL_Driver/Inc/stm32l0xx_ll_tim.h ****   *         @arg @ref LL_TIM_OCMODE_TOGGLE
1387:Drivers/STM32L0xx_HAL_Driver/Inc/stm32l0xx_ll_tim.h ****   *         @arg @ref LL_TIM_OCMODE_FORCED_INACTIVE
1388:Drivers/STM32L0xx_HAL_Driver/Inc/stm32l0xx_ll_tim.h ****   *         @arg @ref LL_TIM_OCMODE_FORCED_ACTIVE
1389:Drivers/STM32L0xx_HAL_Driver/Inc/stm32l0xx_ll_tim.h ****   *         @arg @ref LL_TIM_OCMODE_PWM1
1390:Drivers/STM32L0xx_HAL_Driver/Inc/stm32l0xx_ll_tim.h ****   *         @arg @ref LL_TIM_OCMODE_PWM2
1391:Drivers/STM32L0xx_HAL_Driver/Inc/stm32l0xx_ll_tim.h ****   * @retval None
1392:Drivers/STM32L0xx_HAL_Driver/Inc/stm32l0xx_ll_tim.h ****   */
1393:Drivers/STM32L0xx_HAL_Driver/Inc/stm32l0xx_ll_tim.h **** __STATIC_INLINE void LL_TIM_OC_SetMode(TIM_TypeDef *TIMx, uint32_t Channel, uint32_t Mode)
1394:Drivers/STM32L0xx_HAL_Driver/Inc/stm32l0xx_ll_tim.h **** {
1395:Drivers/STM32L0xx_HAL_Driver/Inc/stm32l0xx_ll_tim.h ****   uint8_t iChannel = TIM_GET_CHANNEL_INDEX(Channel);
1396:Drivers/STM32L0xx_HAL_Driver/Inc/stm32l0xx_ll_tim.h ****   __IO uint32_t *pReg = (__IO uint32_t *)((uint32_t)((uint32_t)(&TIMx->CCMR1) + OFFSET_TAB_CCMRx[iC
1397:Drivers/STM32L0xx_HAL_Driver/Inc/stm32l0xx_ll_tim.h ****   MODIFY_REG(*pReg, ((TIM_CCMR1_OC1M  | TIM_CCMR1_CC1S) << SHIFT_TAB_OCxx[iChannel]), Mode << SHIFT
1398:Drivers/STM32L0xx_HAL_Driver/Inc/stm32l0xx_ll_tim.h **** }
1399:Drivers/STM32L0xx_HAL_Driver/Inc/stm32l0xx_ll_tim.h **** 
1400:Drivers/STM32L0xx_HAL_Driver/Inc/stm32l0xx_ll_tim.h **** /**
1401:Drivers/STM32L0xx_HAL_Driver/Inc/stm32l0xx_ll_tim.h ****   * @brief  Get the output compare mode of an output channel.
1402:Drivers/STM32L0xx_HAL_Driver/Inc/stm32l0xx_ll_tim.h ****   * @rmtoll CCMR1        OC1M          LL_TIM_OC_GetMode\n
1403:Drivers/STM32L0xx_HAL_Driver/Inc/stm32l0xx_ll_tim.h ****   *         CCMR1        OC2M          LL_TIM_OC_GetMode\n
1404:Drivers/STM32L0xx_HAL_Driver/Inc/stm32l0xx_ll_tim.h ****   *         CCMR2        OC3M          LL_TIM_OC_GetMode\n
1405:Drivers/STM32L0xx_HAL_Driver/Inc/stm32l0xx_ll_tim.h ****   *         CCMR2        OC4M          LL_TIM_OC_GetMode
1406:Drivers/STM32L0xx_HAL_Driver/Inc/stm32l0xx_ll_tim.h ****   * @param  TIMx Timer instance
1407:Drivers/STM32L0xx_HAL_Driver/Inc/stm32l0xx_ll_tim.h ****   * @param  Channel This parameter can be one of the following values:
1408:Drivers/STM32L0xx_HAL_Driver/Inc/stm32l0xx_ll_tim.h ****   *         @arg @ref LL_TIM_CHANNEL_CH1
1409:Drivers/STM32L0xx_HAL_Driver/Inc/stm32l0xx_ll_tim.h ****   *         @arg @ref LL_TIM_CHANNEL_CH2
1410:Drivers/STM32L0xx_HAL_Driver/Inc/stm32l0xx_ll_tim.h ****   *         @arg @ref LL_TIM_CHANNEL_CH3
1411:Drivers/STM32L0xx_HAL_Driver/Inc/stm32l0xx_ll_tim.h ****   *         @arg @ref LL_TIM_CHANNEL_CH4
1412:Drivers/STM32L0xx_HAL_Driver/Inc/stm32l0xx_ll_tim.h ****   * @retval Returned value can be one of the following values:
1413:Drivers/STM32L0xx_HAL_Driver/Inc/stm32l0xx_ll_tim.h ****   *         @arg @ref LL_TIM_OCMODE_FROZEN
1414:Drivers/STM32L0xx_HAL_Driver/Inc/stm32l0xx_ll_tim.h ****   *         @arg @ref LL_TIM_OCMODE_ACTIVE
1415:Drivers/STM32L0xx_HAL_Driver/Inc/stm32l0xx_ll_tim.h ****   *         @arg @ref LL_TIM_OCMODE_INACTIVE
1416:Drivers/STM32L0xx_HAL_Driver/Inc/stm32l0xx_ll_tim.h ****   *         @arg @ref LL_TIM_OCMODE_TOGGLE
1417:Drivers/STM32L0xx_HAL_Driver/Inc/stm32l0xx_ll_tim.h ****   *         @arg @ref LL_TIM_OCMODE_FORCED_INACTIVE
1418:Drivers/STM32L0xx_HAL_Driver/Inc/stm32l0xx_ll_tim.h ****   *         @arg @ref LL_TIM_OCMODE_FORCED_ACTIVE
1419:Drivers/STM32L0xx_HAL_Driver/Inc/stm32l0xx_ll_tim.h ****   *         @arg @ref LL_TIM_OCMODE_PWM1
1420:Drivers/STM32L0xx_HAL_Driver/Inc/stm32l0xx_ll_tim.h ****   *         @arg @ref LL_TIM_OCMODE_PWM2
1421:Drivers/STM32L0xx_HAL_Driver/Inc/stm32l0xx_ll_tim.h ****   */
1422:Drivers/STM32L0xx_HAL_Driver/Inc/stm32l0xx_ll_tim.h **** __STATIC_INLINE uint32_t LL_TIM_OC_GetMode(TIM_TypeDef *TIMx, uint32_t Channel)
1423:Drivers/STM32L0xx_HAL_Driver/Inc/stm32l0xx_ll_tim.h **** {
1424:Drivers/STM32L0xx_HAL_Driver/Inc/stm32l0xx_ll_tim.h ****   uint8_t iChannel = TIM_GET_CHANNEL_INDEX(Channel);
1425:Drivers/STM32L0xx_HAL_Driver/Inc/stm32l0xx_ll_tim.h ****   const __IO uint32_t *pReg = (__IO uint32_t *)((uint32_t)((uint32_t)(&TIMx->CCMR1) + OFFSET_TAB_CC
1426:Drivers/STM32L0xx_HAL_Driver/Inc/stm32l0xx_ll_tim.h ****   return (READ_BIT(*pReg, ((TIM_CCMR1_OC1M | TIM_CCMR1_CC1S) << SHIFT_TAB_OCxx[iChannel])) >> SHIFT
1427:Drivers/STM32L0xx_HAL_Driver/Inc/stm32l0xx_ll_tim.h **** }
1428:Drivers/STM32L0xx_HAL_Driver/Inc/stm32l0xx_ll_tim.h **** 
1429:Drivers/STM32L0xx_HAL_Driver/Inc/stm32l0xx_ll_tim.h **** /**
1430:Drivers/STM32L0xx_HAL_Driver/Inc/stm32l0xx_ll_tim.h ****   * @brief  Set the polarity of an output channel.
1431:Drivers/STM32L0xx_HAL_Driver/Inc/stm32l0xx_ll_tim.h ****   * @rmtoll CCER         CC1P          LL_TIM_OC_SetPolarity\n
1432:Drivers/STM32L0xx_HAL_Driver/Inc/stm32l0xx_ll_tim.h ****   *         CCER         CC2P          LL_TIM_OC_SetPolarity\n
1433:Drivers/STM32L0xx_HAL_Driver/Inc/stm32l0xx_ll_tim.h ****   *         CCER         CC3P          LL_TIM_OC_SetPolarity\n
1434:Drivers/STM32L0xx_HAL_Driver/Inc/stm32l0xx_ll_tim.h ****   *         CCER         CC4P          LL_TIM_OC_SetPolarity
1435:Drivers/STM32L0xx_HAL_Driver/Inc/stm32l0xx_ll_tim.h ****   * @param  TIMx Timer instance
1436:Drivers/STM32L0xx_HAL_Driver/Inc/stm32l0xx_ll_tim.h ****   * @param  Channel This parameter can be one of the following values:
1437:Drivers/STM32L0xx_HAL_Driver/Inc/stm32l0xx_ll_tim.h ****   *         @arg @ref LL_TIM_CHANNEL_CH1
1438:Drivers/STM32L0xx_HAL_Driver/Inc/stm32l0xx_ll_tim.h ****   *         @arg @ref LL_TIM_CHANNEL_CH2
ARM GAS  /tmp/cckNMhWV.s 			page 37


1439:Drivers/STM32L0xx_HAL_Driver/Inc/stm32l0xx_ll_tim.h ****   *         @arg @ref LL_TIM_CHANNEL_CH3
1440:Drivers/STM32L0xx_HAL_Driver/Inc/stm32l0xx_ll_tim.h ****   *         @arg @ref LL_TIM_CHANNEL_CH4
1441:Drivers/STM32L0xx_HAL_Driver/Inc/stm32l0xx_ll_tim.h ****   * @param  Polarity This parameter can be one of the following values:
1442:Drivers/STM32L0xx_HAL_Driver/Inc/stm32l0xx_ll_tim.h ****   *         @arg @ref LL_TIM_OCPOLARITY_HIGH
1443:Drivers/STM32L0xx_HAL_Driver/Inc/stm32l0xx_ll_tim.h ****   *         @arg @ref LL_TIM_OCPOLARITY_LOW
1444:Drivers/STM32L0xx_HAL_Driver/Inc/stm32l0xx_ll_tim.h ****   * @retval None
1445:Drivers/STM32L0xx_HAL_Driver/Inc/stm32l0xx_ll_tim.h ****   */
1446:Drivers/STM32L0xx_HAL_Driver/Inc/stm32l0xx_ll_tim.h **** __STATIC_INLINE void LL_TIM_OC_SetPolarity(TIM_TypeDef *TIMx, uint32_t Channel, uint32_t Polarity)
1447:Drivers/STM32L0xx_HAL_Driver/Inc/stm32l0xx_ll_tim.h **** {
1448:Drivers/STM32L0xx_HAL_Driver/Inc/stm32l0xx_ll_tim.h ****   uint8_t iChannel = TIM_GET_CHANNEL_INDEX(Channel);
1449:Drivers/STM32L0xx_HAL_Driver/Inc/stm32l0xx_ll_tim.h ****   MODIFY_REG(TIMx->CCER, (TIM_CCER_CC1P << SHIFT_TAB_CCxP[iChannel]),  Polarity << SHIFT_TAB_CCxP[i
1450:Drivers/STM32L0xx_HAL_Driver/Inc/stm32l0xx_ll_tim.h **** }
1451:Drivers/STM32L0xx_HAL_Driver/Inc/stm32l0xx_ll_tim.h **** 
1452:Drivers/STM32L0xx_HAL_Driver/Inc/stm32l0xx_ll_tim.h **** /**
1453:Drivers/STM32L0xx_HAL_Driver/Inc/stm32l0xx_ll_tim.h ****   * @brief  Get the polarity of an output channel.
1454:Drivers/STM32L0xx_HAL_Driver/Inc/stm32l0xx_ll_tim.h ****   * @rmtoll CCER         CC1P          LL_TIM_OC_GetPolarity\n
1455:Drivers/STM32L0xx_HAL_Driver/Inc/stm32l0xx_ll_tim.h ****   *         CCER         CC2P          LL_TIM_OC_GetPolarity\n
1456:Drivers/STM32L0xx_HAL_Driver/Inc/stm32l0xx_ll_tim.h ****   *         CCER         CC3P          LL_TIM_OC_GetPolarity\n
1457:Drivers/STM32L0xx_HAL_Driver/Inc/stm32l0xx_ll_tim.h ****   *         CCER         CC4P          LL_TIM_OC_GetPolarity
1458:Drivers/STM32L0xx_HAL_Driver/Inc/stm32l0xx_ll_tim.h ****   * @param  TIMx Timer instance
1459:Drivers/STM32L0xx_HAL_Driver/Inc/stm32l0xx_ll_tim.h ****   * @param  Channel This parameter can be one of the following values:
1460:Drivers/STM32L0xx_HAL_Driver/Inc/stm32l0xx_ll_tim.h ****   *         @arg @ref LL_TIM_CHANNEL_CH1
1461:Drivers/STM32L0xx_HAL_Driver/Inc/stm32l0xx_ll_tim.h ****   *         @arg @ref LL_TIM_CHANNEL_CH2
1462:Drivers/STM32L0xx_HAL_Driver/Inc/stm32l0xx_ll_tim.h ****   *         @arg @ref LL_TIM_CHANNEL_CH3
1463:Drivers/STM32L0xx_HAL_Driver/Inc/stm32l0xx_ll_tim.h ****   *         @arg @ref LL_TIM_CHANNEL_CH4
1464:Drivers/STM32L0xx_HAL_Driver/Inc/stm32l0xx_ll_tim.h ****   * @retval Returned value can be one of the following values:
1465:Drivers/STM32L0xx_HAL_Driver/Inc/stm32l0xx_ll_tim.h ****   *         @arg @ref LL_TIM_OCPOLARITY_HIGH
1466:Drivers/STM32L0xx_HAL_Driver/Inc/stm32l0xx_ll_tim.h ****   *         @arg @ref LL_TIM_OCPOLARITY_LOW
1467:Drivers/STM32L0xx_HAL_Driver/Inc/stm32l0xx_ll_tim.h ****   */
1468:Drivers/STM32L0xx_HAL_Driver/Inc/stm32l0xx_ll_tim.h **** __STATIC_INLINE uint32_t LL_TIM_OC_GetPolarity(TIM_TypeDef *TIMx, uint32_t Channel)
1469:Drivers/STM32L0xx_HAL_Driver/Inc/stm32l0xx_ll_tim.h **** {
1470:Drivers/STM32L0xx_HAL_Driver/Inc/stm32l0xx_ll_tim.h ****   uint8_t iChannel = TIM_GET_CHANNEL_INDEX(Channel);
1471:Drivers/STM32L0xx_HAL_Driver/Inc/stm32l0xx_ll_tim.h ****   return (READ_BIT(TIMx->CCER, (TIM_CCER_CC1P << SHIFT_TAB_CCxP[iChannel])) >> SHIFT_TAB_CCxP[iChan
1472:Drivers/STM32L0xx_HAL_Driver/Inc/stm32l0xx_ll_tim.h **** }
1473:Drivers/STM32L0xx_HAL_Driver/Inc/stm32l0xx_ll_tim.h **** 
1474:Drivers/STM32L0xx_HAL_Driver/Inc/stm32l0xx_ll_tim.h **** /**
1475:Drivers/STM32L0xx_HAL_Driver/Inc/stm32l0xx_ll_tim.h ****   * @brief  Enable fast mode for the output channel.
1476:Drivers/STM32L0xx_HAL_Driver/Inc/stm32l0xx_ll_tim.h ****   * @note Acts only if the channel is configured in PWM1 or PWM2 mode.
1477:Drivers/STM32L0xx_HAL_Driver/Inc/stm32l0xx_ll_tim.h ****   * @rmtoll CCMR1        OC1FE          LL_TIM_OC_EnableFast\n
1478:Drivers/STM32L0xx_HAL_Driver/Inc/stm32l0xx_ll_tim.h ****   *         CCMR1        OC2FE          LL_TIM_OC_EnableFast\n
1479:Drivers/STM32L0xx_HAL_Driver/Inc/stm32l0xx_ll_tim.h ****   *         CCMR2        OC3FE          LL_TIM_OC_EnableFast\n
1480:Drivers/STM32L0xx_HAL_Driver/Inc/stm32l0xx_ll_tim.h ****   *         CCMR2        OC4FE          LL_TIM_OC_EnableFast
1481:Drivers/STM32L0xx_HAL_Driver/Inc/stm32l0xx_ll_tim.h ****   * @param  TIMx Timer instance
1482:Drivers/STM32L0xx_HAL_Driver/Inc/stm32l0xx_ll_tim.h ****   * @param  Channel This parameter can be one of the following values:
1483:Drivers/STM32L0xx_HAL_Driver/Inc/stm32l0xx_ll_tim.h ****   *         @arg @ref LL_TIM_CHANNEL_CH1
1484:Drivers/STM32L0xx_HAL_Driver/Inc/stm32l0xx_ll_tim.h ****   *         @arg @ref LL_TIM_CHANNEL_CH2
1485:Drivers/STM32L0xx_HAL_Driver/Inc/stm32l0xx_ll_tim.h ****   *         @arg @ref LL_TIM_CHANNEL_CH3
1486:Drivers/STM32L0xx_HAL_Driver/Inc/stm32l0xx_ll_tim.h ****   *         @arg @ref LL_TIM_CHANNEL_CH4
1487:Drivers/STM32L0xx_HAL_Driver/Inc/stm32l0xx_ll_tim.h ****   * @retval None
1488:Drivers/STM32L0xx_HAL_Driver/Inc/stm32l0xx_ll_tim.h ****   */
1489:Drivers/STM32L0xx_HAL_Driver/Inc/stm32l0xx_ll_tim.h **** __STATIC_INLINE void LL_TIM_OC_EnableFast(TIM_TypeDef *TIMx, uint32_t Channel)
1490:Drivers/STM32L0xx_HAL_Driver/Inc/stm32l0xx_ll_tim.h **** {
1491:Drivers/STM32L0xx_HAL_Driver/Inc/stm32l0xx_ll_tim.h ****   uint8_t iChannel = TIM_GET_CHANNEL_INDEX(Channel);
1492:Drivers/STM32L0xx_HAL_Driver/Inc/stm32l0xx_ll_tim.h ****   __IO uint32_t *pReg = (__IO uint32_t *)((uint32_t)((uint32_t)(&TIMx->CCMR1) + OFFSET_TAB_CCMRx[iC
1493:Drivers/STM32L0xx_HAL_Driver/Inc/stm32l0xx_ll_tim.h ****   SET_BIT(*pReg, (TIM_CCMR1_OC1FE << SHIFT_TAB_OCxx[iChannel]));
1494:Drivers/STM32L0xx_HAL_Driver/Inc/stm32l0xx_ll_tim.h **** 
1495:Drivers/STM32L0xx_HAL_Driver/Inc/stm32l0xx_ll_tim.h **** }
ARM GAS  /tmp/cckNMhWV.s 			page 38


1496:Drivers/STM32L0xx_HAL_Driver/Inc/stm32l0xx_ll_tim.h **** 
1497:Drivers/STM32L0xx_HAL_Driver/Inc/stm32l0xx_ll_tim.h **** /**
1498:Drivers/STM32L0xx_HAL_Driver/Inc/stm32l0xx_ll_tim.h ****   * @brief  Disable fast mode for the output channel.
1499:Drivers/STM32L0xx_HAL_Driver/Inc/stm32l0xx_ll_tim.h ****   * @rmtoll CCMR1        OC1FE          LL_TIM_OC_DisableFast\n
1500:Drivers/STM32L0xx_HAL_Driver/Inc/stm32l0xx_ll_tim.h ****   *         CCMR1        OC2FE          LL_TIM_OC_DisableFast\n
1501:Drivers/STM32L0xx_HAL_Driver/Inc/stm32l0xx_ll_tim.h ****   *         CCMR2        OC3FE          LL_TIM_OC_DisableFast\n
1502:Drivers/STM32L0xx_HAL_Driver/Inc/stm32l0xx_ll_tim.h ****   *         CCMR2        OC4FE          LL_TIM_OC_DisableFast
1503:Drivers/STM32L0xx_HAL_Driver/Inc/stm32l0xx_ll_tim.h ****   * @param  TIMx Timer instance
1504:Drivers/STM32L0xx_HAL_Driver/Inc/stm32l0xx_ll_tim.h ****   * @param  Channel This parameter can be one of the following values:
1505:Drivers/STM32L0xx_HAL_Driver/Inc/stm32l0xx_ll_tim.h ****   *         @arg @ref LL_TIM_CHANNEL_CH1
1506:Drivers/STM32L0xx_HAL_Driver/Inc/stm32l0xx_ll_tim.h ****   *         @arg @ref LL_TIM_CHANNEL_CH2
1507:Drivers/STM32L0xx_HAL_Driver/Inc/stm32l0xx_ll_tim.h ****   *         @arg @ref LL_TIM_CHANNEL_CH3
1508:Drivers/STM32L0xx_HAL_Driver/Inc/stm32l0xx_ll_tim.h ****   *         @arg @ref LL_TIM_CHANNEL_CH4
1509:Drivers/STM32L0xx_HAL_Driver/Inc/stm32l0xx_ll_tim.h ****   * @retval None
1510:Drivers/STM32L0xx_HAL_Driver/Inc/stm32l0xx_ll_tim.h ****   */
1511:Drivers/STM32L0xx_HAL_Driver/Inc/stm32l0xx_ll_tim.h **** __STATIC_INLINE void LL_TIM_OC_DisableFast(TIM_TypeDef *TIMx, uint32_t Channel)
1512:Drivers/STM32L0xx_HAL_Driver/Inc/stm32l0xx_ll_tim.h **** {
1513:Drivers/STM32L0xx_HAL_Driver/Inc/stm32l0xx_ll_tim.h ****   uint8_t iChannel = TIM_GET_CHANNEL_INDEX(Channel);
1514:Drivers/STM32L0xx_HAL_Driver/Inc/stm32l0xx_ll_tim.h ****   __IO uint32_t *pReg = (__IO uint32_t *)((uint32_t)((uint32_t)(&TIMx->CCMR1) + OFFSET_TAB_CCMRx[iC
1515:Drivers/STM32L0xx_HAL_Driver/Inc/stm32l0xx_ll_tim.h ****   CLEAR_BIT(*pReg, (TIM_CCMR1_OC1FE << SHIFT_TAB_OCxx[iChannel]));
1516:Drivers/STM32L0xx_HAL_Driver/Inc/stm32l0xx_ll_tim.h **** 
1517:Drivers/STM32L0xx_HAL_Driver/Inc/stm32l0xx_ll_tim.h **** }
1518:Drivers/STM32L0xx_HAL_Driver/Inc/stm32l0xx_ll_tim.h **** 
1519:Drivers/STM32L0xx_HAL_Driver/Inc/stm32l0xx_ll_tim.h **** /**
1520:Drivers/STM32L0xx_HAL_Driver/Inc/stm32l0xx_ll_tim.h ****   * @brief  Indicates whether fast mode is enabled for the output channel.
1521:Drivers/STM32L0xx_HAL_Driver/Inc/stm32l0xx_ll_tim.h ****   * @rmtoll CCMR1        OC1FE          LL_TIM_OC_IsEnabledFast\n
1522:Drivers/STM32L0xx_HAL_Driver/Inc/stm32l0xx_ll_tim.h ****   *         CCMR1        OC2FE          LL_TIM_OC_IsEnabledFast\n
1523:Drivers/STM32L0xx_HAL_Driver/Inc/stm32l0xx_ll_tim.h ****   *         CCMR2        OC3FE          LL_TIM_OC_IsEnabledFast\n
1524:Drivers/STM32L0xx_HAL_Driver/Inc/stm32l0xx_ll_tim.h ****   *         CCMR2        OC4FE          LL_TIM_OC_IsEnabledFast\n
1525:Drivers/STM32L0xx_HAL_Driver/Inc/stm32l0xx_ll_tim.h ****   * @param  TIMx Timer instance
1526:Drivers/STM32L0xx_HAL_Driver/Inc/stm32l0xx_ll_tim.h ****   * @param  Channel This parameter can be one of the following values:
1527:Drivers/STM32L0xx_HAL_Driver/Inc/stm32l0xx_ll_tim.h ****   *         @arg @ref LL_TIM_CHANNEL_CH1
1528:Drivers/STM32L0xx_HAL_Driver/Inc/stm32l0xx_ll_tim.h ****   *         @arg @ref LL_TIM_CHANNEL_CH2
1529:Drivers/STM32L0xx_HAL_Driver/Inc/stm32l0xx_ll_tim.h ****   *         @arg @ref LL_TIM_CHANNEL_CH3
1530:Drivers/STM32L0xx_HAL_Driver/Inc/stm32l0xx_ll_tim.h ****   *         @arg @ref LL_TIM_CHANNEL_CH4
1531:Drivers/STM32L0xx_HAL_Driver/Inc/stm32l0xx_ll_tim.h ****   * @retval State of bit (1 or 0).
1532:Drivers/STM32L0xx_HAL_Driver/Inc/stm32l0xx_ll_tim.h ****   */
1533:Drivers/STM32L0xx_HAL_Driver/Inc/stm32l0xx_ll_tim.h **** __STATIC_INLINE uint32_t LL_TIM_OC_IsEnabledFast(TIM_TypeDef *TIMx, uint32_t Channel)
1534:Drivers/STM32L0xx_HAL_Driver/Inc/stm32l0xx_ll_tim.h **** {
1535:Drivers/STM32L0xx_HAL_Driver/Inc/stm32l0xx_ll_tim.h ****   uint8_t iChannel = TIM_GET_CHANNEL_INDEX(Channel);
1536:Drivers/STM32L0xx_HAL_Driver/Inc/stm32l0xx_ll_tim.h ****   const __IO uint32_t *pReg = (__IO uint32_t *)((uint32_t)((uint32_t)(&TIMx->CCMR1) + OFFSET_TAB_CC
1537:Drivers/STM32L0xx_HAL_Driver/Inc/stm32l0xx_ll_tim.h ****   uint32_t bitfield = TIM_CCMR1_OC1FE << SHIFT_TAB_OCxx[iChannel];
1538:Drivers/STM32L0xx_HAL_Driver/Inc/stm32l0xx_ll_tim.h ****   return ((READ_BIT(*pReg, bitfield) == bitfield) ? 1UL : 0UL);
1539:Drivers/STM32L0xx_HAL_Driver/Inc/stm32l0xx_ll_tim.h **** }
1540:Drivers/STM32L0xx_HAL_Driver/Inc/stm32l0xx_ll_tim.h **** 
1541:Drivers/STM32L0xx_HAL_Driver/Inc/stm32l0xx_ll_tim.h **** /**
1542:Drivers/STM32L0xx_HAL_Driver/Inc/stm32l0xx_ll_tim.h ****   * @brief  Enable compare register (TIMx_CCRx) preload for the output channel.
1543:Drivers/STM32L0xx_HAL_Driver/Inc/stm32l0xx_ll_tim.h ****   * @rmtoll CCMR1        OC1PE          LL_TIM_OC_EnablePreload\n
1544:Drivers/STM32L0xx_HAL_Driver/Inc/stm32l0xx_ll_tim.h ****   *         CCMR1        OC2PE          LL_TIM_OC_EnablePreload\n
1545:Drivers/STM32L0xx_HAL_Driver/Inc/stm32l0xx_ll_tim.h ****   *         CCMR2        OC3PE          LL_TIM_OC_EnablePreload\n
1546:Drivers/STM32L0xx_HAL_Driver/Inc/stm32l0xx_ll_tim.h ****   *         CCMR2        OC4PE          LL_TIM_OC_EnablePreload
1547:Drivers/STM32L0xx_HAL_Driver/Inc/stm32l0xx_ll_tim.h ****   * @param  TIMx Timer instance
1548:Drivers/STM32L0xx_HAL_Driver/Inc/stm32l0xx_ll_tim.h ****   * @param  Channel This parameter can be one of the following values:
1549:Drivers/STM32L0xx_HAL_Driver/Inc/stm32l0xx_ll_tim.h ****   *         @arg @ref LL_TIM_CHANNEL_CH1
1550:Drivers/STM32L0xx_HAL_Driver/Inc/stm32l0xx_ll_tim.h ****   *         @arg @ref LL_TIM_CHANNEL_CH2
1551:Drivers/STM32L0xx_HAL_Driver/Inc/stm32l0xx_ll_tim.h ****   *         @arg @ref LL_TIM_CHANNEL_CH3
1552:Drivers/STM32L0xx_HAL_Driver/Inc/stm32l0xx_ll_tim.h ****   *         @arg @ref LL_TIM_CHANNEL_CH4
ARM GAS  /tmp/cckNMhWV.s 			page 39


1553:Drivers/STM32L0xx_HAL_Driver/Inc/stm32l0xx_ll_tim.h ****   * @retval None
1554:Drivers/STM32L0xx_HAL_Driver/Inc/stm32l0xx_ll_tim.h ****   */
1555:Drivers/STM32L0xx_HAL_Driver/Inc/stm32l0xx_ll_tim.h **** __STATIC_INLINE void LL_TIM_OC_EnablePreload(TIM_TypeDef *TIMx, uint32_t Channel)
1556:Drivers/STM32L0xx_HAL_Driver/Inc/stm32l0xx_ll_tim.h **** {
1557:Drivers/STM32L0xx_HAL_Driver/Inc/stm32l0xx_ll_tim.h ****   uint8_t iChannel = TIM_GET_CHANNEL_INDEX(Channel);
1558:Drivers/STM32L0xx_HAL_Driver/Inc/stm32l0xx_ll_tim.h ****   __IO uint32_t *pReg = (__IO uint32_t *)((uint32_t)((uint32_t)(&TIMx->CCMR1) + OFFSET_TAB_CCMRx[iC
1559:Drivers/STM32L0xx_HAL_Driver/Inc/stm32l0xx_ll_tim.h ****   SET_BIT(*pReg, (TIM_CCMR1_OC1PE << SHIFT_TAB_OCxx[iChannel]));
1560:Drivers/STM32L0xx_HAL_Driver/Inc/stm32l0xx_ll_tim.h **** }
1561:Drivers/STM32L0xx_HAL_Driver/Inc/stm32l0xx_ll_tim.h **** 
1562:Drivers/STM32L0xx_HAL_Driver/Inc/stm32l0xx_ll_tim.h **** /**
1563:Drivers/STM32L0xx_HAL_Driver/Inc/stm32l0xx_ll_tim.h ****   * @brief  Disable compare register (TIMx_CCRx) preload for the output channel.
1564:Drivers/STM32L0xx_HAL_Driver/Inc/stm32l0xx_ll_tim.h ****   * @rmtoll CCMR1        OC1PE          LL_TIM_OC_DisablePreload\n
1565:Drivers/STM32L0xx_HAL_Driver/Inc/stm32l0xx_ll_tim.h ****   *         CCMR1        OC2PE          LL_TIM_OC_DisablePreload\n
1566:Drivers/STM32L0xx_HAL_Driver/Inc/stm32l0xx_ll_tim.h ****   *         CCMR2        OC3PE          LL_TIM_OC_DisablePreload\n
1567:Drivers/STM32L0xx_HAL_Driver/Inc/stm32l0xx_ll_tim.h ****   *         CCMR2        OC4PE          LL_TIM_OC_DisablePreload
1568:Drivers/STM32L0xx_HAL_Driver/Inc/stm32l0xx_ll_tim.h ****   * @param  TIMx Timer instance
1569:Drivers/STM32L0xx_HAL_Driver/Inc/stm32l0xx_ll_tim.h ****   * @param  Channel This parameter can be one of the following values:
1570:Drivers/STM32L0xx_HAL_Driver/Inc/stm32l0xx_ll_tim.h ****   *         @arg @ref LL_TIM_CHANNEL_CH1
1571:Drivers/STM32L0xx_HAL_Driver/Inc/stm32l0xx_ll_tim.h ****   *         @arg @ref LL_TIM_CHANNEL_CH2
1572:Drivers/STM32L0xx_HAL_Driver/Inc/stm32l0xx_ll_tim.h ****   *         @arg @ref LL_TIM_CHANNEL_CH3
1573:Drivers/STM32L0xx_HAL_Driver/Inc/stm32l0xx_ll_tim.h ****   *         @arg @ref LL_TIM_CHANNEL_CH4
1574:Drivers/STM32L0xx_HAL_Driver/Inc/stm32l0xx_ll_tim.h ****   * @retval None
1575:Drivers/STM32L0xx_HAL_Driver/Inc/stm32l0xx_ll_tim.h ****   */
1576:Drivers/STM32L0xx_HAL_Driver/Inc/stm32l0xx_ll_tim.h **** __STATIC_INLINE void LL_TIM_OC_DisablePreload(TIM_TypeDef *TIMx, uint32_t Channel)
1577:Drivers/STM32L0xx_HAL_Driver/Inc/stm32l0xx_ll_tim.h **** {
1578:Drivers/STM32L0xx_HAL_Driver/Inc/stm32l0xx_ll_tim.h ****   uint8_t iChannel = TIM_GET_CHANNEL_INDEX(Channel);
1579:Drivers/STM32L0xx_HAL_Driver/Inc/stm32l0xx_ll_tim.h ****   __IO uint32_t *pReg = (__IO uint32_t *)((uint32_t)((uint32_t)(&TIMx->CCMR1) + OFFSET_TAB_CCMRx[iC
1580:Drivers/STM32L0xx_HAL_Driver/Inc/stm32l0xx_ll_tim.h ****   CLEAR_BIT(*pReg, (TIM_CCMR1_OC1PE << SHIFT_TAB_OCxx[iChannel]));
1581:Drivers/STM32L0xx_HAL_Driver/Inc/stm32l0xx_ll_tim.h **** }
1582:Drivers/STM32L0xx_HAL_Driver/Inc/stm32l0xx_ll_tim.h **** 
1583:Drivers/STM32L0xx_HAL_Driver/Inc/stm32l0xx_ll_tim.h **** /**
1584:Drivers/STM32L0xx_HAL_Driver/Inc/stm32l0xx_ll_tim.h ****   * @brief  Indicates whether compare register (TIMx_CCRx) preload is enabled for the output channe
1585:Drivers/STM32L0xx_HAL_Driver/Inc/stm32l0xx_ll_tim.h ****   * @rmtoll CCMR1        OC1PE          LL_TIM_OC_IsEnabledPreload\n
1586:Drivers/STM32L0xx_HAL_Driver/Inc/stm32l0xx_ll_tim.h ****   *         CCMR1        OC2PE          LL_TIM_OC_IsEnabledPreload\n
1587:Drivers/STM32L0xx_HAL_Driver/Inc/stm32l0xx_ll_tim.h ****   *         CCMR2        OC3PE          LL_TIM_OC_IsEnabledPreload\n
1588:Drivers/STM32L0xx_HAL_Driver/Inc/stm32l0xx_ll_tim.h ****   *         CCMR2        OC4PE          LL_TIM_OC_IsEnabledPreload\n
1589:Drivers/STM32L0xx_HAL_Driver/Inc/stm32l0xx_ll_tim.h ****   * @param  TIMx Timer instance
1590:Drivers/STM32L0xx_HAL_Driver/Inc/stm32l0xx_ll_tim.h ****   * @param  Channel This parameter can be one of the following values:
1591:Drivers/STM32L0xx_HAL_Driver/Inc/stm32l0xx_ll_tim.h ****   *         @arg @ref LL_TIM_CHANNEL_CH1
1592:Drivers/STM32L0xx_HAL_Driver/Inc/stm32l0xx_ll_tim.h ****   *         @arg @ref LL_TIM_CHANNEL_CH2
1593:Drivers/STM32L0xx_HAL_Driver/Inc/stm32l0xx_ll_tim.h ****   *         @arg @ref LL_TIM_CHANNEL_CH3
1594:Drivers/STM32L0xx_HAL_Driver/Inc/stm32l0xx_ll_tim.h ****   *         @arg @ref LL_TIM_CHANNEL_CH4
1595:Drivers/STM32L0xx_HAL_Driver/Inc/stm32l0xx_ll_tim.h ****   * @retval State of bit (1 or 0).
1596:Drivers/STM32L0xx_HAL_Driver/Inc/stm32l0xx_ll_tim.h ****   */
1597:Drivers/STM32L0xx_HAL_Driver/Inc/stm32l0xx_ll_tim.h **** __STATIC_INLINE uint32_t LL_TIM_OC_IsEnabledPreload(TIM_TypeDef *TIMx, uint32_t Channel)
1598:Drivers/STM32L0xx_HAL_Driver/Inc/stm32l0xx_ll_tim.h **** {
1599:Drivers/STM32L0xx_HAL_Driver/Inc/stm32l0xx_ll_tim.h ****   uint8_t iChannel = TIM_GET_CHANNEL_INDEX(Channel);
1600:Drivers/STM32L0xx_HAL_Driver/Inc/stm32l0xx_ll_tim.h ****   const __IO uint32_t *pReg = (__IO uint32_t *)((uint32_t)((uint32_t)(&TIMx->CCMR1) + OFFSET_TAB_CC
1601:Drivers/STM32L0xx_HAL_Driver/Inc/stm32l0xx_ll_tim.h ****   uint32_t bitfield = TIM_CCMR1_OC1PE << SHIFT_TAB_OCxx[iChannel];
1602:Drivers/STM32L0xx_HAL_Driver/Inc/stm32l0xx_ll_tim.h ****   return ((READ_BIT(*pReg, bitfield) == bitfield) ? 1UL : 0UL);
1603:Drivers/STM32L0xx_HAL_Driver/Inc/stm32l0xx_ll_tim.h **** }
1604:Drivers/STM32L0xx_HAL_Driver/Inc/stm32l0xx_ll_tim.h **** 
1605:Drivers/STM32L0xx_HAL_Driver/Inc/stm32l0xx_ll_tim.h **** /**
1606:Drivers/STM32L0xx_HAL_Driver/Inc/stm32l0xx_ll_tim.h ****   * @brief  Enable clearing the output channel on an external event.
1607:Drivers/STM32L0xx_HAL_Driver/Inc/stm32l0xx_ll_tim.h ****   * @note This function can only be used in Output compare and PWM modes. It does not work in Force
1608:Drivers/STM32L0xx_HAL_Driver/Inc/stm32l0xx_ll_tim.h ****   * @note Macro IS_TIM_OCXREF_CLEAR_INSTANCE(TIMx) can be used to check whether
1609:Drivers/STM32L0xx_HAL_Driver/Inc/stm32l0xx_ll_tim.h ****   *       or not a timer instance can clear the OCxREF signal on an external event.
ARM GAS  /tmp/cckNMhWV.s 			page 40


1610:Drivers/STM32L0xx_HAL_Driver/Inc/stm32l0xx_ll_tim.h ****   * @rmtoll CCMR1        OC1CE          LL_TIM_OC_EnableClear\n
1611:Drivers/STM32L0xx_HAL_Driver/Inc/stm32l0xx_ll_tim.h ****   *         CCMR1        OC2CE          LL_TIM_OC_EnableClear\n
1612:Drivers/STM32L0xx_HAL_Driver/Inc/stm32l0xx_ll_tim.h ****   *         CCMR2        OC3CE          LL_TIM_OC_EnableClear\n
1613:Drivers/STM32L0xx_HAL_Driver/Inc/stm32l0xx_ll_tim.h ****   *         CCMR2        OC4CE          LL_TIM_OC_EnableClear
1614:Drivers/STM32L0xx_HAL_Driver/Inc/stm32l0xx_ll_tim.h ****   * @param  TIMx Timer instance
1615:Drivers/STM32L0xx_HAL_Driver/Inc/stm32l0xx_ll_tim.h ****   * @param  Channel This parameter can be one of the following values:
1616:Drivers/STM32L0xx_HAL_Driver/Inc/stm32l0xx_ll_tim.h ****   *         @arg @ref LL_TIM_CHANNEL_CH1
1617:Drivers/STM32L0xx_HAL_Driver/Inc/stm32l0xx_ll_tim.h ****   *         @arg @ref LL_TIM_CHANNEL_CH2
1618:Drivers/STM32L0xx_HAL_Driver/Inc/stm32l0xx_ll_tim.h ****   *         @arg @ref LL_TIM_CHANNEL_CH3
1619:Drivers/STM32L0xx_HAL_Driver/Inc/stm32l0xx_ll_tim.h ****   *         @arg @ref LL_TIM_CHANNEL_CH4
1620:Drivers/STM32L0xx_HAL_Driver/Inc/stm32l0xx_ll_tim.h ****   * @retval None
1621:Drivers/STM32L0xx_HAL_Driver/Inc/stm32l0xx_ll_tim.h ****   */
1622:Drivers/STM32L0xx_HAL_Driver/Inc/stm32l0xx_ll_tim.h **** __STATIC_INLINE void LL_TIM_OC_EnableClear(TIM_TypeDef *TIMx, uint32_t Channel)
1623:Drivers/STM32L0xx_HAL_Driver/Inc/stm32l0xx_ll_tim.h **** {
1624:Drivers/STM32L0xx_HAL_Driver/Inc/stm32l0xx_ll_tim.h ****   uint8_t iChannel = TIM_GET_CHANNEL_INDEX(Channel);
1625:Drivers/STM32L0xx_HAL_Driver/Inc/stm32l0xx_ll_tim.h ****   __IO uint32_t *pReg = (__IO uint32_t *)((uint32_t)((uint32_t)(&TIMx->CCMR1) + OFFSET_TAB_CCMRx[iC
1626:Drivers/STM32L0xx_HAL_Driver/Inc/stm32l0xx_ll_tim.h ****   SET_BIT(*pReg, (TIM_CCMR1_OC1CE << SHIFT_TAB_OCxx[iChannel]));
1627:Drivers/STM32L0xx_HAL_Driver/Inc/stm32l0xx_ll_tim.h **** }
1628:Drivers/STM32L0xx_HAL_Driver/Inc/stm32l0xx_ll_tim.h **** 
1629:Drivers/STM32L0xx_HAL_Driver/Inc/stm32l0xx_ll_tim.h **** /**
1630:Drivers/STM32L0xx_HAL_Driver/Inc/stm32l0xx_ll_tim.h ****   * @brief  Disable clearing the output channel on an external event.
1631:Drivers/STM32L0xx_HAL_Driver/Inc/stm32l0xx_ll_tim.h ****   * @note Macro IS_TIM_OCXREF_CLEAR_INSTANCE(TIMx) can be used to check whether
1632:Drivers/STM32L0xx_HAL_Driver/Inc/stm32l0xx_ll_tim.h ****   *       or not a timer instance can clear the OCxREF signal on an external event.
1633:Drivers/STM32L0xx_HAL_Driver/Inc/stm32l0xx_ll_tim.h ****   * @rmtoll CCMR1        OC1CE          LL_TIM_OC_DisableClear\n
1634:Drivers/STM32L0xx_HAL_Driver/Inc/stm32l0xx_ll_tim.h ****   *         CCMR1        OC2CE          LL_TIM_OC_DisableClear\n
1635:Drivers/STM32L0xx_HAL_Driver/Inc/stm32l0xx_ll_tim.h ****   *         CCMR2        OC3CE          LL_TIM_OC_DisableClear\n
1636:Drivers/STM32L0xx_HAL_Driver/Inc/stm32l0xx_ll_tim.h ****   *         CCMR2        OC4CE          LL_TIM_OC_DisableClear
1637:Drivers/STM32L0xx_HAL_Driver/Inc/stm32l0xx_ll_tim.h ****   * @param  TIMx Timer instance
1638:Drivers/STM32L0xx_HAL_Driver/Inc/stm32l0xx_ll_tim.h ****   * @param  Channel This parameter can be one of the following values:
1639:Drivers/STM32L0xx_HAL_Driver/Inc/stm32l0xx_ll_tim.h ****   *         @arg @ref LL_TIM_CHANNEL_CH1
1640:Drivers/STM32L0xx_HAL_Driver/Inc/stm32l0xx_ll_tim.h ****   *         @arg @ref LL_TIM_CHANNEL_CH2
1641:Drivers/STM32L0xx_HAL_Driver/Inc/stm32l0xx_ll_tim.h ****   *         @arg @ref LL_TIM_CHANNEL_CH3
1642:Drivers/STM32L0xx_HAL_Driver/Inc/stm32l0xx_ll_tim.h ****   *         @arg @ref LL_TIM_CHANNEL_CH4
1643:Drivers/STM32L0xx_HAL_Driver/Inc/stm32l0xx_ll_tim.h ****   * @retval None
1644:Drivers/STM32L0xx_HAL_Driver/Inc/stm32l0xx_ll_tim.h ****   */
1645:Drivers/STM32L0xx_HAL_Driver/Inc/stm32l0xx_ll_tim.h **** __STATIC_INLINE void LL_TIM_OC_DisableClear(TIM_TypeDef *TIMx, uint32_t Channel)
1646:Drivers/STM32L0xx_HAL_Driver/Inc/stm32l0xx_ll_tim.h **** {
1647:Drivers/STM32L0xx_HAL_Driver/Inc/stm32l0xx_ll_tim.h ****   uint8_t iChannel = TIM_GET_CHANNEL_INDEX(Channel);
1648:Drivers/STM32L0xx_HAL_Driver/Inc/stm32l0xx_ll_tim.h ****   __IO uint32_t *pReg = (__IO uint32_t *)((uint32_t)((uint32_t)(&TIMx->CCMR1) + OFFSET_TAB_CCMRx[iC
1649:Drivers/STM32L0xx_HAL_Driver/Inc/stm32l0xx_ll_tim.h ****   CLEAR_BIT(*pReg, (TIM_CCMR1_OC1CE << SHIFT_TAB_OCxx[iChannel]));
1650:Drivers/STM32L0xx_HAL_Driver/Inc/stm32l0xx_ll_tim.h **** }
1651:Drivers/STM32L0xx_HAL_Driver/Inc/stm32l0xx_ll_tim.h **** 
1652:Drivers/STM32L0xx_HAL_Driver/Inc/stm32l0xx_ll_tim.h **** /**
1653:Drivers/STM32L0xx_HAL_Driver/Inc/stm32l0xx_ll_tim.h ****   * @brief  Indicates clearing the output channel on an external event is enabled for the output ch
1654:Drivers/STM32L0xx_HAL_Driver/Inc/stm32l0xx_ll_tim.h ****   * @note This function enables clearing the output channel on an external event.
1655:Drivers/STM32L0xx_HAL_Driver/Inc/stm32l0xx_ll_tim.h ****   * @note This function can only be used in Output compare and PWM modes. It does not work in Force
1656:Drivers/STM32L0xx_HAL_Driver/Inc/stm32l0xx_ll_tim.h ****   * @note Macro IS_TIM_OCXREF_CLEAR_INSTANCE(TIMx) can be used to check whether
1657:Drivers/STM32L0xx_HAL_Driver/Inc/stm32l0xx_ll_tim.h ****   *       or not a timer instance can clear the OCxREF signal on an external event.
1658:Drivers/STM32L0xx_HAL_Driver/Inc/stm32l0xx_ll_tim.h ****   * @rmtoll CCMR1        OC1CE          LL_TIM_OC_IsEnabledClear\n
1659:Drivers/STM32L0xx_HAL_Driver/Inc/stm32l0xx_ll_tim.h ****   *         CCMR1        OC2CE          LL_TIM_OC_IsEnabledClear\n
1660:Drivers/STM32L0xx_HAL_Driver/Inc/stm32l0xx_ll_tim.h ****   *         CCMR2        OC3CE          LL_TIM_OC_IsEnabledClear\n
1661:Drivers/STM32L0xx_HAL_Driver/Inc/stm32l0xx_ll_tim.h ****   *         CCMR2        OC4CE          LL_TIM_OC_IsEnabledClear\n
1662:Drivers/STM32L0xx_HAL_Driver/Inc/stm32l0xx_ll_tim.h ****   * @param  TIMx Timer instance
1663:Drivers/STM32L0xx_HAL_Driver/Inc/stm32l0xx_ll_tim.h ****   * @param  Channel This parameter can be one of the following values:
1664:Drivers/STM32L0xx_HAL_Driver/Inc/stm32l0xx_ll_tim.h ****   *         @arg @ref LL_TIM_CHANNEL_CH1
1665:Drivers/STM32L0xx_HAL_Driver/Inc/stm32l0xx_ll_tim.h ****   *         @arg @ref LL_TIM_CHANNEL_CH2
1666:Drivers/STM32L0xx_HAL_Driver/Inc/stm32l0xx_ll_tim.h ****   *         @arg @ref LL_TIM_CHANNEL_CH3
ARM GAS  /tmp/cckNMhWV.s 			page 41


1667:Drivers/STM32L0xx_HAL_Driver/Inc/stm32l0xx_ll_tim.h ****   *         @arg @ref LL_TIM_CHANNEL_CH4
1668:Drivers/STM32L0xx_HAL_Driver/Inc/stm32l0xx_ll_tim.h ****   * @retval State of bit (1 or 0).
1669:Drivers/STM32L0xx_HAL_Driver/Inc/stm32l0xx_ll_tim.h ****   */
1670:Drivers/STM32L0xx_HAL_Driver/Inc/stm32l0xx_ll_tim.h **** __STATIC_INLINE uint32_t LL_TIM_OC_IsEnabledClear(TIM_TypeDef *TIMx, uint32_t Channel)
1671:Drivers/STM32L0xx_HAL_Driver/Inc/stm32l0xx_ll_tim.h **** {
1672:Drivers/STM32L0xx_HAL_Driver/Inc/stm32l0xx_ll_tim.h ****   uint8_t iChannel = TIM_GET_CHANNEL_INDEX(Channel);
1673:Drivers/STM32L0xx_HAL_Driver/Inc/stm32l0xx_ll_tim.h ****   const __IO uint32_t *pReg = (__IO uint32_t *)((uint32_t)((uint32_t)(&TIMx->CCMR1) + OFFSET_TAB_CC
1674:Drivers/STM32L0xx_HAL_Driver/Inc/stm32l0xx_ll_tim.h ****   uint32_t bitfield = TIM_CCMR1_OC1CE << SHIFT_TAB_OCxx[iChannel];
1675:Drivers/STM32L0xx_HAL_Driver/Inc/stm32l0xx_ll_tim.h ****   return ((READ_BIT(*pReg, bitfield) == bitfield) ? 1UL : 0UL);
1676:Drivers/STM32L0xx_HAL_Driver/Inc/stm32l0xx_ll_tim.h **** }
1677:Drivers/STM32L0xx_HAL_Driver/Inc/stm32l0xx_ll_tim.h **** 
1678:Drivers/STM32L0xx_HAL_Driver/Inc/stm32l0xx_ll_tim.h **** /**
1679:Drivers/STM32L0xx_HAL_Driver/Inc/stm32l0xx_ll_tim.h ****   * @brief  Set compare value for output channel 1 (TIMx_CCR1).
1680:Drivers/STM32L0xx_HAL_Driver/Inc/stm32l0xx_ll_tim.h ****   * @note Macro IS_TIM_CC1_INSTANCE(TIMx) can be used to check whether or not
1681:Drivers/STM32L0xx_HAL_Driver/Inc/stm32l0xx_ll_tim.h ****   *       output channel 1 is supported by a timer instance.
1682:Drivers/STM32L0xx_HAL_Driver/Inc/stm32l0xx_ll_tim.h ****   * @rmtoll CCR1         CCR1          LL_TIM_OC_SetCompareCH1
1683:Drivers/STM32L0xx_HAL_Driver/Inc/stm32l0xx_ll_tim.h ****   * @param  TIMx Timer instance
1684:Drivers/STM32L0xx_HAL_Driver/Inc/stm32l0xx_ll_tim.h ****   * @param  CompareValue between Min_Data=0 and Max_Data=65535
1685:Drivers/STM32L0xx_HAL_Driver/Inc/stm32l0xx_ll_tim.h ****   * @retval None
1686:Drivers/STM32L0xx_HAL_Driver/Inc/stm32l0xx_ll_tim.h ****   */
1687:Drivers/STM32L0xx_HAL_Driver/Inc/stm32l0xx_ll_tim.h **** __STATIC_INLINE void LL_TIM_OC_SetCompareCH1(TIM_TypeDef *TIMx, uint32_t CompareValue)
  97              		.loc 2 1687 22 view .LVU26
  98              	.LBB31:
1688:Drivers/STM32L0xx_HAL_Driver/Inc/stm32l0xx_ll_tim.h **** {
1689:Drivers/STM32L0xx_HAL_Driver/Inc/stm32l0xx_ll_tim.h ****   WRITE_REG(TIMx->CCR1, CompareValue);
  99              		.loc 2 1689 3 view .LVU27
 100 002c 4263     		str	r2, [r0, #52]
 101              	.LVL11:
 102              		.loc 2 1689 3 is_stmt 0 view .LVU28
 103              	.LBE31:
 104              	.LBE30:
 520:Drivers/STM32L0xx_HAL_Driver/Src/stm32l0xx_ll_tim.c **** 
 521:Drivers/STM32L0xx_HAL_Driver/Src/stm32l0xx_ll_tim.c ****   /* Write to TIMx CCER */
 522:Drivers/STM32L0xx_HAL_Driver/Src/stm32l0xx_ll_tim.c ****   LL_TIM_WriteReg(TIMx, CCER, tmpccer);
 105              		.loc 1 522 3 is_stmt 1 view .LVU29
 106 002e 0362     		str	r3, [r0, #32]
 523:Drivers/STM32L0xx_HAL_Driver/Src/stm32l0xx_ll_tim.c **** 
 524:Drivers/STM32L0xx_HAL_Driver/Src/stm32l0xx_ll_tim.c ****   return SUCCESS;
 107              		.loc 1 524 3 view .LVU30
 525:Drivers/STM32L0xx_HAL_Driver/Src/stm32l0xx_ll_tim.c **** }
 108              		.loc 1 525 1 is_stmt 0 view .LVU31
 109 0030 0020     		movs	r0, #0
 110              	.LVL12:
 111              		.loc 1 525 1 view .LVU32
 112              		@ sp needed
 113              	.LVL13:
 114              		.loc 1 525 1 view .LVU33
 115 0032 70BD     		pop	{r4, r5, r6, pc}
 116              		.cfi_endproc
 117              	.LFE220:
 119              		.section	.text.OC2Config,"ax",%progbits
 120              		.align	1
 121              		.syntax unified
 122              		.code	16
 123              		.thumb_func
 125              	OC2Config:
 126              	.LVL14:
ARM GAS  /tmp/cckNMhWV.s 			page 42


 127              	.LFB221:
 526:Drivers/STM32L0xx_HAL_Driver/Src/stm32l0xx_ll_tim.c **** 
 527:Drivers/STM32L0xx_HAL_Driver/Src/stm32l0xx_ll_tim.c **** /**
 528:Drivers/STM32L0xx_HAL_Driver/Src/stm32l0xx_ll_tim.c ****   * @brief  Configure the TIMx output channel 2.
 529:Drivers/STM32L0xx_HAL_Driver/Src/stm32l0xx_ll_tim.c ****   * @param  TIMx Timer Instance
 530:Drivers/STM32L0xx_HAL_Driver/Src/stm32l0xx_ll_tim.c ****   * @param  TIM_OCInitStruct pointer to the the TIMx output channel 2 configuration data structure
 531:Drivers/STM32L0xx_HAL_Driver/Src/stm32l0xx_ll_tim.c ****   * @retval An ErrorStatus enumeration value:
 532:Drivers/STM32L0xx_HAL_Driver/Src/stm32l0xx_ll_tim.c ****   *          - SUCCESS: TIMx registers are de-initialized
 533:Drivers/STM32L0xx_HAL_Driver/Src/stm32l0xx_ll_tim.c ****   *          - ERROR: not applicable
 534:Drivers/STM32L0xx_HAL_Driver/Src/stm32l0xx_ll_tim.c ****   */
 535:Drivers/STM32L0xx_HAL_Driver/Src/stm32l0xx_ll_tim.c **** static ErrorStatus OC2Config(TIM_TypeDef *TIMx, LL_TIM_OC_InitTypeDef *TIM_OCInitStruct)
 536:Drivers/STM32L0xx_HAL_Driver/Src/stm32l0xx_ll_tim.c **** {
 128              		.loc 1 536 1 is_stmt 1 view -0
 129              		.cfi_startproc
 130              		@ args = 0, pretend = 0, frame = 0
 131              		@ frame_needed = 0, uses_anonymous_args = 0
 132              		.loc 1 536 1 is_stmt 0 view .LVU35
 133 0000 70B5     		push	{r4, r5, r6, lr}
 134              	.LCFI1:
 135              		.cfi_def_cfa_offset 16
 136              		.cfi_offset 4, -16
 137              		.cfi_offset 5, -12
 138              		.cfi_offset 6, -8
 139              		.cfi_offset 14, -4
 537:Drivers/STM32L0xx_HAL_Driver/Src/stm32l0xx_ll_tim.c ****   uint32_t tmpccmr1;
 140              		.loc 1 537 3 is_stmt 1 view .LVU36
 538:Drivers/STM32L0xx_HAL_Driver/Src/stm32l0xx_ll_tim.c ****   uint32_t tmpccer;
 141              		.loc 1 538 3 view .LVU37
 539:Drivers/STM32L0xx_HAL_Driver/Src/stm32l0xx_ll_tim.c ****   uint32_t tmpcr2;
 142              		.loc 1 539 3 view .LVU38
 540:Drivers/STM32L0xx_HAL_Driver/Src/stm32l0xx_ll_tim.c **** 
 541:Drivers/STM32L0xx_HAL_Driver/Src/stm32l0xx_ll_tim.c ****   /* Check the parameters */
 542:Drivers/STM32L0xx_HAL_Driver/Src/stm32l0xx_ll_tim.c ****   assert_param(IS_TIM_CC2_INSTANCE(TIMx));
 143              		.loc 1 542 3 view .LVU39
 543:Drivers/STM32L0xx_HAL_Driver/Src/stm32l0xx_ll_tim.c ****   assert_param(IS_LL_TIM_OCMODE(TIM_OCInitStruct->OCMode));
 144              		.loc 1 543 3 view .LVU40
 544:Drivers/STM32L0xx_HAL_Driver/Src/stm32l0xx_ll_tim.c ****   assert_param(IS_LL_TIM_OCSTATE(TIM_OCInitStruct->OCState));
 145              		.loc 1 544 3 view .LVU41
 545:Drivers/STM32L0xx_HAL_Driver/Src/stm32l0xx_ll_tim.c ****   assert_param(IS_LL_TIM_OCPOLARITY(TIM_OCInitStruct->OCPolarity));
 146              		.loc 1 545 3 view .LVU42
 546:Drivers/STM32L0xx_HAL_Driver/Src/stm32l0xx_ll_tim.c **** 
 547:Drivers/STM32L0xx_HAL_Driver/Src/stm32l0xx_ll_tim.c ****   /* Disable the Channel 2: Reset the CC2E Bit */
 548:Drivers/STM32L0xx_HAL_Driver/Src/stm32l0xx_ll_tim.c ****   CLEAR_BIT(TIMx->CCER, TIM_CCER_CC2E);
 147              		.loc 1 548 3 view .LVU43
 148 0002 036A     		ldr	r3, [r0, #32]
 149 0004 1026     		movs	r6, #16
 150 0006 B343     		bics	r3, r6
 151 0008 0362     		str	r3, [r0, #32]
 549:Drivers/STM32L0xx_HAL_Driver/Src/stm32l0xx_ll_tim.c **** 
 550:Drivers/STM32L0xx_HAL_Driver/Src/stm32l0xx_ll_tim.c ****   /* Get the TIMx CCER register value */
 551:Drivers/STM32L0xx_HAL_Driver/Src/stm32l0xx_ll_tim.c ****   tmpccer =  LL_TIM_ReadReg(TIMx, CCER);
 152              		.loc 1 551 3 view .LVU44
 153              		.loc 1 551 11 is_stmt 0 view .LVU45
 154 000a 036A     		ldr	r3, [r0, #32]
 155              	.LVL15:
 552:Drivers/STM32L0xx_HAL_Driver/Src/stm32l0xx_ll_tim.c **** 
 553:Drivers/STM32L0xx_HAL_Driver/Src/stm32l0xx_ll_tim.c ****   /* Get the TIMx CR2 register value */
ARM GAS  /tmp/cckNMhWV.s 			page 43


 554:Drivers/STM32L0xx_HAL_Driver/Src/stm32l0xx_ll_tim.c ****   tmpcr2 = LL_TIM_ReadReg(TIMx, CR2);
 156              		.loc 1 554 3 is_stmt 1 view .LVU46
 157              		.loc 1 554 10 is_stmt 0 view .LVU47
 158 000c 4568     		ldr	r5, [r0, #4]
 159              	.LVL16:
 555:Drivers/STM32L0xx_HAL_Driver/Src/stm32l0xx_ll_tim.c **** 
 556:Drivers/STM32L0xx_HAL_Driver/Src/stm32l0xx_ll_tim.c ****   /* Get the TIMx CCMR1 register value */
 557:Drivers/STM32L0xx_HAL_Driver/Src/stm32l0xx_ll_tim.c ****   tmpccmr1 = LL_TIM_ReadReg(TIMx, CCMR1);
 160              		.loc 1 557 3 is_stmt 1 view .LVU48
 161              		.loc 1 557 12 is_stmt 0 view .LVU49
 162 000e 8269     		ldr	r2, [r0, #24]
 163              	.LVL17:
 558:Drivers/STM32L0xx_HAL_Driver/Src/stm32l0xx_ll_tim.c **** 
 559:Drivers/STM32L0xx_HAL_Driver/Src/stm32l0xx_ll_tim.c ****   /* Reset Capture/Compare selection Bits */
 560:Drivers/STM32L0xx_HAL_Driver/Src/stm32l0xx_ll_tim.c ****   CLEAR_BIT(tmpccmr1, TIM_CCMR1_CC2S);
 164              		.loc 1 560 3 is_stmt 1 view .LVU50
 561:Drivers/STM32L0xx_HAL_Driver/Src/stm32l0xx_ll_tim.c **** 
 562:Drivers/STM32L0xx_HAL_Driver/Src/stm32l0xx_ll_tim.c ****   /* Select the Output Compare Mode */
 563:Drivers/STM32L0xx_HAL_Driver/Src/stm32l0xx_ll_tim.c ****   MODIFY_REG(tmpccmr1, TIM_CCMR1_OC2M, TIM_OCInitStruct->OCMode << 8U);
 165              		.loc 1 563 3 view .LVU51
 166 0010 0A4C     		ldr	r4, .L3
 167 0012 2240     		ands	r2, r4
 168              	.LVL18:
 169              		.loc 1 563 3 is_stmt 0 view .LVU52
 170 0014 0C68     		ldr	r4, [r1]
 171 0016 2402     		lsls	r4, r4, #8
 172 0018 2243     		orrs	r2, r4
 173              	.LVL19:
 564:Drivers/STM32L0xx_HAL_Driver/Src/stm32l0xx_ll_tim.c **** 
 565:Drivers/STM32L0xx_HAL_Driver/Src/stm32l0xx_ll_tim.c ****   /* Set the Output Compare Polarity */
 566:Drivers/STM32L0xx_HAL_Driver/Src/stm32l0xx_ll_tim.c ****   MODIFY_REG(tmpccer, TIM_CCER_CC2P, TIM_OCInitStruct->OCPolarity << 4U);
 174              		.loc 1 566 3 is_stmt 1 view .LVU53
 175 001a 2024     		movs	r4, #32
 176 001c A343     		bics	r3, r4
 177              	.LVL20:
 178              		.loc 1 566 3 is_stmt 0 view .LVU54
 179 001e CC68     		ldr	r4, [r1, #12]
 180 0020 2401     		lsls	r4, r4, #4
 181 0022 2343     		orrs	r3, r4
 182              	.LVL21:
 567:Drivers/STM32L0xx_HAL_Driver/Src/stm32l0xx_ll_tim.c **** 
 568:Drivers/STM32L0xx_HAL_Driver/Src/stm32l0xx_ll_tim.c ****   /* Set the Output State */
 569:Drivers/STM32L0xx_HAL_Driver/Src/stm32l0xx_ll_tim.c ****   MODIFY_REG(tmpccer, TIM_CCER_CC2E, TIM_OCInitStruct->OCState << 4U);
 183              		.loc 1 569 3 is_stmt 1 view .LVU55
 184 0024 B343     		bics	r3, r6
 185              	.LVL22:
 186              		.loc 1 569 3 is_stmt 0 view .LVU56
 187 0026 4C68     		ldr	r4, [r1, #4]
 188 0028 2401     		lsls	r4, r4, #4
 189 002a 2343     		orrs	r3, r4
 190              	.LVL23:
 570:Drivers/STM32L0xx_HAL_Driver/Src/stm32l0xx_ll_tim.c **** 
 571:Drivers/STM32L0xx_HAL_Driver/Src/stm32l0xx_ll_tim.c ****   /* Write to TIMx CR2 */
 572:Drivers/STM32L0xx_HAL_Driver/Src/stm32l0xx_ll_tim.c ****   LL_TIM_WriteReg(TIMx, CR2, tmpcr2);
 191              		.loc 1 572 3 is_stmt 1 view .LVU57
 192 002c 4560     		str	r5, [r0, #4]
 573:Drivers/STM32L0xx_HAL_Driver/Src/stm32l0xx_ll_tim.c **** 
ARM GAS  /tmp/cckNMhWV.s 			page 44


 574:Drivers/STM32L0xx_HAL_Driver/Src/stm32l0xx_ll_tim.c ****   /* Write to TIMx CCMR1 */
 575:Drivers/STM32L0xx_HAL_Driver/Src/stm32l0xx_ll_tim.c ****   LL_TIM_WriteReg(TIMx, CCMR1, tmpccmr1);
 193              		.loc 1 575 3 view .LVU58
 194 002e 8261     		str	r2, [r0, #24]
 576:Drivers/STM32L0xx_HAL_Driver/Src/stm32l0xx_ll_tim.c **** 
 577:Drivers/STM32L0xx_HAL_Driver/Src/stm32l0xx_ll_tim.c ****   /* Set the Capture Compare Register value */
 578:Drivers/STM32L0xx_HAL_Driver/Src/stm32l0xx_ll_tim.c ****   LL_TIM_OC_SetCompareCH2(TIMx, TIM_OCInitStruct->CompareValue);
 195              		.loc 1 578 3 view .LVU59
 196 0030 8A68     		ldr	r2, [r1, #8]
 197              	.LVL24:
 198              	.LBB32:
 199              	.LBI32:
1690:Drivers/STM32L0xx_HAL_Driver/Inc/stm32l0xx_ll_tim.h **** }
1691:Drivers/STM32L0xx_HAL_Driver/Inc/stm32l0xx_ll_tim.h **** 
1692:Drivers/STM32L0xx_HAL_Driver/Inc/stm32l0xx_ll_tim.h **** /**
1693:Drivers/STM32L0xx_HAL_Driver/Inc/stm32l0xx_ll_tim.h ****   * @brief  Set compare value for output channel 2 (TIMx_CCR2).
1694:Drivers/STM32L0xx_HAL_Driver/Inc/stm32l0xx_ll_tim.h ****   * @note Macro IS_TIM_CC2_INSTANCE(TIMx) can be used to check whether or not
1695:Drivers/STM32L0xx_HAL_Driver/Inc/stm32l0xx_ll_tim.h ****   *       output channel 2 is supported by a timer instance.
1696:Drivers/STM32L0xx_HAL_Driver/Inc/stm32l0xx_ll_tim.h ****   * @rmtoll CCR2         CCR2          LL_TIM_OC_SetCompareCH2
1697:Drivers/STM32L0xx_HAL_Driver/Inc/stm32l0xx_ll_tim.h ****   * @param  TIMx Timer instance
1698:Drivers/STM32L0xx_HAL_Driver/Inc/stm32l0xx_ll_tim.h ****   * @param  CompareValue between Min_Data=0 and Max_Data=65535
1699:Drivers/STM32L0xx_HAL_Driver/Inc/stm32l0xx_ll_tim.h ****   * @retval None
1700:Drivers/STM32L0xx_HAL_Driver/Inc/stm32l0xx_ll_tim.h ****   */
1701:Drivers/STM32L0xx_HAL_Driver/Inc/stm32l0xx_ll_tim.h **** __STATIC_INLINE void LL_TIM_OC_SetCompareCH2(TIM_TypeDef *TIMx, uint32_t CompareValue)
 200              		.loc 2 1701 22 view .LVU60
 201              	.LBB33:
1702:Drivers/STM32L0xx_HAL_Driver/Inc/stm32l0xx_ll_tim.h **** {
1703:Drivers/STM32L0xx_HAL_Driver/Inc/stm32l0xx_ll_tim.h ****   WRITE_REG(TIMx->CCR2, CompareValue);
 202              		.loc 2 1703 3 view .LVU61
 203 0032 8263     		str	r2, [r0, #56]
 204              	.LVL25:
 205              		.loc 2 1703 3 is_stmt 0 view .LVU62
 206              	.LBE33:
 207              	.LBE32:
 579:Drivers/STM32L0xx_HAL_Driver/Src/stm32l0xx_ll_tim.c **** 
 580:Drivers/STM32L0xx_HAL_Driver/Src/stm32l0xx_ll_tim.c ****   /* Write to TIMx CCER */
 581:Drivers/STM32L0xx_HAL_Driver/Src/stm32l0xx_ll_tim.c ****   LL_TIM_WriteReg(TIMx, CCER, tmpccer);
 208              		.loc 1 581 3 is_stmt 1 view .LVU63
 209 0034 0362     		str	r3, [r0, #32]
 582:Drivers/STM32L0xx_HAL_Driver/Src/stm32l0xx_ll_tim.c **** 
 583:Drivers/STM32L0xx_HAL_Driver/Src/stm32l0xx_ll_tim.c ****   return SUCCESS;
 210              		.loc 1 583 3 view .LVU64
 584:Drivers/STM32L0xx_HAL_Driver/Src/stm32l0xx_ll_tim.c **** }
 211              		.loc 1 584 1 is_stmt 0 view .LVU65
 212 0036 0020     		movs	r0, #0
 213              	.LVL26:
 214              		.loc 1 584 1 view .LVU66
 215              		@ sp needed
 216              	.LVL27:
 217              		.loc 1 584 1 view .LVU67
 218 0038 70BD     		pop	{r4, r5, r6, pc}
 219              	.L4:
 220 003a C046     		.align	2
 221              	.L3:
 222 003c FF8CFFFF 		.word	-29441
 223              		.cfi_endproc
 224              	.LFE221:
ARM GAS  /tmp/cckNMhWV.s 			page 45


 226              		.section	.text.OC3Config,"ax",%progbits
 227              		.align	1
 228              		.syntax unified
 229              		.code	16
 230              		.thumb_func
 232              	OC3Config:
 233              	.LVL28:
 234              	.LFB222:
 585:Drivers/STM32L0xx_HAL_Driver/Src/stm32l0xx_ll_tim.c **** 
 586:Drivers/STM32L0xx_HAL_Driver/Src/stm32l0xx_ll_tim.c **** /**
 587:Drivers/STM32L0xx_HAL_Driver/Src/stm32l0xx_ll_tim.c ****   * @brief  Configure the TIMx output channel 3.
 588:Drivers/STM32L0xx_HAL_Driver/Src/stm32l0xx_ll_tim.c ****   * @param  TIMx Timer Instance
 589:Drivers/STM32L0xx_HAL_Driver/Src/stm32l0xx_ll_tim.c ****   * @param  TIM_OCInitStruct pointer to the the TIMx output channel 3 configuration data structure
 590:Drivers/STM32L0xx_HAL_Driver/Src/stm32l0xx_ll_tim.c ****   * @retval An ErrorStatus enumeration value:
 591:Drivers/STM32L0xx_HAL_Driver/Src/stm32l0xx_ll_tim.c ****   *          - SUCCESS: TIMx registers are de-initialized
 592:Drivers/STM32L0xx_HAL_Driver/Src/stm32l0xx_ll_tim.c ****   *          - ERROR: not applicable
 593:Drivers/STM32L0xx_HAL_Driver/Src/stm32l0xx_ll_tim.c ****   */
 594:Drivers/STM32L0xx_HAL_Driver/Src/stm32l0xx_ll_tim.c **** static ErrorStatus OC3Config(TIM_TypeDef *TIMx, LL_TIM_OC_InitTypeDef *TIM_OCInitStruct)
 595:Drivers/STM32L0xx_HAL_Driver/Src/stm32l0xx_ll_tim.c **** {
 235              		.loc 1 595 1 is_stmt 1 view -0
 236              		.cfi_startproc
 237              		@ args = 0, pretend = 0, frame = 0
 238              		@ frame_needed = 0, uses_anonymous_args = 0
 239              		.loc 1 595 1 is_stmt 0 view .LVU69
 240 0000 70B5     		push	{r4, r5, r6, lr}
 241              	.LCFI2:
 242              		.cfi_def_cfa_offset 16
 243              		.cfi_offset 4, -16
 244              		.cfi_offset 5, -12
 245              		.cfi_offset 6, -8
 246              		.cfi_offset 14, -4
 596:Drivers/STM32L0xx_HAL_Driver/Src/stm32l0xx_ll_tim.c ****   uint32_t tmpccmr2;
 247              		.loc 1 596 3 is_stmt 1 view .LVU70
 597:Drivers/STM32L0xx_HAL_Driver/Src/stm32l0xx_ll_tim.c ****   uint32_t tmpccer;
 248              		.loc 1 597 3 view .LVU71
 598:Drivers/STM32L0xx_HAL_Driver/Src/stm32l0xx_ll_tim.c ****   uint32_t tmpcr2;
 249              		.loc 1 598 3 view .LVU72
 599:Drivers/STM32L0xx_HAL_Driver/Src/stm32l0xx_ll_tim.c **** 
 600:Drivers/STM32L0xx_HAL_Driver/Src/stm32l0xx_ll_tim.c ****   /* Check the parameters */
 601:Drivers/STM32L0xx_HAL_Driver/Src/stm32l0xx_ll_tim.c ****   assert_param(IS_TIM_CC3_INSTANCE(TIMx));
 250              		.loc 1 601 3 view .LVU73
 602:Drivers/STM32L0xx_HAL_Driver/Src/stm32l0xx_ll_tim.c ****   assert_param(IS_LL_TIM_OCMODE(TIM_OCInitStruct->OCMode));
 251              		.loc 1 602 3 view .LVU74
 603:Drivers/STM32L0xx_HAL_Driver/Src/stm32l0xx_ll_tim.c ****   assert_param(IS_LL_TIM_OCSTATE(TIM_OCInitStruct->OCState));
 252              		.loc 1 603 3 view .LVU75
 604:Drivers/STM32L0xx_HAL_Driver/Src/stm32l0xx_ll_tim.c ****   assert_param(IS_LL_TIM_OCPOLARITY(TIM_OCInitStruct->OCPolarity));
 253              		.loc 1 604 3 view .LVU76
 605:Drivers/STM32L0xx_HAL_Driver/Src/stm32l0xx_ll_tim.c **** 
 606:Drivers/STM32L0xx_HAL_Driver/Src/stm32l0xx_ll_tim.c ****   /* Disable the Channel 3: Reset the CC3E Bit */
 607:Drivers/STM32L0xx_HAL_Driver/Src/stm32l0xx_ll_tim.c ****   CLEAR_BIT(TIMx->CCER, TIM_CCER_CC3E);
 254              		.loc 1 607 3 view .LVU77
 255 0002 036A     		ldr	r3, [r0, #32]
 256 0004 0C4E     		ldr	r6, .L6
 257 0006 3340     		ands	r3, r6
 258 0008 0362     		str	r3, [r0, #32]
 608:Drivers/STM32L0xx_HAL_Driver/Src/stm32l0xx_ll_tim.c **** 
 609:Drivers/STM32L0xx_HAL_Driver/Src/stm32l0xx_ll_tim.c ****   /* Get the TIMx CCER register value */
ARM GAS  /tmp/cckNMhWV.s 			page 46


 610:Drivers/STM32L0xx_HAL_Driver/Src/stm32l0xx_ll_tim.c ****   tmpccer =  LL_TIM_ReadReg(TIMx, CCER);
 259              		.loc 1 610 3 view .LVU78
 260              		.loc 1 610 11 is_stmt 0 view .LVU79
 261 000a 036A     		ldr	r3, [r0, #32]
 262              	.LVL29:
 611:Drivers/STM32L0xx_HAL_Driver/Src/stm32l0xx_ll_tim.c **** 
 612:Drivers/STM32L0xx_HAL_Driver/Src/stm32l0xx_ll_tim.c ****   /* Get the TIMx CR2 register value */
 613:Drivers/STM32L0xx_HAL_Driver/Src/stm32l0xx_ll_tim.c ****   tmpcr2 = LL_TIM_ReadReg(TIMx, CR2);
 263              		.loc 1 613 3 is_stmt 1 view .LVU80
