ARM GAS  /tmp/ccr6mobF.s 			page 1


   1              		.cpu cortex-m0plus
   2              		.arch armv6s-m
   3              		.fpu softvfp
   4              		.eabi_attribute 20, 1
   5              		.eabi_attribute 21, 1
   6              		.eabi_attribute 23, 3
   7              		.eabi_attribute 24, 1
   8              		.eabi_attribute 25, 1
   9              		.eabi_attribute 26, 1
  10              		.eabi_attribute 30, 1
  11              		.eabi_attribute 34, 0
  12              		.eabi_attribute 18, 4
  13              		.file	"stm32l0xx_it.c"
  14              		.text
  15              	.Ltext0:
  16              		.cfi_sections	.debug_frame
  17              		.section	.text.NMI_Handler,"ax",%progbits
  18              		.align	1
  19              		.global	NMI_Handler
  20              		.syntax unified
  21              		.code	16
  22              		.thumb_func
  24              	NMI_Handler:
  25              	.LFB574:
  26              		.file 1 "Core/Src/stm32l0xx_it.c"
   1:Core/Src/stm32l0xx_it.c **** /* USER CODE BEGIN Header */
   2:Core/Src/stm32l0xx_it.c **** /**
   3:Core/Src/stm32l0xx_it.c ****   ******************************************************************************
   4:Core/Src/stm32l0xx_it.c ****   * @file    stm32l0xx_it.c
   5:Core/Src/stm32l0xx_it.c ****   * @brief   Interrupt Service Routines.
   6:Core/Src/stm32l0xx_it.c ****   ******************************************************************************
   7:Core/Src/stm32l0xx_it.c ****   * @attention
   8:Core/Src/stm32l0xx_it.c ****   *
   9:Core/Src/stm32l0xx_it.c ****   * Copyright (c) 2022 STMicroelectronics.
  10:Core/Src/stm32l0xx_it.c ****   * All rights reserved.
  11:Core/Src/stm32l0xx_it.c ****   *
  12:Core/Src/stm32l0xx_it.c ****   * This software is licensed under terms that can be found in the LICENSE file
  13:Core/Src/stm32l0xx_it.c ****   * in the root directory of this software component.
  14:Core/Src/stm32l0xx_it.c ****   * If no LICENSE file comes with this software, it is provided AS-IS.
  15:Core/Src/stm32l0xx_it.c ****   *
  16:Core/Src/stm32l0xx_it.c ****   ******************************************************************************
  17:Core/Src/stm32l0xx_it.c ****   */
  18:Core/Src/stm32l0xx_it.c **** /* USER CODE END Header */
  19:Core/Src/stm32l0xx_it.c **** 
  20:Core/Src/stm32l0xx_it.c **** /* Includes ------------------------------------------------------------------*/
  21:Core/Src/stm32l0xx_it.c **** #include "main.h"
  22:Core/Src/stm32l0xx_it.c **** #include "stm32l0xx_it.h"
  23:Core/Src/stm32l0xx_it.c **** /* Private includes ----------------------------------------------------------*/
  24:Core/Src/stm32l0xx_it.c **** /* USER CODE BEGIN Includes */
  25:Core/Src/stm32l0xx_it.c **** /* USER CODE END Includes */
  26:Core/Src/stm32l0xx_it.c **** 
  27:Core/Src/stm32l0xx_it.c **** /* Private typedef -----------------------------------------------------------*/
  28:Core/Src/stm32l0xx_it.c **** /* USER CODE BEGIN TD */
  29:Core/Src/stm32l0xx_it.c **** 
  30:Core/Src/stm32l0xx_it.c **** /* USER CODE END TD */
  31:Core/Src/stm32l0xx_it.c **** 
  32:Core/Src/stm32l0xx_it.c **** /* Private define ------------------------------------------------------------*/
ARM GAS  /tmp/ccr6mobF.s 			page 2


  33:Core/Src/stm32l0xx_it.c **** /* USER CODE BEGIN PD */
  34:Core/Src/stm32l0xx_it.c **** 
  35:Core/Src/stm32l0xx_it.c **** /* USER CODE END PD */
  36:Core/Src/stm32l0xx_it.c **** 
  37:Core/Src/stm32l0xx_it.c **** /* Private macro -------------------------------------------------------------*/
  38:Core/Src/stm32l0xx_it.c **** /* USER CODE BEGIN PM */
  39:Core/Src/stm32l0xx_it.c **** 
  40:Core/Src/stm32l0xx_it.c **** /* USER CODE END PM */
  41:Core/Src/stm32l0xx_it.c **** 
  42:Core/Src/stm32l0xx_it.c **** /* Private variables ---------------------------------------------------------*/
  43:Core/Src/stm32l0xx_it.c **** /* USER CODE BEGIN PV */
  44:Core/Src/stm32l0xx_it.c **** 
  45:Core/Src/stm32l0xx_it.c **** /* USER CODE END PV */
  46:Core/Src/stm32l0xx_it.c **** 
  47:Core/Src/stm32l0xx_it.c **** /* Private function prototypes -----------------------------------------------*/
  48:Core/Src/stm32l0xx_it.c **** /* USER CODE BEGIN PFP */
  49:Core/Src/stm32l0xx_it.c **** 
  50:Core/Src/stm32l0xx_it.c **** /* USER CODE END PFP */
  51:Core/Src/stm32l0xx_it.c **** 
  52:Core/Src/stm32l0xx_it.c **** /* Private user code ---------------------------------------------------------*/
  53:Core/Src/stm32l0xx_it.c **** /* USER CODE BEGIN 0 */
  54:Core/Src/stm32l0xx_it.c **** extern volatile uint16_t count;
  55:Core/Src/stm32l0xx_it.c **** extern volatile uint8_t Cloasing_now;
  56:Core/Src/stm32l0xx_it.c **** /* USER CODE END 0 */
  57:Core/Src/stm32l0xx_it.c **** 
  58:Core/Src/stm32l0xx_it.c **** /* External variables --------------------------------------------------------*/
  59:Core/Src/stm32l0xx_it.c **** 
  60:Core/Src/stm32l0xx_it.c **** /* USER CODE BEGIN EV */
  61:Core/Src/stm32l0xx_it.c **** 
  62:Core/Src/stm32l0xx_it.c **** /* USER CODE END EV */
  63:Core/Src/stm32l0xx_it.c **** 
  64:Core/Src/stm32l0xx_it.c **** /******************************************************************************/
  65:Core/Src/stm32l0xx_it.c **** /*           Cortex-M0+ Processor Interruption and Exception Handlers          */
  66:Core/Src/stm32l0xx_it.c **** /******************************************************************************/
  67:Core/Src/stm32l0xx_it.c **** /**
  68:Core/Src/stm32l0xx_it.c ****   * @brief This function handles Non maskable Interrupt.
  69:Core/Src/stm32l0xx_it.c ****   */
  70:Core/Src/stm32l0xx_it.c **** void NMI_Handler(void)
  71:Core/Src/stm32l0xx_it.c **** {
  27              		.loc 1 71 1 view -0
  28              		.cfi_startproc
  29              		@ Volatile: function does not return.
  30              		@ args = 0, pretend = 0, frame = 0
  31              		@ frame_needed = 0, uses_anonymous_args = 0
  32              		@ link register save eliminated.
  33              	.L2:
  72:Core/Src/stm32l0xx_it.c ****   /* USER CODE BEGIN NonMaskableInt_IRQn 0 */
  73:Core/Src/stm32l0xx_it.c **** 
  74:Core/Src/stm32l0xx_it.c ****   /* USER CODE END NonMaskableInt_IRQn 0 */
  75:Core/Src/stm32l0xx_it.c ****   /* USER CODE BEGIN NonMaskableInt_IRQn 1 */
  76:Core/Src/stm32l0xx_it.c ****   while (1)
  34              		.loc 1 76 3 discriminator 1 view .LVU1
  77:Core/Src/stm32l0xx_it.c ****   {
  78:Core/Src/stm32l0xx_it.c ****   }
  35              		.loc 1 78 3 discriminator 1 view .LVU2
  76:Core/Src/stm32l0xx_it.c ****   {
  36              		.loc 1 76 9 discriminator 1 view .LVU3
ARM GAS  /tmp/ccr6mobF.s 			page 3


  37 0000 FEE7     		b	.L2
  38              		.cfi_endproc
  39              	.LFE574:
  41              		.section	.text.HardFault_Handler,"ax",%progbits
  42              		.align	1
  43              		.global	HardFault_Handler
  44              		.syntax unified
  45              		.code	16
  46              		.thumb_func
  48              	HardFault_Handler:
  49              	.LFB575:
  79:Core/Src/stm32l0xx_it.c ****   /* USER CODE END NonMaskableInt_IRQn 1 */
  80:Core/Src/stm32l0xx_it.c **** }
  81:Core/Src/stm32l0xx_it.c **** 
  82:Core/Src/stm32l0xx_it.c **** /**
  83:Core/Src/stm32l0xx_it.c ****   * @brief This function handles Hard fault interrupt.
  84:Core/Src/stm32l0xx_it.c ****   */
  85:Core/Src/stm32l0xx_it.c **** void HardFault_Handler(void)
  86:Core/Src/stm32l0xx_it.c **** {
  50              		.loc 1 86 1 view -0
  51              		.cfi_startproc
  52              		@ Volatile: function does not return.
  53              		@ args = 0, pretend = 0, frame = 0
  54              		@ frame_needed = 0, uses_anonymous_args = 0
  55              		@ link register save eliminated.
  56              	.L4:
  87:Core/Src/stm32l0xx_it.c ****   /* USER CODE BEGIN HardFault_IRQn 0 */
  88:Core/Src/stm32l0xx_it.c **** 
  89:Core/Src/stm32l0xx_it.c ****   /* USER CODE END HardFault_IRQn 0 */
  90:Core/Src/stm32l0xx_it.c ****   while (1)
  57              		.loc 1 90 3 discriminator 1 view .LVU5
  91:Core/Src/stm32l0xx_it.c ****   {
  92:Core/Src/stm32l0xx_it.c ****     /* USER CODE BEGIN W1_HardFault_IRQn 0 */
  93:Core/Src/stm32l0xx_it.c ****     /* USER CODE END W1_HardFault_IRQn 0 */
  94:Core/Src/stm32l0xx_it.c ****   }
  58              		.loc 1 94 3 discriminator 1 view .LVU6
  90:Core/Src/stm32l0xx_it.c ****   {
  59              		.loc 1 90 9 discriminator 1 view .LVU7
  60 0000 FEE7     		b	.L4
  61              		.cfi_endproc
  62              	.LFE575:
  64              		.section	.text.SVC_Handler,"ax",%progbits
  65              		.align	1
  66              		.global	SVC_Handler
  67              		.syntax unified
  68              		.code	16
  69              		.thumb_func
  71              	SVC_Handler:
  72              	.LFB576:
  95:Core/Src/stm32l0xx_it.c **** }
  96:Core/Src/stm32l0xx_it.c **** 
  97:Core/Src/stm32l0xx_it.c **** /**
  98:Core/Src/stm32l0xx_it.c ****   * @brief This function handles System service call via SWI instruction.
  99:Core/Src/stm32l0xx_it.c ****   */
 100:Core/Src/stm32l0xx_it.c **** void SVC_Handler(void)
 101:Core/Src/stm32l0xx_it.c **** {
  73              		.loc 1 101 1 view -0
ARM GAS  /tmp/ccr6mobF.s 			page 4


  74              		.cfi_startproc
  75              		@ args = 0, pretend = 0, frame = 0
  76              		@ frame_needed = 0, uses_anonymous_args = 0
  77              		@ link register save eliminated.
 102:Core/Src/stm32l0xx_it.c ****   /* USER CODE BEGIN SVC_IRQn 0 */
 103:Core/Src/stm32l0xx_it.c **** 
 104:Core/Src/stm32l0xx_it.c ****   /* USER CODE END SVC_IRQn 0 */
 105:Core/Src/stm32l0xx_it.c ****   /* USER CODE BEGIN SVC_IRQn 1 */
 106:Core/Src/stm32l0xx_it.c **** 
 107:Core/Src/stm32l0xx_it.c ****   /* USER CODE END SVC_IRQn 1 */
 108:Core/Src/stm32l0xx_it.c **** }
  78              		.loc 1 108 1 view .LVU9
  79              		@ sp needed
  80 0000 7047     		bx	lr
  81              		.cfi_endproc
  82              	.LFE576:
  84              		.section	.text.PendSV_Handler,"ax",%progbits
  85              		.align	1
  86              		.global	PendSV_Handler
  87              		.syntax unified
  88              		.code	16
  89              		.thumb_func
  91              	PendSV_Handler:
  92              	.LFB577:
 109:Core/Src/stm32l0xx_it.c **** 
 110:Core/Src/stm32l0xx_it.c **** /**
 111:Core/Src/stm32l0xx_it.c ****   * @brief This function handles Pendable request for system service.
 112:Core/Src/stm32l0xx_it.c ****   */
 113:Core/Src/stm32l0xx_it.c **** void PendSV_Handler(void)
 114:Core/Src/stm32l0xx_it.c **** {
  93              		.loc 1 114 1 view -0
  94              		.cfi_startproc
  95              		@ args = 0, pretend = 0, frame = 0
  96              		@ frame_needed = 0, uses_anonymous_args = 0
  97              		@ link register save eliminated.
 115:Core/Src/stm32l0xx_it.c ****   /* USER CODE BEGIN PendSV_IRQn 0 */
 116:Core/Src/stm32l0xx_it.c **** 
 117:Core/Src/stm32l0xx_it.c ****   /* USER CODE END PendSV_IRQn 0 */
 118:Core/Src/stm32l0xx_it.c ****   /* USER CODE BEGIN PendSV_IRQn 1 */
 119:Core/Src/stm32l0xx_it.c **** 
 120:Core/Src/stm32l0xx_it.c ****   /* USER CODE END PendSV_IRQn 1 */
 121:Core/Src/stm32l0xx_it.c **** }
  98              		.loc 1 121 1 view .LVU11
  99              		@ sp needed
 100 0000 7047     		bx	lr
 101              		.cfi_endproc
 102              	.LFE577:
 104              		.section	.text.SysTick_Handler,"ax",%progbits
 105              		.align	1
 106              		.global	SysTick_Handler
 107              		.syntax unified
 108              		.code	16
 109              		.thumb_func
 111              	SysTick_Handler:
 112              	.LFB578:
 122:Core/Src/stm32l0xx_it.c **** 
 123:Core/Src/stm32l0xx_it.c **** /**
ARM GAS  /tmp/ccr6mobF.s 			page 5


 124:Core/Src/stm32l0xx_it.c ****   * @brief This function handles System tick timer.
 125:Core/Src/stm32l0xx_it.c ****   */
 126:Core/Src/stm32l0xx_it.c **** void SysTick_Handler(void)
 127:Core/Src/stm32l0xx_it.c **** {
 113              		.loc 1 127 1 view -0
 114              		.cfi_startproc
 115              		@ args = 0, pretend = 0, frame = 0
 116              		@ frame_needed = 0, uses_anonymous_args = 0
 117              		@ link register save eliminated.
 128:Core/Src/stm32l0xx_it.c ****   /* USER CODE BEGIN SysTick_IRQn 0 */
 129:Core/Src/stm32l0xx_it.c **** 
 130:Core/Src/stm32l0xx_it.c ****   /* USER CODE END SysTick_IRQn 0 */
 131:Core/Src/stm32l0xx_it.c **** 
 132:Core/Src/stm32l0xx_it.c ****   /* USER CODE BEGIN SysTick_IRQn 1 */
 133:Core/Src/stm32l0xx_it.c **** 
 134:Core/Src/stm32l0xx_it.c ****   /* USER CODE END SysTick_IRQn 1 */
 135:Core/Src/stm32l0xx_it.c **** }
 118              		.loc 1 135 1 view .LVU13
 119              		@ sp needed
 120 0000 7047     		bx	lr
 121              		.cfi_endproc
 122              	.LFE578:
 124              		.section	.text.EXTI0_1_IRQHandler,"ax",%progbits
 125              		.align	1
 126              		.global	EXTI0_1_IRQHandler
 127              		.syntax unified
 128              		.code	16
 129              		.thumb_func
 131              	EXTI0_1_IRQHandler:
 132              	.LFB579:
 136:Core/Src/stm32l0xx_it.c **** 
 137:Core/Src/stm32l0xx_it.c **** /******************************************************************************/
 138:Core/Src/stm32l0xx_it.c **** /* STM32L0xx Peripheral Interrupt Handlers                                    */
 139:Core/Src/stm32l0xx_it.c **** /* Add here the Interrupt Handlers for the used peripherals.                  */
 140:Core/Src/stm32l0xx_it.c **** /* For the available peripheral interrupt handler names,                      */
 141:Core/Src/stm32l0xx_it.c **** /* please refer to the startup file (startup_stm32l0xx.s).                    */
 142:Core/Src/stm32l0xx_it.c **** /******************************************************************************/
 143:Core/Src/stm32l0xx_it.c **** 
 144:Core/Src/stm32l0xx_it.c **** /**
 145:Core/Src/stm32l0xx_it.c ****   * @brief This function handles EXTI line 0 and line 1 interrupts.
 146:Core/Src/stm32l0xx_it.c ****   */
 147:Core/Src/stm32l0xx_it.c **** void EXTI0_1_IRQHandler(void)
 148:Core/Src/stm32l0xx_it.c **** {
 133              		.loc 1 148 1 view -0
 134              		.cfi_startproc
 135              		@ args = 0, pretend = 0, frame = 0
 136              		@ frame_needed = 0, uses_anonymous_args = 0
 137              		@ link register save eliminated.
 149:Core/Src/stm32l0xx_it.c ****   /* USER CODE BEGIN EXTI0_1_IRQn 0 */
 150:Core/Src/stm32l0xx_it.c **** 
 151:Core/Src/stm32l0xx_it.c ****   /* USER CODE END EXTI0_1_IRQn 0 */
 152:Core/Src/stm32l0xx_it.c ****   if (LL_EXTI_IsActiveFlag_0_31(LL_EXTI_LINE_0) != RESET) // Bill input
 138              		.loc 1 152 3 view .LVU15
 139              	.LVL0:
 140              	.LBB18:
 141              	.LBI18:
 142              		.file 2 "Drivers/STM32L0xx_HAL_Driver/Inc/stm32l0xx_ll_exti.h"
ARM GAS  /tmp/ccr6mobF.s 			page 6


   1:Drivers/STM32L0xx_HAL_Driver/Inc/stm32l0xx_ll_exti.h **** /**
   2:Drivers/STM32L0xx_HAL_Driver/Inc/stm32l0xx_ll_exti.h ****   ******************************************************************************
   3:Drivers/STM32L0xx_HAL_Driver/Inc/stm32l0xx_ll_exti.h ****   * @file    stm32l0xx_ll_exti.h
   4:Drivers/STM32L0xx_HAL_Driver/Inc/stm32l0xx_ll_exti.h ****   * @author  MCD Application Team
   5:Drivers/STM32L0xx_HAL_Driver/Inc/stm32l0xx_ll_exti.h ****   * @brief   Header file of EXTI LL module.
   6:Drivers/STM32L0xx_HAL_Driver/Inc/stm32l0xx_ll_exti.h ****   ******************************************************************************
   7:Drivers/STM32L0xx_HAL_Driver/Inc/stm32l0xx_ll_exti.h ****   * @attention
   8:Drivers/STM32L0xx_HAL_Driver/Inc/stm32l0xx_ll_exti.h ****   *
   9:Drivers/STM32L0xx_HAL_Driver/Inc/stm32l0xx_ll_exti.h ****   * <h2><center>&copy; Copyright(c) 2016 STMicroelectronics.
  10:Drivers/STM32L0xx_HAL_Driver/Inc/stm32l0xx_ll_exti.h ****   * All rights reserved.</center></h2>
  11:Drivers/STM32L0xx_HAL_Driver/Inc/stm32l0xx_ll_exti.h ****   *
  12:Drivers/STM32L0xx_HAL_Driver/Inc/stm32l0xx_ll_exti.h ****   * This software component is licensed by ST under BSD 3-Clause license,
  13:Drivers/STM32L0xx_HAL_Driver/Inc/stm32l0xx_ll_exti.h ****   * the "License"; You may not use this file except in compliance with the
  14:Drivers/STM32L0xx_HAL_Driver/Inc/stm32l0xx_ll_exti.h ****   * License. You may obtain a copy of the License at:
  15:Drivers/STM32L0xx_HAL_Driver/Inc/stm32l0xx_ll_exti.h ****   *                        opensource.org/licenses/BSD-3-Clause
  16:Drivers/STM32L0xx_HAL_Driver/Inc/stm32l0xx_ll_exti.h ****   *
  17:Drivers/STM32L0xx_HAL_Driver/Inc/stm32l0xx_ll_exti.h ****   ******************************************************************************
  18:Drivers/STM32L0xx_HAL_Driver/Inc/stm32l0xx_ll_exti.h ****   */
  19:Drivers/STM32L0xx_HAL_Driver/Inc/stm32l0xx_ll_exti.h **** 
  20:Drivers/STM32L0xx_HAL_Driver/Inc/stm32l0xx_ll_exti.h **** /* Define to prevent recursive inclusion -------------------------------------*/
  21:Drivers/STM32L0xx_HAL_Driver/Inc/stm32l0xx_ll_exti.h **** #ifndef __STM32L0xx_LL_EXTI_H
  22:Drivers/STM32L0xx_HAL_Driver/Inc/stm32l0xx_ll_exti.h **** #define __STM32L0xx_LL_EXTI_H
  23:Drivers/STM32L0xx_HAL_Driver/Inc/stm32l0xx_ll_exti.h **** 
  24:Drivers/STM32L0xx_HAL_Driver/Inc/stm32l0xx_ll_exti.h **** #ifdef __cplusplus
  25:Drivers/STM32L0xx_HAL_Driver/Inc/stm32l0xx_ll_exti.h **** extern "C" {
  26:Drivers/STM32L0xx_HAL_Driver/Inc/stm32l0xx_ll_exti.h **** #endif
  27:Drivers/STM32L0xx_HAL_Driver/Inc/stm32l0xx_ll_exti.h **** 
  28:Drivers/STM32L0xx_HAL_Driver/Inc/stm32l0xx_ll_exti.h **** /* Includes ------------------------------------------------------------------*/
  29:Drivers/STM32L0xx_HAL_Driver/Inc/stm32l0xx_ll_exti.h **** #include "stm32l0xx.h"
  30:Drivers/STM32L0xx_HAL_Driver/Inc/stm32l0xx_ll_exti.h **** 
  31:Drivers/STM32L0xx_HAL_Driver/Inc/stm32l0xx_ll_exti.h **** /** @addtogroup STM32L0xx_LL_Driver
  32:Drivers/STM32L0xx_HAL_Driver/Inc/stm32l0xx_ll_exti.h ****   * @{
  33:Drivers/STM32L0xx_HAL_Driver/Inc/stm32l0xx_ll_exti.h ****   */
  34:Drivers/STM32L0xx_HAL_Driver/Inc/stm32l0xx_ll_exti.h **** 
  35:Drivers/STM32L0xx_HAL_Driver/Inc/stm32l0xx_ll_exti.h **** #if defined (EXTI)
  36:Drivers/STM32L0xx_HAL_Driver/Inc/stm32l0xx_ll_exti.h **** 
  37:Drivers/STM32L0xx_HAL_Driver/Inc/stm32l0xx_ll_exti.h **** /** @defgroup EXTI_LL EXTI
  38:Drivers/STM32L0xx_HAL_Driver/Inc/stm32l0xx_ll_exti.h ****   * @{
  39:Drivers/STM32L0xx_HAL_Driver/Inc/stm32l0xx_ll_exti.h ****   */
  40:Drivers/STM32L0xx_HAL_Driver/Inc/stm32l0xx_ll_exti.h **** 
  41:Drivers/STM32L0xx_HAL_Driver/Inc/stm32l0xx_ll_exti.h **** /* Private types -------------------------------------------------------------*/
  42:Drivers/STM32L0xx_HAL_Driver/Inc/stm32l0xx_ll_exti.h **** /* Private variables ---------------------------------------------------------*/
  43:Drivers/STM32L0xx_HAL_Driver/Inc/stm32l0xx_ll_exti.h **** /* Private constants ---------------------------------------------------------*/
  44:Drivers/STM32L0xx_HAL_Driver/Inc/stm32l0xx_ll_exti.h **** /* Private Macros ------------------------------------------------------------*/
  45:Drivers/STM32L0xx_HAL_Driver/Inc/stm32l0xx_ll_exti.h **** #if defined(USE_FULL_LL_DRIVER)
  46:Drivers/STM32L0xx_HAL_Driver/Inc/stm32l0xx_ll_exti.h **** /** @defgroup EXTI_LL_Private_Macros EXTI Private Macros
  47:Drivers/STM32L0xx_HAL_Driver/Inc/stm32l0xx_ll_exti.h ****   * @{
  48:Drivers/STM32L0xx_HAL_Driver/Inc/stm32l0xx_ll_exti.h ****   */
  49:Drivers/STM32L0xx_HAL_Driver/Inc/stm32l0xx_ll_exti.h **** /**
  50:Drivers/STM32L0xx_HAL_Driver/Inc/stm32l0xx_ll_exti.h ****   * @}
  51:Drivers/STM32L0xx_HAL_Driver/Inc/stm32l0xx_ll_exti.h ****   */
  52:Drivers/STM32L0xx_HAL_Driver/Inc/stm32l0xx_ll_exti.h **** #endif /*USE_FULL_LL_DRIVER*/
  53:Drivers/STM32L0xx_HAL_Driver/Inc/stm32l0xx_ll_exti.h **** /* Exported types ------------------------------------------------------------*/
  54:Drivers/STM32L0xx_HAL_Driver/Inc/stm32l0xx_ll_exti.h **** #if defined(USE_FULL_LL_DRIVER)
  55:Drivers/STM32L0xx_HAL_Driver/Inc/stm32l0xx_ll_exti.h **** /** @defgroup EXTI_LL_ES_INIT EXTI Exported Init structure
  56:Drivers/STM32L0xx_HAL_Driver/Inc/stm32l0xx_ll_exti.h ****   * @{
  57:Drivers/STM32L0xx_HAL_Driver/Inc/stm32l0xx_ll_exti.h ****   */
ARM GAS  /tmp/ccr6mobF.s 			page 7


  58:Drivers/STM32L0xx_HAL_Driver/Inc/stm32l0xx_ll_exti.h **** typedef struct
  59:Drivers/STM32L0xx_HAL_Driver/Inc/stm32l0xx_ll_exti.h **** {
  60:Drivers/STM32L0xx_HAL_Driver/Inc/stm32l0xx_ll_exti.h **** 
  61:Drivers/STM32L0xx_HAL_Driver/Inc/stm32l0xx_ll_exti.h ****   uint32_t Line_0_31;           /*!< Specifies the EXTI lines to be enabled or disabled for Lines i
  62:Drivers/STM32L0xx_HAL_Driver/Inc/stm32l0xx_ll_exti.h ****                                      This parameter can be any combination of @ref EXTI_LL_EC_LINE 
  63:Drivers/STM32L0xx_HAL_Driver/Inc/stm32l0xx_ll_exti.h **** 
  64:Drivers/STM32L0xx_HAL_Driver/Inc/stm32l0xx_ll_exti.h ****   FunctionalState LineCommand;  /*!< Specifies the new state of the selected EXTI lines.
  65:Drivers/STM32L0xx_HAL_Driver/Inc/stm32l0xx_ll_exti.h ****                                      This parameter can be set either to ENABLE or DISABLE */
  66:Drivers/STM32L0xx_HAL_Driver/Inc/stm32l0xx_ll_exti.h **** 
  67:Drivers/STM32L0xx_HAL_Driver/Inc/stm32l0xx_ll_exti.h ****   uint8_t Mode;                 /*!< Specifies the mode for the EXTI lines.
  68:Drivers/STM32L0xx_HAL_Driver/Inc/stm32l0xx_ll_exti.h ****                                      This parameter can be a value of @ref EXTI_LL_EC_MODE. */
  69:Drivers/STM32L0xx_HAL_Driver/Inc/stm32l0xx_ll_exti.h **** 
  70:Drivers/STM32L0xx_HAL_Driver/Inc/stm32l0xx_ll_exti.h ****   uint8_t Trigger;              /*!< Specifies the trigger signal active edge for the EXTI lines.
  71:Drivers/STM32L0xx_HAL_Driver/Inc/stm32l0xx_ll_exti.h ****                                      This parameter can be a value of @ref EXTI_LL_EC_TRIGGER. */
  72:Drivers/STM32L0xx_HAL_Driver/Inc/stm32l0xx_ll_exti.h **** } LL_EXTI_InitTypeDef;
  73:Drivers/STM32L0xx_HAL_Driver/Inc/stm32l0xx_ll_exti.h **** 
  74:Drivers/STM32L0xx_HAL_Driver/Inc/stm32l0xx_ll_exti.h **** /**
  75:Drivers/STM32L0xx_HAL_Driver/Inc/stm32l0xx_ll_exti.h ****   * @}
  76:Drivers/STM32L0xx_HAL_Driver/Inc/stm32l0xx_ll_exti.h ****   */
  77:Drivers/STM32L0xx_HAL_Driver/Inc/stm32l0xx_ll_exti.h **** #endif /*USE_FULL_LL_DRIVER*/
  78:Drivers/STM32L0xx_HAL_Driver/Inc/stm32l0xx_ll_exti.h **** 
  79:Drivers/STM32L0xx_HAL_Driver/Inc/stm32l0xx_ll_exti.h **** /* Exported constants --------------------------------------------------------*/
  80:Drivers/STM32L0xx_HAL_Driver/Inc/stm32l0xx_ll_exti.h **** /** @defgroup EXTI_LL_Exported_Constants EXTI Exported Constants
  81:Drivers/STM32L0xx_HAL_Driver/Inc/stm32l0xx_ll_exti.h ****   * @{
  82:Drivers/STM32L0xx_HAL_Driver/Inc/stm32l0xx_ll_exti.h ****   */
  83:Drivers/STM32L0xx_HAL_Driver/Inc/stm32l0xx_ll_exti.h **** 
  84:Drivers/STM32L0xx_HAL_Driver/Inc/stm32l0xx_ll_exti.h **** /** @defgroup EXTI_LL_EC_LINE LINE
  85:Drivers/STM32L0xx_HAL_Driver/Inc/stm32l0xx_ll_exti.h ****   * @{
  86:Drivers/STM32L0xx_HAL_Driver/Inc/stm32l0xx_ll_exti.h ****   */
  87:Drivers/STM32L0xx_HAL_Driver/Inc/stm32l0xx_ll_exti.h **** #define LL_EXTI_LINE_0                 EXTI_IMR_IM0           /*!< Extended line 0 */
  88:Drivers/STM32L0xx_HAL_Driver/Inc/stm32l0xx_ll_exti.h **** #define LL_EXTI_LINE_1                 EXTI_IMR_IM1           /*!< Extended line 1 */
  89:Drivers/STM32L0xx_HAL_Driver/Inc/stm32l0xx_ll_exti.h **** #define LL_EXTI_LINE_2                 EXTI_IMR_IM2           /*!< Extended line 2 */
  90:Drivers/STM32L0xx_HAL_Driver/Inc/stm32l0xx_ll_exti.h **** #define LL_EXTI_LINE_3                 EXTI_IMR_IM3           /*!< Extended line 3 */
  91:Drivers/STM32L0xx_HAL_Driver/Inc/stm32l0xx_ll_exti.h **** #define LL_EXTI_LINE_4                 EXTI_IMR_IM4           /*!< Extended line 4 */
  92:Drivers/STM32L0xx_HAL_Driver/Inc/stm32l0xx_ll_exti.h **** #define LL_EXTI_LINE_5                 EXTI_IMR_IM5           /*!< Extended line 5 */
  93:Drivers/STM32L0xx_HAL_Driver/Inc/stm32l0xx_ll_exti.h **** #define LL_EXTI_LINE_6                 EXTI_IMR_IM6           /*!< Extended line 6 */
  94:Drivers/STM32L0xx_HAL_Driver/Inc/stm32l0xx_ll_exti.h **** #define LL_EXTI_LINE_7                 EXTI_IMR_IM7           /*!< Extended line 7 */
  95:Drivers/STM32L0xx_HAL_Driver/Inc/stm32l0xx_ll_exti.h **** #define LL_EXTI_LINE_8                 EXTI_IMR_IM8           /*!< Extended line 8 */
  96:Drivers/STM32L0xx_HAL_Driver/Inc/stm32l0xx_ll_exti.h **** #define LL_EXTI_LINE_9                 EXTI_IMR_IM9           /*!< Extended line 9 */
  97:Drivers/STM32L0xx_HAL_Driver/Inc/stm32l0xx_ll_exti.h **** #define LL_EXTI_LINE_10                EXTI_IMR_IM10          /*!< Extended line 10 */
  98:Drivers/STM32L0xx_HAL_Driver/Inc/stm32l0xx_ll_exti.h **** #define LL_EXTI_LINE_11                EXTI_IMR_IM11          /*!< Extended line 11 */
  99:Drivers/STM32L0xx_HAL_Driver/Inc/stm32l0xx_ll_exti.h **** #define LL_EXTI_LINE_12                EXTI_IMR_IM12          /*!< Extended line 12 */
 100:Drivers/STM32L0xx_HAL_Driver/Inc/stm32l0xx_ll_exti.h **** #define LL_EXTI_LINE_13                EXTI_IMR_IM13          /*!< Extended line 13 */
 101:Drivers/STM32L0xx_HAL_Driver/Inc/stm32l0xx_ll_exti.h **** #define LL_EXTI_LINE_14                EXTI_IMR_IM14          /*!< Extended line 14 */
 102:Drivers/STM32L0xx_HAL_Driver/Inc/stm32l0xx_ll_exti.h **** #define LL_EXTI_LINE_15                EXTI_IMR_IM15          /*!< Extended line 15 */
 103:Drivers/STM32L0xx_HAL_Driver/Inc/stm32l0xx_ll_exti.h **** #if defined(EXTI_IMR_IM16)
 104:Drivers/STM32L0xx_HAL_Driver/Inc/stm32l0xx_ll_exti.h **** #define LL_EXTI_LINE_16                EXTI_IMR_IM16          /*!< Extended line 16 */
 105:Drivers/STM32L0xx_HAL_Driver/Inc/stm32l0xx_ll_exti.h **** #endif
 106:Drivers/STM32L0xx_HAL_Driver/Inc/stm32l0xx_ll_exti.h **** #define LL_EXTI_LINE_17                EXTI_IMR_IM17          /*!< Extended line 17 */
 107:Drivers/STM32L0xx_HAL_Driver/Inc/stm32l0xx_ll_exti.h **** #if defined(EXTI_IMR_IM18)
 108:Drivers/STM32L0xx_HAL_Driver/Inc/stm32l0xx_ll_exti.h **** #define LL_EXTI_LINE_18                EXTI_IMR_IM18          /*!< Extended line 18 */
 109:Drivers/STM32L0xx_HAL_Driver/Inc/stm32l0xx_ll_exti.h **** #endif
 110:Drivers/STM32L0xx_HAL_Driver/Inc/stm32l0xx_ll_exti.h **** #define LL_EXTI_LINE_19                EXTI_IMR_IM19          /*!< Extended line 19 */
 111:Drivers/STM32L0xx_HAL_Driver/Inc/stm32l0xx_ll_exti.h **** #if defined(EXTI_IMR_IM20)
 112:Drivers/STM32L0xx_HAL_Driver/Inc/stm32l0xx_ll_exti.h **** #define LL_EXTI_LINE_20                EXTI_IMR_IM20          /*!< Extended line 20 */
 113:Drivers/STM32L0xx_HAL_Driver/Inc/stm32l0xx_ll_exti.h **** #endif
 114:Drivers/STM32L0xx_HAL_Driver/Inc/stm32l0xx_ll_exti.h **** #if defined(EXTI_IMR_IM21)
ARM GAS  /tmp/ccr6mobF.s 			page 8


 115:Drivers/STM32L0xx_HAL_Driver/Inc/stm32l0xx_ll_exti.h **** #define LL_EXTI_LINE_21                EXTI_IMR_IM21          /*!< Extended line 21 */
 116:Drivers/STM32L0xx_HAL_Driver/Inc/stm32l0xx_ll_exti.h **** #endif
 117:Drivers/STM32L0xx_HAL_Driver/Inc/stm32l0xx_ll_exti.h **** #if defined(EXTI_IMR_IM22)
 118:Drivers/STM32L0xx_HAL_Driver/Inc/stm32l0xx_ll_exti.h **** #define LL_EXTI_LINE_22                EXTI_IMR_IM22          /*!< Extended line 22 */
 119:Drivers/STM32L0xx_HAL_Driver/Inc/stm32l0xx_ll_exti.h **** #endif
 120:Drivers/STM32L0xx_HAL_Driver/Inc/stm32l0xx_ll_exti.h **** #define LL_EXTI_LINE_23                EXTI_IMR_IM23          /*!< Extended line 23 */
 121:Drivers/STM32L0xx_HAL_Driver/Inc/stm32l0xx_ll_exti.h **** #if defined(EXTI_IMR_IM24)
 122:Drivers/STM32L0xx_HAL_Driver/Inc/stm32l0xx_ll_exti.h **** #define LL_EXTI_LINE_24                EXTI_IMR_IM24          /*!< Extended line 24 */
 123:Drivers/STM32L0xx_HAL_Driver/Inc/stm32l0xx_ll_exti.h **** #endif
 124:Drivers/STM32L0xx_HAL_Driver/Inc/stm32l0xx_ll_exti.h **** #if defined(EXTI_IMR_IM25)
 125:Drivers/STM32L0xx_HAL_Driver/Inc/stm32l0xx_ll_exti.h **** #define LL_EXTI_LINE_25                EXTI_IMR_IM25          /*!< Extended line 25 */
 126:Drivers/STM32L0xx_HAL_Driver/Inc/stm32l0xx_ll_exti.h **** #endif
 127:Drivers/STM32L0xx_HAL_Driver/Inc/stm32l0xx_ll_exti.h **** #if defined(EXTI_IMR_IM26)
 128:Drivers/STM32L0xx_HAL_Driver/Inc/stm32l0xx_ll_exti.h **** #define LL_EXTI_LINE_26                EXTI_IMR_IM26          /*!< Extended line 26 */
 129:Drivers/STM32L0xx_HAL_Driver/Inc/stm32l0xx_ll_exti.h **** #endif
 130:Drivers/STM32L0xx_HAL_Driver/Inc/stm32l0xx_ll_exti.h **** #if defined(EXTI_IMR_IM27)
 131:Drivers/STM32L0xx_HAL_Driver/Inc/stm32l0xx_ll_exti.h **** #define LL_EXTI_LINE_27                EXTI_IMR_IM27          /*!< Extended line 27 */
 132:Drivers/STM32L0xx_HAL_Driver/Inc/stm32l0xx_ll_exti.h **** #endif
 133:Drivers/STM32L0xx_HAL_Driver/Inc/stm32l0xx_ll_exti.h **** #if defined(EXTI_IMR_IM28)
 134:Drivers/STM32L0xx_HAL_Driver/Inc/stm32l0xx_ll_exti.h **** #define LL_EXTI_LINE_28                EXTI_IMR_IM28          /*!< Extended line 28 */
 135:Drivers/STM32L0xx_HAL_Driver/Inc/stm32l0xx_ll_exti.h **** #endif
 136:Drivers/STM32L0xx_HAL_Driver/Inc/stm32l0xx_ll_exti.h **** #if defined(EXTI_IMR_IM29)
 137:Drivers/STM32L0xx_HAL_Driver/Inc/stm32l0xx_ll_exti.h **** #define LL_EXTI_LINE_29                EXTI_IMR_IM29          /*!< Extended line 29 */
 138:Drivers/STM32L0xx_HAL_Driver/Inc/stm32l0xx_ll_exti.h **** #endif
 139:Drivers/STM32L0xx_HAL_Driver/Inc/stm32l0xx_ll_exti.h **** #if defined(EXTI_IMR_IM30)
 140:Drivers/STM32L0xx_HAL_Driver/Inc/stm32l0xx_ll_exti.h **** #define LL_EXTI_LINE_30                EXTI_IMR_IM30          /*!< Extended line 30 */
 141:Drivers/STM32L0xx_HAL_Driver/Inc/stm32l0xx_ll_exti.h **** #endif
 142:Drivers/STM32L0xx_HAL_Driver/Inc/stm32l0xx_ll_exti.h **** #if defined(EXTI_IMR_IM31)
 143:Drivers/STM32L0xx_HAL_Driver/Inc/stm32l0xx_ll_exti.h **** #define LL_EXTI_LINE_31                EXTI_IMR_IM31          /*!< Extended line 31 */
 144:Drivers/STM32L0xx_HAL_Driver/Inc/stm32l0xx_ll_exti.h **** #endif
 145:Drivers/STM32L0xx_HAL_Driver/Inc/stm32l0xx_ll_exti.h **** #define LL_EXTI_LINE_ALL_0_31          EXTI_IMR_IM            /*!< All Extended line not reserved*/
 146:Drivers/STM32L0xx_HAL_Driver/Inc/stm32l0xx_ll_exti.h **** 
 147:Drivers/STM32L0xx_HAL_Driver/Inc/stm32l0xx_ll_exti.h **** 
 148:Drivers/STM32L0xx_HAL_Driver/Inc/stm32l0xx_ll_exti.h **** #define LL_EXTI_LINE_ALL               (0xFFFFFFFFU)          /*!< All Extended line */
 149:Drivers/STM32L0xx_HAL_Driver/Inc/stm32l0xx_ll_exti.h **** 
 150:Drivers/STM32L0xx_HAL_Driver/Inc/stm32l0xx_ll_exti.h **** #if defined(USE_FULL_LL_DRIVER)
 151:Drivers/STM32L0xx_HAL_Driver/Inc/stm32l0xx_ll_exti.h **** #define LL_EXTI_LINE_NONE              (0x00000000U)          /*!< None Extended line */
 152:Drivers/STM32L0xx_HAL_Driver/Inc/stm32l0xx_ll_exti.h **** #endif /*USE_FULL_LL_DRIVER*/
 153:Drivers/STM32L0xx_HAL_Driver/Inc/stm32l0xx_ll_exti.h **** 
 154:Drivers/STM32L0xx_HAL_Driver/Inc/stm32l0xx_ll_exti.h **** /**
 155:Drivers/STM32L0xx_HAL_Driver/Inc/stm32l0xx_ll_exti.h ****   * @}
 156:Drivers/STM32L0xx_HAL_Driver/Inc/stm32l0xx_ll_exti.h ****   */
 157:Drivers/STM32L0xx_HAL_Driver/Inc/stm32l0xx_ll_exti.h **** #if defined(USE_FULL_LL_DRIVER)
 158:Drivers/STM32L0xx_HAL_Driver/Inc/stm32l0xx_ll_exti.h **** 
 159:Drivers/STM32L0xx_HAL_Driver/Inc/stm32l0xx_ll_exti.h **** /** @defgroup EXTI_LL_EC_MODE Mode
 160:Drivers/STM32L0xx_HAL_Driver/Inc/stm32l0xx_ll_exti.h ****   * @{
 161:Drivers/STM32L0xx_HAL_Driver/Inc/stm32l0xx_ll_exti.h ****   */
 162:Drivers/STM32L0xx_HAL_Driver/Inc/stm32l0xx_ll_exti.h **** #define LL_EXTI_MODE_IT                 (0x00U) /*!< Interrupt Mode */
 163:Drivers/STM32L0xx_HAL_Driver/Inc/stm32l0xx_ll_exti.h **** #define LL_EXTI_MODE_EVENT              (0x01U) /*!< Event Mode */
 164:Drivers/STM32L0xx_HAL_Driver/Inc/stm32l0xx_ll_exti.h **** #define LL_EXTI_MODE_IT_EVENT           (0x02U) /*!< Interrupt & Event Mode */
 165:Drivers/STM32L0xx_HAL_Driver/Inc/stm32l0xx_ll_exti.h **** /**
 166:Drivers/STM32L0xx_HAL_Driver/Inc/stm32l0xx_ll_exti.h ****   * @}
 167:Drivers/STM32L0xx_HAL_Driver/Inc/stm32l0xx_ll_exti.h ****   */
 168:Drivers/STM32L0xx_HAL_Driver/Inc/stm32l0xx_ll_exti.h **** 
 169:Drivers/STM32L0xx_HAL_Driver/Inc/stm32l0xx_ll_exti.h **** /** @defgroup EXTI_LL_EC_TRIGGER Edge Trigger
 170:Drivers/STM32L0xx_HAL_Driver/Inc/stm32l0xx_ll_exti.h ****   * @{
 171:Drivers/STM32L0xx_HAL_Driver/Inc/stm32l0xx_ll_exti.h ****   */
ARM GAS  /tmp/ccr6mobF.s 			page 9


 172:Drivers/STM32L0xx_HAL_Driver/Inc/stm32l0xx_ll_exti.h **** #define LL_EXTI_TRIGGER_NONE            (0x00U) /*!< No Trigger Mode */
 173:Drivers/STM32L0xx_HAL_Driver/Inc/stm32l0xx_ll_exti.h **** #define LL_EXTI_TRIGGER_RISING          (0x01U) /*!< Trigger Rising Mode */
 174:Drivers/STM32L0xx_HAL_Driver/Inc/stm32l0xx_ll_exti.h **** #define LL_EXTI_TRIGGER_FALLING         (0x02U) /*!< Trigger Falling Mode */
 175:Drivers/STM32L0xx_HAL_Driver/Inc/stm32l0xx_ll_exti.h **** #define LL_EXTI_TRIGGER_RISING_FALLING  (0x03U) /*!< Trigger Rising & Falling Mode */
 176:Drivers/STM32L0xx_HAL_Driver/Inc/stm32l0xx_ll_exti.h **** 
 177:Drivers/STM32L0xx_HAL_Driver/Inc/stm32l0xx_ll_exti.h **** /**
 178:Drivers/STM32L0xx_HAL_Driver/Inc/stm32l0xx_ll_exti.h ****   * @}
 179:Drivers/STM32L0xx_HAL_Driver/Inc/stm32l0xx_ll_exti.h ****   */
 180:Drivers/STM32L0xx_HAL_Driver/Inc/stm32l0xx_ll_exti.h **** 
 181:Drivers/STM32L0xx_HAL_Driver/Inc/stm32l0xx_ll_exti.h **** 
 182:Drivers/STM32L0xx_HAL_Driver/Inc/stm32l0xx_ll_exti.h **** #endif /*USE_FULL_LL_DRIVER*/
 183:Drivers/STM32L0xx_HAL_Driver/Inc/stm32l0xx_ll_exti.h **** 
 184:Drivers/STM32L0xx_HAL_Driver/Inc/stm32l0xx_ll_exti.h **** 
 185:Drivers/STM32L0xx_HAL_Driver/Inc/stm32l0xx_ll_exti.h **** /**
 186:Drivers/STM32L0xx_HAL_Driver/Inc/stm32l0xx_ll_exti.h ****   * @}
 187:Drivers/STM32L0xx_HAL_Driver/Inc/stm32l0xx_ll_exti.h ****   */
 188:Drivers/STM32L0xx_HAL_Driver/Inc/stm32l0xx_ll_exti.h **** 
 189:Drivers/STM32L0xx_HAL_Driver/Inc/stm32l0xx_ll_exti.h **** /* Exported macro ------------------------------------------------------------*/
 190:Drivers/STM32L0xx_HAL_Driver/Inc/stm32l0xx_ll_exti.h **** /** @defgroup EXTI_LL_Exported_Macros EXTI Exported Macros
 191:Drivers/STM32L0xx_HAL_Driver/Inc/stm32l0xx_ll_exti.h ****   * @{
 192:Drivers/STM32L0xx_HAL_Driver/Inc/stm32l0xx_ll_exti.h ****   */
 193:Drivers/STM32L0xx_HAL_Driver/Inc/stm32l0xx_ll_exti.h **** 
 194:Drivers/STM32L0xx_HAL_Driver/Inc/stm32l0xx_ll_exti.h **** /** @defgroup EXTI_LL_EM_WRITE_READ Common Write and read registers Macros
 195:Drivers/STM32L0xx_HAL_Driver/Inc/stm32l0xx_ll_exti.h ****   * @{
 196:Drivers/STM32L0xx_HAL_Driver/Inc/stm32l0xx_ll_exti.h ****   */
 197:Drivers/STM32L0xx_HAL_Driver/Inc/stm32l0xx_ll_exti.h **** 
 198:Drivers/STM32L0xx_HAL_Driver/Inc/stm32l0xx_ll_exti.h **** /**
 199:Drivers/STM32L0xx_HAL_Driver/Inc/stm32l0xx_ll_exti.h ****   * @brief  Write a value in EXTI register
 200:Drivers/STM32L0xx_HAL_Driver/Inc/stm32l0xx_ll_exti.h ****   * @param  __REG__ Register to be written
 201:Drivers/STM32L0xx_HAL_Driver/Inc/stm32l0xx_ll_exti.h ****   * @param  __VALUE__ Value to be written in the register
 202:Drivers/STM32L0xx_HAL_Driver/Inc/stm32l0xx_ll_exti.h ****   * @retval None
 203:Drivers/STM32L0xx_HAL_Driver/Inc/stm32l0xx_ll_exti.h ****   */
 204:Drivers/STM32L0xx_HAL_Driver/Inc/stm32l0xx_ll_exti.h **** #define LL_EXTI_WriteReg(__REG__, __VALUE__) WRITE_REG(EXTI->__REG__, (__VALUE__))
 205:Drivers/STM32L0xx_HAL_Driver/Inc/stm32l0xx_ll_exti.h **** 
 206:Drivers/STM32L0xx_HAL_Driver/Inc/stm32l0xx_ll_exti.h **** /**
 207:Drivers/STM32L0xx_HAL_Driver/Inc/stm32l0xx_ll_exti.h ****   * @brief  Read a value in EXTI register
 208:Drivers/STM32L0xx_HAL_Driver/Inc/stm32l0xx_ll_exti.h ****   * @param  __REG__ Register to be read
 209:Drivers/STM32L0xx_HAL_Driver/Inc/stm32l0xx_ll_exti.h ****   * @retval Register value
 210:Drivers/STM32L0xx_HAL_Driver/Inc/stm32l0xx_ll_exti.h ****   */
 211:Drivers/STM32L0xx_HAL_Driver/Inc/stm32l0xx_ll_exti.h **** #define LL_EXTI_ReadReg(__REG__) READ_REG(EXTI->__REG__)
 212:Drivers/STM32L0xx_HAL_Driver/Inc/stm32l0xx_ll_exti.h **** /**
 213:Drivers/STM32L0xx_HAL_Driver/Inc/stm32l0xx_ll_exti.h ****   * @}
 214:Drivers/STM32L0xx_HAL_Driver/Inc/stm32l0xx_ll_exti.h ****   */
 215:Drivers/STM32L0xx_HAL_Driver/Inc/stm32l0xx_ll_exti.h **** 
 216:Drivers/STM32L0xx_HAL_Driver/Inc/stm32l0xx_ll_exti.h **** 
 217:Drivers/STM32L0xx_HAL_Driver/Inc/stm32l0xx_ll_exti.h **** /**
 218:Drivers/STM32L0xx_HAL_Driver/Inc/stm32l0xx_ll_exti.h ****   * @}
 219:Drivers/STM32L0xx_HAL_Driver/Inc/stm32l0xx_ll_exti.h ****   */
 220:Drivers/STM32L0xx_HAL_Driver/Inc/stm32l0xx_ll_exti.h **** 
 221:Drivers/STM32L0xx_HAL_Driver/Inc/stm32l0xx_ll_exti.h **** 
 222:Drivers/STM32L0xx_HAL_Driver/Inc/stm32l0xx_ll_exti.h **** 
 223:Drivers/STM32L0xx_HAL_Driver/Inc/stm32l0xx_ll_exti.h **** /* Exported functions --------------------------------------------------------*/
 224:Drivers/STM32L0xx_HAL_Driver/Inc/stm32l0xx_ll_exti.h **** /** @defgroup EXTI_LL_Exported_Functions EXTI Exported Functions
 225:Drivers/STM32L0xx_HAL_Driver/Inc/stm32l0xx_ll_exti.h ****  * @{
 226:Drivers/STM32L0xx_HAL_Driver/Inc/stm32l0xx_ll_exti.h ****  */
 227:Drivers/STM32L0xx_HAL_Driver/Inc/stm32l0xx_ll_exti.h **** /** @defgroup EXTI_LL_EF_IT_Management IT_Management
 228:Drivers/STM32L0xx_HAL_Driver/Inc/stm32l0xx_ll_exti.h ****   * @{
ARM GAS  /tmp/ccr6mobF.s 			page 10


 229:Drivers/STM32L0xx_HAL_Driver/Inc/stm32l0xx_ll_exti.h ****   */
 230:Drivers/STM32L0xx_HAL_Driver/Inc/stm32l0xx_ll_exti.h **** 
 231:Drivers/STM32L0xx_HAL_Driver/Inc/stm32l0xx_ll_exti.h **** /**
 232:Drivers/STM32L0xx_HAL_Driver/Inc/stm32l0xx_ll_exti.h ****   * @brief  Enable ExtiLine Interrupt request for Lines in range 0 to 31
 233:Drivers/STM32L0xx_HAL_Driver/Inc/stm32l0xx_ll_exti.h ****   * @note The reset value for the direct or internal lines (see RM)
 234:Drivers/STM32L0xx_HAL_Driver/Inc/stm32l0xx_ll_exti.h ****   *       is set to 1 in order to enable the interrupt by default.
 235:Drivers/STM32L0xx_HAL_Driver/Inc/stm32l0xx_ll_exti.h ****   *       Bits are set automatically at Power on.
 236:Drivers/STM32L0xx_HAL_Driver/Inc/stm32l0xx_ll_exti.h ****   * @rmtoll IMR         IMx           LL_EXTI_EnableIT_0_31
 237:Drivers/STM32L0xx_HAL_Driver/Inc/stm32l0xx_ll_exti.h ****   * @param  ExtiLine This parameter can be one of the following values:
 238:Drivers/STM32L0xx_HAL_Driver/Inc/stm32l0xx_ll_exti.h ****   *         @arg @ref LL_EXTI_LINE_0
 239:Drivers/STM32L0xx_HAL_Driver/Inc/stm32l0xx_ll_exti.h ****   *         @arg @ref LL_EXTI_LINE_1
 240:Drivers/STM32L0xx_HAL_Driver/Inc/stm32l0xx_ll_exti.h ****   *         @arg @ref LL_EXTI_LINE_2
 241:Drivers/STM32L0xx_HAL_Driver/Inc/stm32l0xx_ll_exti.h ****   *         @arg @ref LL_EXTI_LINE_3
 242:Drivers/STM32L0xx_HAL_Driver/Inc/stm32l0xx_ll_exti.h ****   *         @arg @ref LL_EXTI_LINE_4
 243:Drivers/STM32L0xx_HAL_Driver/Inc/stm32l0xx_ll_exti.h ****   *         @arg @ref LL_EXTI_LINE_5
 244:Drivers/STM32L0xx_HAL_Driver/Inc/stm32l0xx_ll_exti.h ****   *         @arg @ref LL_EXTI_LINE_6
 245:Drivers/STM32L0xx_HAL_Driver/Inc/stm32l0xx_ll_exti.h ****   *         @arg @ref LL_EXTI_LINE_7
 246:Drivers/STM32L0xx_HAL_Driver/Inc/stm32l0xx_ll_exti.h ****   *         @arg @ref LL_EXTI_LINE_8
 247:Drivers/STM32L0xx_HAL_Driver/Inc/stm32l0xx_ll_exti.h ****   *         @arg @ref LL_EXTI_LINE_9
 248:Drivers/STM32L0xx_HAL_Driver/Inc/stm32l0xx_ll_exti.h ****   *         @arg @ref LL_EXTI_LINE_10
 249:Drivers/STM32L0xx_HAL_Driver/Inc/stm32l0xx_ll_exti.h ****   *         @arg @ref LL_EXTI_LINE_11
 250:Drivers/STM32L0xx_HAL_Driver/Inc/stm32l0xx_ll_exti.h ****   *         @arg @ref LL_EXTI_LINE_12
 251:Drivers/STM32L0xx_HAL_Driver/Inc/stm32l0xx_ll_exti.h ****   *         @arg @ref LL_EXTI_LINE_13
 252:Drivers/STM32L0xx_HAL_Driver/Inc/stm32l0xx_ll_exti.h ****   *         @arg @ref LL_EXTI_LINE_14
 253:Drivers/STM32L0xx_HAL_Driver/Inc/stm32l0xx_ll_exti.h ****   *         @arg @ref LL_EXTI_LINE_15
 254:Drivers/STM32L0xx_HAL_Driver/Inc/stm32l0xx_ll_exti.h ****   *         @arg @ref LL_EXTI_LINE_16
 255:Drivers/STM32L0xx_HAL_Driver/Inc/stm32l0xx_ll_exti.h ****   *         @arg @ref LL_EXTI_LINE_17
 256:Drivers/STM32L0xx_HAL_Driver/Inc/stm32l0xx_ll_exti.h ****   *         @arg @ref LL_EXTI_LINE_18
 257:Drivers/STM32L0xx_HAL_Driver/Inc/stm32l0xx_ll_exti.h ****   *         @arg @ref LL_EXTI_LINE_19
 258:Drivers/STM32L0xx_HAL_Driver/Inc/stm32l0xx_ll_exti.h ****   *         @arg @ref LL_EXTI_LINE_20
 259:Drivers/STM32L0xx_HAL_Driver/Inc/stm32l0xx_ll_exti.h ****   *         @arg @ref LL_EXTI_LINE_21
 260:Drivers/STM32L0xx_HAL_Driver/Inc/stm32l0xx_ll_exti.h ****   *         @arg @ref LL_EXTI_LINE_22
 261:Drivers/STM32L0xx_HAL_Driver/Inc/stm32l0xx_ll_exti.h ****   *         @arg @ref LL_EXTI_LINE_23
 262:Drivers/STM32L0xx_HAL_Driver/Inc/stm32l0xx_ll_exti.h ****   *         @arg @ref LL_EXTI_LINE_24
 263:Drivers/STM32L0xx_HAL_Driver/Inc/stm32l0xx_ll_exti.h ****   *         @arg @ref LL_EXTI_LINE_25
 264:Drivers/STM32L0xx_HAL_Driver/Inc/stm32l0xx_ll_exti.h ****   *         @arg @ref LL_EXTI_LINE_26
 265:Drivers/STM32L0xx_HAL_Driver/Inc/stm32l0xx_ll_exti.h ****   *         @arg @ref LL_EXTI_LINE_27
 266:Drivers/STM32L0xx_HAL_Driver/Inc/stm32l0xx_ll_exti.h ****   *         @arg @ref LL_EXTI_LINE_28
 267:Drivers/STM32L0xx_HAL_Driver/Inc/stm32l0xx_ll_exti.h ****   *         @arg @ref LL_EXTI_LINE_29
 268:Drivers/STM32L0xx_HAL_Driver/Inc/stm32l0xx_ll_exti.h ****   *         @arg @ref LL_EXTI_LINE_30
 269:Drivers/STM32L0xx_HAL_Driver/Inc/stm32l0xx_ll_exti.h ****   *         @arg @ref LL_EXTI_LINE_31
 270:Drivers/STM32L0xx_HAL_Driver/Inc/stm32l0xx_ll_exti.h ****   *         @arg @ref LL_EXTI_LINE_ALL_0_31
 271:Drivers/STM32L0xx_HAL_Driver/Inc/stm32l0xx_ll_exti.h ****   * @note   Please check each device line mapping for EXTI Line availability
 272:Drivers/STM32L0xx_HAL_Driver/Inc/stm32l0xx_ll_exti.h ****   * @retval None
 273:Drivers/STM32L0xx_HAL_Driver/Inc/stm32l0xx_ll_exti.h ****   */
 274:Drivers/STM32L0xx_HAL_Driver/Inc/stm32l0xx_ll_exti.h **** __STATIC_INLINE void LL_EXTI_EnableIT_0_31(uint32_t ExtiLine)
 275:Drivers/STM32L0xx_HAL_Driver/Inc/stm32l0xx_ll_exti.h **** {
 276:Drivers/STM32L0xx_HAL_Driver/Inc/stm32l0xx_ll_exti.h ****   SET_BIT(EXTI->IMR, ExtiLine);
 277:Drivers/STM32L0xx_HAL_Driver/Inc/stm32l0xx_ll_exti.h **** }
 278:Drivers/STM32L0xx_HAL_Driver/Inc/stm32l0xx_ll_exti.h **** 
 279:Drivers/STM32L0xx_HAL_Driver/Inc/stm32l0xx_ll_exti.h **** /**
 280:Drivers/STM32L0xx_HAL_Driver/Inc/stm32l0xx_ll_exti.h ****   * @brief  Disable ExtiLine Interrupt request for Lines in range 0 to 31
 281:Drivers/STM32L0xx_HAL_Driver/Inc/stm32l0xx_ll_exti.h ****   * @note The reset value for the direct or internal lines (see RM)
 282:Drivers/STM32L0xx_HAL_Driver/Inc/stm32l0xx_ll_exti.h ****   *       is set to 1 in order to enable the interrupt by default.
 283:Drivers/STM32L0xx_HAL_Driver/Inc/stm32l0xx_ll_exti.h ****   *       Bits are set automatically at Power on.
 284:Drivers/STM32L0xx_HAL_Driver/Inc/stm32l0xx_ll_exti.h ****   * @rmtoll IMR         IMx           LL_EXTI_DisableIT_0_31
 285:Drivers/STM32L0xx_HAL_Driver/Inc/stm32l0xx_ll_exti.h ****   * @param  ExtiLine This parameter can be one of the following values:
ARM GAS  /tmp/ccr6mobF.s 			page 11


 286:Drivers/STM32L0xx_HAL_Driver/Inc/stm32l0xx_ll_exti.h ****   *         @arg @ref LL_EXTI_LINE_0
 287:Drivers/STM32L0xx_HAL_Driver/Inc/stm32l0xx_ll_exti.h ****   *         @arg @ref LL_EXTI_LINE_1
 288:Drivers/STM32L0xx_HAL_Driver/Inc/stm32l0xx_ll_exti.h ****   *         @arg @ref LL_EXTI_LINE_2
 289:Drivers/STM32L0xx_HAL_Driver/Inc/stm32l0xx_ll_exti.h ****   *         @arg @ref LL_EXTI_LINE_3
 290:Drivers/STM32L0xx_HAL_Driver/Inc/stm32l0xx_ll_exti.h ****   *         @arg @ref LL_EXTI_LINE_4
 291:Drivers/STM32L0xx_HAL_Driver/Inc/stm32l0xx_ll_exti.h ****   *         @arg @ref LL_EXTI_LINE_5
 292:Drivers/STM32L0xx_HAL_Driver/Inc/stm32l0xx_ll_exti.h ****   *         @arg @ref LL_EXTI_LINE_6
 293:Drivers/STM32L0xx_HAL_Driver/Inc/stm32l0xx_ll_exti.h ****   *         @arg @ref LL_EXTI_LINE_7
 294:Drivers/STM32L0xx_HAL_Driver/Inc/stm32l0xx_ll_exti.h ****   *         @arg @ref LL_EXTI_LINE_8
 295:Drivers/STM32L0xx_HAL_Driver/Inc/stm32l0xx_ll_exti.h ****   *         @arg @ref LL_EXTI_LINE_9
 296:Drivers/STM32L0xx_HAL_Driver/Inc/stm32l0xx_ll_exti.h ****   *         @arg @ref LL_EXTI_LINE_10
 297:Drivers/STM32L0xx_HAL_Driver/Inc/stm32l0xx_ll_exti.h ****   *         @arg @ref LL_EXTI_LINE_11
 298:Drivers/STM32L0xx_HAL_Driver/Inc/stm32l0xx_ll_exti.h ****   *         @arg @ref LL_EXTI_LINE_12
 299:Drivers/STM32L0xx_HAL_Driver/Inc/stm32l0xx_ll_exti.h ****   *         @arg @ref LL_EXTI_LINE_13
 300:Drivers/STM32L0xx_HAL_Driver/Inc/stm32l0xx_ll_exti.h ****   *         @arg @ref LL_EXTI_LINE_14
 301:Drivers/STM32L0xx_HAL_Driver/Inc/stm32l0xx_ll_exti.h ****   *         @arg @ref LL_EXTI_LINE_15
 302:Drivers/STM32L0xx_HAL_Driver/Inc/stm32l0xx_ll_exti.h ****   *         @arg @ref LL_EXTI_LINE_16
 303:Drivers/STM32L0xx_HAL_Driver/Inc/stm32l0xx_ll_exti.h ****   *         @arg @ref LL_EXTI_LINE_17
 304:Drivers/STM32L0xx_HAL_Driver/Inc/stm32l0xx_ll_exti.h ****   *         @arg @ref LL_EXTI_LINE_18
 305:Drivers/STM32L0xx_HAL_Driver/Inc/stm32l0xx_ll_exti.h ****   *         @arg @ref LL_EXTI_LINE_19
 306:Drivers/STM32L0xx_HAL_Driver/Inc/stm32l0xx_ll_exti.h ****   *         @arg @ref LL_EXTI_LINE_20
 307:Drivers/STM32L0xx_HAL_Driver/Inc/stm32l0xx_ll_exti.h ****   *         @arg @ref LL_EXTI_LINE_21
 308:Drivers/STM32L0xx_HAL_Driver/Inc/stm32l0xx_ll_exti.h ****   *         @arg @ref LL_EXTI_LINE_22
 309:Drivers/STM32L0xx_HAL_Driver/Inc/stm32l0xx_ll_exti.h ****   *         @arg @ref LL_EXTI_LINE_23
 310:Drivers/STM32L0xx_HAL_Driver/Inc/stm32l0xx_ll_exti.h ****   *         @arg @ref LL_EXTI_LINE_24
 311:Drivers/STM32L0xx_HAL_Driver/Inc/stm32l0xx_ll_exti.h ****   *         @arg @ref LL_EXTI_LINE_25
 312:Drivers/STM32L0xx_HAL_Driver/Inc/stm32l0xx_ll_exti.h ****   *         @arg @ref LL_EXTI_LINE_26
 313:Drivers/STM32L0xx_HAL_Driver/Inc/stm32l0xx_ll_exti.h ****   *         @arg @ref LL_EXTI_LINE_27
 314:Drivers/STM32L0xx_HAL_Driver/Inc/stm32l0xx_ll_exti.h ****   *         @arg @ref LL_EXTI_LINE_28
 315:Drivers/STM32L0xx_HAL_Driver/Inc/stm32l0xx_ll_exti.h ****   *         @arg @ref LL_EXTI_LINE_29
 316:Drivers/STM32L0xx_HAL_Driver/Inc/stm32l0xx_ll_exti.h ****   *         @arg @ref LL_EXTI_LINE_30
 317:Drivers/STM32L0xx_HAL_Driver/Inc/stm32l0xx_ll_exti.h ****   *         @arg @ref LL_EXTI_LINE_31
 318:Drivers/STM32L0xx_HAL_Driver/Inc/stm32l0xx_ll_exti.h ****   *         @arg @ref LL_EXTI_LINE_ALL_0_31
 319:Drivers/STM32L0xx_HAL_Driver/Inc/stm32l0xx_ll_exti.h ****   * @note   Please check each device line mapping for EXTI Line availability
 320:Drivers/STM32L0xx_HAL_Driver/Inc/stm32l0xx_ll_exti.h ****   * @retval None
 321:Drivers/STM32L0xx_HAL_Driver/Inc/stm32l0xx_ll_exti.h ****   */
 322:Drivers/STM32L0xx_HAL_Driver/Inc/stm32l0xx_ll_exti.h **** __STATIC_INLINE void LL_EXTI_DisableIT_0_31(uint32_t ExtiLine)
 323:Drivers/STM32L0xx_HAL_Driver/Inc/stm32l0xx_ll_exti.h **** {
 324:Drivers/STM32L0xx_HAL_Driver/Inc/stm32l0xx_ll_exti.h ****   CLEAR_BIT(EXTI->IMR, ExtiLine);
 325:Drivers/STM32L0xx_HAL_Driver/Inc/stm32l0xx_ll_exti.h **** }
 326:Drivers/STM32L0xx_HAL_Driver/Inc/stm32l0xx_ll_exti.h **** 
 327:Drivers/STM32L0xx_HAL_Driver/Inc/stm32l0xx_ll_exti.h **** 
 328:Drivers/STM32L0xx_HAL_Driver/Inc/stm32l0xx_ll_exti.h **** /**
 329:Drivers/STM32L0xx_HAL_Driver/Inc/stm32l0xx_ll_exti.h ****   * @brief  Indicate if ExtiLine Interrupt request is enabled for Lines in range 0 to 31
 330:Drivers/STM32L0xx_HAL_Driver/Inc/stm32l0xx_ll_exti.h ****   * @note The reset value for the direct or internal lines (see RM)
 331:Drivers/STM32L0xx_HAL_Driver/Inc/stm32l0xx_ll_exti.h ****   *       is set to 1 in order to enable the interrupt by default.
 332:Drivers/STM32L0xx_HAL_Driver/Inc/stm32l0xx_ll_exti.h ****   *       Bits are set automatically at Power on.
 333:Drivers/STM32L0xx_HAL_Driver/Inc/stm32l0xx_ll_exti.h ****   * @rmtoll IMR         IMx           LL_EXTI_IsEnabledIT_0_31
 334:Drivers/STM32L0xx_HAL_Driver/Inc/stm32l0xx_ll_exti.h ****   * @param  ExtiLine This parameter can be one of the following values:
 335:Drivers/STM32L0xx_HAL_Driver/Inc/stm32l0xx_ll_exti.h ****   *         @arg @ref LL_EXTI_LINE_0
 336:Drivers/STM32L0xx_HAL_Driver/Inc/stm32l0xx_ll_exti.h ****   *         @arg @ref LL_EXTI_LINE_1
 337:Drivers/STM32L0xx_HAL_Driver/Inc/stm32l0xx_ll_exti.h ****   *         @arg @ref LL_EXTI_LINE_2
 338:Drivers/STM32L0xx_HAL_Driver/Inc/stm32l0xx_ll_exti.h ****   *         @arg @ref LL_EXTI_LINE_3
 339:Drivers/STM32L0xx_HAL_Driver/Inc/stm32l0xx_ll_exti.h ****   *         @arg @ref LL_EXTI_LINE_4
 340:Drivers/STM32L0xx_HAL_Driver/Inc/stm32l0xx_ll_exti.h ****   *         @arg @ref LL_EXTI_LINE_5
 341:Drivers/STM32L0xx_HAL_Driver/Inc/stm32l0xx_ll_exti.h ****   *         @arg @ref LL_EXTI_LINE_6
 342:Drivers/STM32L0xx_HAL_Driver/Inc/stm32l0xx_ll_exti.h ****   *         @arg @ref LL_EXTI_LINE_7
ARM GAS  /tmp/ccr6mobF.s 			page 12


 343:Drivers/STM32L0xx_HAL_Driver/Inc/stm32l0xx_ll_exti.h ****   *         @arg @ref LL_EXTI_LINE_8
 344:Drivers/STM32L0xx_HAL_Driver/Inc/stm32l0xx_ll_exti.h ****   *         @arg @ref LL_EXTI_LINE_9
 345:Drivers/STM32L0xx_HAL_Driver/Inc/stm32l0xx_ll_exti.h ****   *         @arg @ref LL_EXTI_LINE_10
 346:Drivers/STM32L0xx_HAL_Driver/Inc/stm32l0xx_ll_exti.h ****   *         @arg @ref LL_EXTI_LINE_11
 347:Drivers/STM32L0xx_HAL_Driver/Inc/stm32l0xx_ll_exti.h ****   *         @arg @ref LL_EXTI_LINE_12
 348:Drivers/STM32L0xx_HAL_Driver/Inc/stm32l0xx_ll_exti.h ****   *         @arg @ref LL_EXTI_LINE_13
 349:Drivers/STM32L0xx_HAL_Driver/Inc/stm32l0xx_ll_exti.h ****   *         @arg @ref LL_EXTI_LINE_14
 350:Drivers/STM32L0xx_HAL_Driver/Inc/stm32l0xx_ll_exti.h ****   *         @arg @ref LL_EXTI_LINE_15
 351:Drivers/STM32L0xx_HAL_Driver/Inc/stm32l0xx_ll_exti.h ****   *         @arg @ref LL_EXTI_LINE_16
 352:Drivers/STM32L0xx_HAL_Driver/Inc/stm32l0xx_ll_exti.h ****   *         @arg @ref LL_EXTI_LINE_17
 353:Drivers/STM32L0xx_HAL_Driver/Inc/stm32l0xx_ll_exti.h ****   *         @arg @ref LL_EXTI_LINE_18
 354:Drivers/STM32L0xx_HAL_Driver/Inc/stm32l0xx_ll_exti.h ****   *         @arg @ref LL_EXTI_LINE_19
 355:Drivers/STM32L0xx_HAL_Driver/Inc/stm32l0xx_ll_exti.h ****   *         @arg @ref LL_EXTI_LINE_20
 356:Drivers/STM32L0xx_HAL_Driver/Inc/stm32l0xx_ll_exti.h ****   *         @arg @ref LL_EXTI_LINE_21
 357:Drivers/STM32L0xx_HAL_Driver/Inc/stm32l0xx_ll_exti.h ****   *         @arg @ref LL_EXTI_LINE_22
 358:Drivers/STM32L0xx_HAL_Driver/Inc/stm32l0xx_ll_exti.h ****   *         @arg @ref LL_EXTI_LINE_23
 359:Drivers/STM32L0xx_HAL_Driver/Inc/stm32l0xx_ll_exti.h ****   *         @arg @ref LL_EXTI_LINE_24
 360:Drivers/STM32L0xx_HAL_Driver/Inc/stm32l0xx_ll_exti.h ****   *         @arg @ref LL_EXTI_LINE_25
 361:Drivers/STM32L0xx_HAL_Driver/Inc/stm32l0xx_ll_exti.h ****   *         @arg @ref LL_EXTI_LINE_26
 362:Drivers/STM32L0xx_HAL_Driver/Inc/stm32l0xx_ll_exti.h ****   *         @arg @ref LL_EXTI_LINE_27
 363:Drivers/STM32L0xx_HAL_Driver/Inc/stm32l0xx_ll_exti.h ****   *         @arg @ref LL_EXTI_LINE_28
 364:Drivers/STM32L0xx_HAL_Driver/Inc/stm32l0xx_ll_exti.h ****   *         @arg @ref LL_EXTI_LINE_29
 365:Drivers/STM32L0xx_HAL_Driver/Inc/stm32l0xx_ll_exti.h ****   *         @arg @ref LL_EXTI_LINE_30
 366:Drivers/STM32L0xx_HAL_Driver/Inc/stm32l0xx_ll_exti.h ****   *         @arg @ref LL_EXTI_LINE_31
 367:Drivers/STM32L0xx_HAL_Driver/Inc/stm32l0xx_ll_exti.h ****   *         @arg @ref LL_EXTI_LINE_ALL_0_31
 368:Drivers/STM32L0xx_HAL_Driver/Inc/stm32l0xx_ll_exti.h ****   * @note   Please check each device line mapping for EXTI Line availability
 369:Drivers/STM32L0xx_HAL_Driver/Inc/stm32l0xx_ll_exti.h ****   * @retval State of bit (1 or 0).
 370:Drivers/STM32L0xx_HAL_Driver/Inc/stm32l0xx_ll_exti.h ****   */
 371:Drivers/STM32L0xx_HAL_Driver/Inc/stm32l0xx_ll_exti.h **** __STATIC_INLINE uint32_t LL_EXTI_IsEnabledIT_0_31(uint32_t ExtiLine)
 372:Drivers/STM32L0xx_HAL_Driver/Inc/stm32l0xx_ll_exti.h **** {
 373:Drivers/STM32L0xx_HAL_Driver/Inc/stm32l0xx_ll_exti.h ****   return (READ_BIT(EXTI->IMR, ExtiLine) == (ExtiLine));
 374:Drivers/STM32L0xx_HAL_Driver/Inc/stm32l0xx_ll_exti.h **** }
 375:Drivers/STM32L0xx_HAL_Driver/Inc/stm32l0xx_ll_exti.h **** 
 376:Drivers/STM32L0xx_HAL_Driver/Inc/stm32l0xx_ll_exti.h **** 
 377:Drivers/STM32L0xx_HAL_Driver/Inc/stm32l0xx_ll_exti.h **** /**
 378:Drivers/STM32L0xx_HAL_Driver/Inc/stm32l0xx_ll_exti.h ****   * @}
 379:Drivers/STM32L0xx_HAL_Driver/Inc/stm32l0xx_ll_exti.h ****   */
 380:Drivers/STM32L0xx_HAL_Driver/Inc/stm32l0xx_ll_exti.h **** 
 381:Drivers/STM32L0xx_HAL_Driver/Inc/stm32l0xx_ll_exti.h **** /** @defgroup EXTI_LL_EF_Event_Management Event_Management
 382:Drivers/STM32L0xx_HAL_Driver/Inc/stm32l0xx_ll_exti.h ****   * @{
 383:Drivers/STM32L0xx_HAL_Driver/Inc/stm32l0xx_ll_exti.h ****   */
 384:Drivers/STM32L0xx_HAL_Driver/Inc/stm32l0xx_ll_exti.h **** 
 385:Drivers/STM32L0xx_HAL_Driver/Inc/stm32l0xx_ll_exti.h **** /**
 386:Drivers/STM32L0xx_HAL_Driver/Inc/stm32l0xx_ll_exti.h ****   * @brief  Enable ExtiLine Event request for Lines in range 0 to 31
 387:Drivers/STM32L0xx_HAL_Driver/Inc/stm32l0xx_ll_exti.h ****   * @rmtoll EMR         EMx           LL_EXTI_EnableEvent_0_31
 388:Drivers/STM32L0xx_HAL_Driver/Inc/stm32l0xx_ll_exti.h ****   * @param  ExtiLine This parameter can be one of the following values:
 389:Drivers/STM32L0xx_HAL_Driver/Inc/stm32l0xx_ll_exti.h ****   *         @arg @ref LL_EXTI_LINE_0
 390:Drivers/STM32L0xx_HAL_Driver/Inc/stm32l0xx_ll_exti.h ****   *         @arg @ref LL_EXTI_LINE_1
 391:Drivers/STM32L0xx_HAL_Driver/Inc/stm32l0xx_ll_exti.h ****   *         @arg @ref LL_EXTI_LINE_2
 392:Drivers/STM32L0xx_HAL_Driver/Inc/stm32l0xx_ll_exti.h ****   *         @arg @ref LL_EXTI_LINE_3
 393:Drivers/STM32L0xx_HAL_Driver/Inc/stm32l0xx_ll_exti.h ****   *         @arg @ref LL_EXTI_LINE_4
 394:Drivers/STM32L0xx_HAL_Driver/Inc/stm32l0xx_ll_exti.h ****   *         @arg @ref LL_EXTI_LINE_5
 395:Drivers/STM32L0xx_HAL_Driver/Inc/stm32l0xx_ll_exti.h ****   *         @arg @ref LL_EXTI_LINE_6
 396:Drivers/STM32L0xx_HAL_Driver/Inc/stm32l0xx_ll_exti.h ****   *         @arg @ref LL_EXTI_LINE_7
 397:Drivers/STM32L0xx_HAL_Driver/Inc/stm32l0xx_ll_exti.h ****   *         @arg @ref LL_EXTI_LINE_8
 398:Drivers/STM32L0xx_HAL_Driver/Inc/stm32l0xx_ll_exti.h ****   *         @arg @ref LL_EXTI_LINE_9
 399:Drivers/STM32L0xx_HAL_Driver/Inc/stm32l0xx_ll_exti.h ****   *         @arg @ref LL_EXTI_LINE_10
ARM GAS  /tmp/ccr6mobF.s 			page 13


 400:Drivers/STM32L0xx_HAL_Driver/Inc/stm32l0xx_ll_exti.h ****   *         @arg @ref LL_EXTI_LINE_11
 401:Drivers/STM32L0xx_HAL_Driver/Inc/stm32l0xx_ll_exti.h ****   *         @arg @ref LL_EXTI_LINE_12
 402:Drivers/STM32L0xx_HAL_Driver/Inc/stm32l0xx_ll_exti.h ****   *         @arg @ref LL_EXTI_LINE_13
 403:Drivers/STM32L0xx_HAL_Driver/Inc/stm32l0xx_ll_exti.h ****   *         @arg @ref LL_EXTI_LINE_14
 404:Drivers/STM32L0xx_HAL_Driver/Inc/stm32l0xx_ll_exti.h ****   *         @arg @ref LL_EXTI_LINE_15
 405:Drivers/STM32L0xx_HAL_Driver/Inc/stm32l0xx_ll_exti.h ****   *         @arg @ref LL_EXTI_LINE_16
 406:Drivers/STM32L0xx_HAL_Driver/Inc/stm32l0xx_ll_exti.h ****   *         @arg @ref LL_EXTI_LINE_17
 407:Drivers/STM32L0xx_HAL_Driver/Inc/stm32l0xx_ll_exti.h ****   *         @arg @ref LL_EXTI_LINE_18
 408:Drivers/STM32L0xx_HAL_Driver/Inc/stm32l0xx_ll_exti.h ****   *         @arg @ref LL_EXTI_LINE_19
 409:Drivers/STM32L0xx_HAL_Driver/Inc/stm32l0xx_ll_exti.h ****   *         @arg @ref LL_EXTI_LINE_20
 410:Drivers/STM32L0xx_HAL_Driver/Inc/stm32l0xx_ll_exti.h ****   *         @arg @ref LL_EXTI_LINE_21
 411:Drivers/STM32L0xx_HAL_Driver/Inc/stm32l0xx_ll_exti.h ****   *         @arg @ref LL_EXTI_LINE_22
 412:Drivers/STM32L0xx_HAL_Driver/Inc/stm32l0xx_ll_exti.h ****   *         @arg @ref LL_EXTI_LINE_23
 413:Drivers/STM32L0xx_HAL_Driver/Inc/stm32l0xx_ll_exti.h ****   *         @arg @ref LL_EXTI_LINE_24
 414:Drivers/STM32L0xx_HAL_Driver/Inc/stm32l0xx_ll_exti.h ****   *         @arg @ref LL_EXTI_LINE_25
 415:Drivers/STM32L0xx_HAL_Driver/Inc/stm32l0xx_ll_exti.h ****   *         @arg @ref LL_EXTI_LINE_26
 416:Drivers/STM32L0xx_HAL_Driver/Inc/stm32l0xx_ll_exti.h ****   *         @arg @ref LL_EXTI_LINE_27
 417:Drivers/STM32L0xx_HAL_Driver/Inc/stm32l0xx_ll_exti.h ****   *         @arg @ref LL_EXTI_LINE_28
 418:Drivers/STM32L0xx_HAL_Driver/Inc/stm32l0xx_ll_exti.h ****   *         @arg @ref LL_EXTI_LINE_29
 419:Drivers/STM32L0xx_HAL_Driver/Inc/stm32l0xx_ll_exti.h ****   *         @arg @ref LL_EXTI_LINE_30
 420:Drivers/STM32L0xx_HAL_Driver/Inc/stm32l0xx_ll_exti.h ****   *         @arg @ref LL_EXTI_LINE_31
 421:Drivers/STM32L0xx_HAL_Driver/Inc/stm32l0xx_ll_exti.h ****   *         @arg @ref LL_EXTI_LINE_ALL_0_31
 422:Drivers/STM32L0xx_HAL_Driver/Inc/stm32l0xx_ll_exti.h ****   * @note   Please check each device line mapping for EXTI Line availability
 423:Drivers/STM32L0xx_HAL_Driver/Inc/stm32l0xx_ll_exti.h ****   * @retval None
 424:Drivers/STM32L0xx_HAL_Driver/Inc/stm32l0xx_ll_exti.h ****   */
 425:Drivers/STM32L0xx_HAL_Driver/Inc/stm32l0xx_ll_exti.h **** __STATIC_INLINE void LL_EXTI_EnableEvent_0_31(uint32_t ExtiLine)
 426:Drivers/STM32L0xx_HAL_Driver/Inc/stm32l0xx_ll_exti.h **** {
 427:Drivers/STM32L0xx_HAL_Driver/Inc/stm32l0xx_ll_exti.h ****   SET_BIT(EXTI->EMR, ExtiLine);
 428:Drivers/STM32L0xx_HAL_Driver/Inc/stm32l0xx_ll_exti.h **** 
 429:Drivers/STM32L0xx_HAL_Driver/Inc/stm32l0xx_ll_exti.h **** }
 430:Drivers/STM32L0xx_HAL_Driver/Inc/stm32l0xx_ll_exti.h **** 
 431:Drivers/STM32L0xx_HAL_Driver/Inc/stm32l0xx_ll_exti.h **** 
 432:Drivers/STM32L0xx_HAL_Driver/Inc/stm32l0xx_ll_exti.h **** /**
 433:Drivers/STM32L0xx_HAL_Driver/Inc/stm32l0xx_ll_exti.h ****   * @brief  Disable ExtiLine Event request for Lines in range 0 to 31
 434:Drivers/STM32L0xx_HAL_Driver/Inc/stm32l0xx_ll_exti.h ****   * @rmtoll EMR         EMx           LL_EXTI_DisableEvent_0_31
 435:Drivers/STM32L0xx_HAL_Driver/Inc/stm32l0xx_ll_exti.h ****   * @param  ExtiLine This parameter can be one of the following values:
 436:Drivers/STM32L0xx_HAL_Driver/Inc/stm32l0xx_ll_exti.h ****   *         @arg @ref LL_EXTI_LINE_0
 437:Drivers/STM32L0xx_HAL_Driver/Inc/stm32l0xx_ll_exti.h ****   *         @arg @ref LL_EXTI_LINE_1
 438:Drivers/STM32L0xx_HAL_Driver/Inc/stm32l0xx_ll_exti.h ****   *         @arg @ref LL_EXTI_LINE_2
 439:Drivers/STM32L0xx_HAL_Driver/Inc/stm32l0xx_ll_exti.h ****   *         @arg @ref LL_EXTI_LINE_3
 440:Drivers/STM32L0xx_HAL_Driver/Inc/stm32l0xx_ll_exti.h ****   *         @arg @ref LL_EXTI_LINE_4
 441:Drivers/STM32L0xx_HAL_Driver/Inc/stm32l0xx_ll_exti.h ****   *         @arg @ref LL_EXTI_LINE_5
 442:Drivers/STM32L0xx_HAL_Driver/Inc/stm32l0xx_ll_exti.h ****   *         @arg @ref LL_EXTI_LINE_6
 443:Drivers/STM32L0xx_HAL_Driver/Inc/stm32l0xx_ll_exti.h ****   *         @arg @ref LL_EXTI_LINE_7
 444:Drivers/STM32L0xx_HAL_Driver/Inc/stm32l0xx_ll_exti.h ****   *         @arg @ref LL_EXTI_LINE_8
 445:Drivers/STM32L0xx_HAL_Driver/Inc/stm32l0xx_ll_exti.h ****   *         @arg @ref LL_EXTI_LINE_9
 446:Drivers/STM32L0xx_HAL_Driver/Inc/stm32l0xx_ll_exti.h ****   *         @arg @ref LL_EXTI_LINE_10
 447:Drivers/STM32L0xx_HAL_Driver/Inc/stm32l0xx_ll_exti.h ****   *         @arg @ref LL_EXTI_LINE_11
 448:Drivers/STM32L0xx_HAL_Driver/Inc/stm32l0xx_ll_exti.h ****   *         @arg @ref LL_EXTI_LINE_12
 449:Drivers/STM32L0xx_HAL_Driver/Inc/stm32l0xx_ll_exti.h ****   *         @arg @ref LL_EXTI_LINE_13
 450:Drivers/STM32L0xx_HAL_Driver/Inc/stm32l0xx_ll_exti.h ****   *         @arg @ref LL_EXTI_LINE_14
 451:Drivers/STM32L0xx_HAL_Driver/Inc/stm32l0xx_ll_exti.h ****   *         @arg @ref LL_EXTI_LINE_15
 452:Drivers/STM32L0xx_HAL_Driver/Inc/stm32l0xx_ll_exti.h ****   *         @arg @ref LL_EXTI_LINE_16
 453:Drivers/STM32L0xx_HAL_Driver/Inc/stm32l0xx_ll_exti.h ****   *         @arg @ref LL_EXTI_LINE_17
 454:Drivers/STM32L0xx_HAL_Driver/Inc/stm32l0xx_ll_exti.h ****   *         @arg @ref LL_EXTI_LINE_18
 455:Drivers/STM32L0xx_HAL_Driver/Inc/stm32l0xx_ll_exti.h ****   *         @arg @ref LL_EXTI_LINE_19
 456:Drivers/STM32L0xx_HAL_Driver/Inc/stm32l0xx_ll_exti.h ****   *         @arg @ref LL_EXTI_LINE_20
ARM GAS  /tmp/ccr6mobF.s 			page 14


 457:Drivers/STM32L0xx_HAL_Driver/Inc/stm32l0xx_ll_exti.h ****   *         @arg @ref LL_EXTI_LINE_21
 458:Drivers/STM32L0xx_HAL_Driver/Inc/stm32l0xx_ll_exti.h ****   *         @arg @ref LL_EXTI_LINE_22
 459:Drivers/STM32L0xx_HAL_Driver/Inc/stm32l0xx_ll_exti.h ****   *         @arg @ref LL_EXTI_LINE_23
 460:Drivers/STM32L0xx_HAL_Driver/Inc/stm32l0xx_ll_exti.h ****   *         @arg @ref LL_EXTI_LINE_24
 461:Drivers/STM32L0xx_HAL_Driver/Inc/stm32l0xx_ll_exti.h ****   *         @arg @ref LL_EXTI_LINE_25
 462:Drivers/STM32L0xx_HAL_Driver/Inc/stm32l0xx_ll_exti.h ****   *         @arg @ref LL_EXTI_LINE_26
 463:Drivers/STM32L0xx_HAL_Driver/Inc/stm32l0xx_ll_exti.h ****   *         @arg @ref LL_EXTI_LINE_27
 464:Drivers/STM32L0xx_HAL_Driver/Inc/stm32l0xx_ll_exti.h ****   *         @arg @ref LL_EXTI_LINE_28
 465:Drivers/STM32L0xx_HAL_Driver/Inc/stm32l0xx_ll_exti.h ****   *         @arg @ref LL_EXTI_LINE_29
 466:Drivers/STM32L0xx_HAL_Driver/Inc/stm32l0xx_ll_exti.h ****   *         @arg @ref LL_EXTI_LINE_30
 467:Drivers/STM32L0xx_HAL_Driver/Inc/stm32l0xx_ll_exti.h ****   *         @arg @ref LL_EXTI_LINE_31
 468:Drivers/STM32L0xx_HAL_Driver/Inc/stm32l0xx_ll_exti.h ****   *         @arg @ref LL_EXTI_LINE_ALL_0_31
 469:Drivers/STM32L0xx_HAL_Driver/Inc/stm32l0xx_ll_exti.h ****   * @note   Please check each device line mapping for EXTI Line availability
 470:Drivers/STM32L0xx_HAL_Driver/Inc/stm32l0xx_ll_exti.h ****   * @retval None
 471:Drivers/STM32L0xx_HAL_Driver/Inc/stm32l0xx_ll_exti.h ****   */
 472:Drivers/STM32L0xx_HAL_Driver/Inc/stm32l0xx_ll_exti.h **** __STATIC_INLINE void LL_EXTI_DisableEvent_0_31(uint32_t ExtiLine)
 473:Drivers/STM32L0xx_HAL_Driver/Inc/stm32l0xx_ll_exti.h **** {
 474:Drivers/STM32L0xx_HAL_Driver/Inc/stm32l0xx_ll_exti.h ****   CLEAR_BIT(EXTI->EMR, ExtiLine);
 475:Drivers/STM32L0xx_HAL_Driver/Inc/stm32l0xx_ll_exti.h **** }
 476:Drivers/STM32L0xx_HAL_Driver/Inc/stm32l0xx_ll_exti.h **** 
 477:Drivers/STM32L0xx_HAL_Driver/Inc/stm32l0xx_ll_exti.h **** 
 478:Drivers/STM32L0xx_HAL_Driver/Inc/stm32l0xx_ll_exti.h **** /**
 479:Drivers/STM32L0xx_HAL_Driver/Inc/stm32l0xx_ll_exti.h ****   * @brief  Indicate if ExtiLine Event request is enabled for Lines in range 0 to 31
 480:Drivers/STM32L0xx_HAL_Driver/Inc/stm32l0xx_ll_exti.h ****   * @rmtoll EMR         EMx           LL_EXTI_IsEnabledEvent_0_31
 481:Drivers/STM32L0xx_HAL_Driver/Inc/stm32l0xx_ll_exti.h ****   * @param  ExtiLine This parameter can be one of the following values:
 482:Drivers/STM32L0xx_HAL_Driver/Inc/stm32l0xx_ll_exti.h ****   *         @arg @ref LL_EXTI_LINE_0
 483:Drivers/STM32L0xx_HAL_Driver/Inc/stm32l0xx_ll_exti.h ****   *         @arg @ref LL_EXTI_LINE_1
 484:Drivers/STM32L0xx_HAL_Driver/Inc/stm32l0xx_ll_exti.h ****   *         @arg @ref LL_EXTI_LINE_2
 485:Drivers/STM32L0xx_HAL_Driver/Inc/stm32l0xx_ll_exti.h ****   *         @arg @ref LL_EXTI_LINE_3
 486:Drivers/STM32L0xx_HAL_Driver/Inc/stm32l0xx_ll_exti.h ****   *         @arg @ref LL_EXTI_LINE_4
 487:Drivers/STM32L0xx_HAL_Driver/Inc/stm32l0xx_ll_exti.h ****   *         @arg @ref LL_EXTI_LINE_5
 488:Drivers/STM32L0xx_HAL_Driver/Inc/stm32l0xx_ll_exti.h ****   *         @arg @ref LL_EXTI_LINE_6
 489:Drivers/STM32L0xx_HAL_Driver/Inc/stm32l0xx_ll_exti.h ****   *         @arg @ref LL_EXTI_LINE_7
 490:Drivers/STM32L0xx_HAL_Driver/Inc/stm32l0xx_ll_exti.h ****   *         @arg @ref LL_EXTI_LINE_8
 491:Drivers/STM32L0xx_HAL_Driver/Inc/stm32l0xx_ll_exti.h ****   *         @arg @ref LL_EXTI_LINE_9
 492:Drivers/STM32L0xx_HAL_Driver/Inc/stm32l0xx_ll_exti.h ****   *         @arg @ref LL_EXTI_LINE_10
 493:Drivers/STM32L0xx_HAL_Driver/Inc/stm32l0xx_ll_exti.h ****   *         @arg @ref LL_EXTI_LINE_11
 494:Drivers/STM32L0xx_HAL_Driver/Inc/stm32l0xx_ll_exti.h ****   *         @arg @ref LL_EXTI_LINE_12
 495:Drivers/STM32L0xx_HAL_Driver/Inc/stm32l0xx_ll_exti.h ****   *         @arg @ref LL_EXTI_LINE_13
 496:Drivers/STM32L0xx_HAL_Driver/Inc/stm32l0xx_ll_exti.h ****   *         @arg @ref LL_EXTI_LINE_14
 497:Drivers/STM32L0xx_HAL_Driver/Inc/stm32l0xx_ll_exti.h ****   *         @arg @ref LL_EXTI_LINE_15
 498:Drivers/STM32L0xx_HAL_Driver/Inc/stm32l0xx_ll_exti.h ****   *         @arg @ref LL_EXTI_LINE_16
 499:Drivers/STM32L0xx_HAL_Driver/Inc/stm32l0xx_ll_exti.h ****   *         @arg @ref LL_EXTI_LINE_17
 500:Drivers/STM32L0xx_HAL_Driver/Inc/stm32l0xx_ll_exti.h ****   *         @arg @ref LL_EXTI_LINE_18
 501:Drivers/STM32L0xx_HAL_Driver/Inc/stm32l0xx_ll_exti.h ****   *         @arg @ref LL_EXTI_LINE_19
 502:Drivers/STM32L0xx_HAL_Driver/Inc/stm32l0xx_ll_exti.h ****   *         @arg @ref LL_EXTI_LINE_20
 503:Drivers/STM32L0xx_HAL_Driver/Inc/stm32l0xx_ll_exti.h ****   *         @arg @ref LL_EXTI_LINE_21
 504:Drivers/STM32L0xx_HAL_Driver/Inc/stm32l0xx_ll_exti.h ****   *         @arg @ref LL_EXTI_LINE_22
 505:Drivers/STM32L0xx_HAL_Driver/Inc/stm32l0xx_ll_exti.h ****   *         @arg @ref LL_EXTI_LINE_23
 506:Drivers/STM32L0xx_HAL_Driver/Inc/stm32l0xx_ll_exti.h ****   *         @arg @ref LL_EXTI_LINE_24
 507:Drivers/STM32L0xx_HAL_Driver/Inc/stm32l0xx_ll_exti.h ****   *         @arg @ref LL_EXTI_LINE_25
 508:Drivers/STM32L0xx_HAL_Driver/Inc/stm32l0xx_ll_exti.h ****   *         @arg @ref LL_EXTI_LINE_26
 509:Drivers/STM32L0xx_HAL_Driver/Inc/stm32l0xx_ll_exti.h ****   *         @arg @ref LL_EXTI_LINE_27
 510:Drivers/STM32L0xx_HAL_Driver/Inc/stm32l0xx_ll_exti.h ****   *         @arg @ref LL_EXTI_LINE_28
 511:Drivers/STM32L0xx_HAL_Driver/Inc/stm32l0xx_ll_exti.h ****   *         @arg @ref LL_EXTI_LINE_29
 512:Drivers/STM32L0xx_HAL_Driver/Inc/stm32l0xx_ll_exti.h ****   *         @arg @ref LL_EXTI_LINE_30
 513:Drivers/STM32L0xx_HAL_Driver/Inc/stm32l0xx_ll_exti.h ****   *         @arg @ref LL_EXTI_LINE_31
ARM GAS  /tmp/ccr6mobF.s 			page 15


 514:Drivers/STM32L0xx_HAL_Driver/Inc/stm32l0xx_ll_exti.h ****   *         @arg @ref LL_EXTI_LINE_ALL_0_31
 515:Drivers/STM32L0xx_HAL_Driver/Inc/stm32l0xx_ll_exti.h ****   * @note   Please check each device line mapping for EXTI Line availability
 516:Drivers/STM32L0xx_HAL_Driver/Inc/stm32l0xx_ll_exti.h ****   * @retval State of bit (1 or 0).
 517:Drivers/STM32L0xx_HAL_Driver/Inc/stm32l0xx_ll_exti.h ****   */
 518:Drivers/STM32L0xx_HAL_Driver/Inc/stm32l0xx_ll_exti.h **** __STATIC_INLINE uint32_t LL_EXTI_IsEnabledEvent_0_31(uint32_t ExtiLine)
 519:Drivers/STM32L0xx_HAL_Driver/Inc/stm32l0xx_ll_exti.h **** {
 520:Drivers/STM32L0xx_HAL_Driver/Inc/stm32l0xx_ll_exti.h ****   return (READ_BIT(EXTI->EMR, ExtiLine) == (ExtiLine));
 521:Drivers/STM32L0xx_HAL_Driver/Inc/stm32l0xx_ll_exti.h **** 
 522:Drivers/STM32L0xx_HAL_Driver/Inc/stm32l0xx_ll_exti.h **** }
 523:Drivers/STM32L0xx_HAL_Driver/Inc/stm32l0xx_ll_exti.h **** 
 524:Drivers/STM32L0xx_HAL_Driver/Inc/stm32l0xx_ll_exti.h **** 
 525:Drivers/STM32L0xx_HAL_Driver/Inc/stm32l0xx_ll_exti.h **** /**
 526:Drivers/STM32L0xx_HAL_Driver/Inc/stm32l0xx_ll_exti.h ****   * @}
 527:Drivers/STM32L0xx_HAL_Driver/Inc/stm32l0xx_ll_exti.h ****   */
 528:Drivers/STM32L0xx_HAL_Driver/Inc/stm32l0xx_ll_exti.h **** 
 529:Drivers/STM32L0xx_HAL_Driver/Inc/stm32l0xx_ll_exti.h **** /** @defgroup EXTI_LL_EF_Rising_Trigger_Management Rising_Trigger_Management
 530:Drivers/STM32L0xx_HAL_Driver/Inc/stm32l0xx_ll_exti.h ****   * @{
 531:Drivers/STM32L0xx_HAL_Driver/Inc/stm32l0xx_ll_exti.h ****   */
 532:Drivers/STM32L0xx_HAL_Driver/Inc/stm32l0xx_ll_exti.h **** 
 533:Drivers/STM32L0xx_HAL_Driver/Inc/stm32l0xx_ll_exti.h **** /**
 534:Drivers/STM32L0xx_HAL_Driver/Inc/stm32l0xx_ll_exti.h ****   * @brief  Enable ExtiLine Rising Edge Trigger for Lines in range 0 to 31
 535:Drivers/STM32L0xx_HAL_Driver/Inc/stm32l0xx_ll_exti.h ****   * @note The configurable wakeup lines are edge-triggered. No glitch must be
 536:Drivers/STM32L0xx_HAL_Driver/Inc/stm32l0xx_ll_exti.h ****   *       generated on these lines. If a rising edge on a configurable interrupt
 537:Drivers/STM32L0xx_HAL_Driver/Inc/stm32l0xx_ll_exti.h ****   *       line occurs during a write operation in the EXTI_RTSR register, the
 538:Drivers/STM32L0xx_HAL_Driver/Inc/stm32l0xx_ll_exti.h ****   *       pending bit is not set.
 539:Drivers/STM32L0xx_HAL_Driver/Inc/stm32l0xx_ll_exti.h ****   *       Rising and falling edge triggers can be set for
 540:Drivers/STM32L0xx_HAL_Driver/Inc/stm32l0xx_ll_exti.h ****   *       the same interrupt line. In this case, both generate a trigger
 541:Drivers/STM32L0xx_HAL_Driver/Inc/stm32l0xx_ll_exti.h ****   *       condition.
 542:Drivers/STM32L0xx_HAL_Driver/Inc/stm32l0xx_ll_exti.h ****   * @rmtoll RTSR        RTx           LL_EXTI_EnableRisingTrig_0_31
 543:Drivers/STM32L0xx_HAL_Driver/Inc/stm32l0xx_ll_exti.h ****   * @param  ExtiLine This parameter can be a combination of the following values:
 544:Drivers/STM32L0xx_HAL_Driver/Inc/stm32l0xx_ll_exti.h ****   *         @arg @ref LL_EXTI_LINE_0
 545:Drivers/STM32L0xx_HAL_Driver/Inc/stm32l0xx_ll_exti.h ****   *         @arg @ref LL_EXTI_LINE_1
 546:Drivers/STM32L0xx_HAL_Driver/Inc/stm32l0xx_ll_exti.h ****   *         @arg @ref LL_EXTI_LINE_2
 547:Drivers/STM32L0xx_HAL_Driver/Inc/stm32l0xx_ll_exti.h ****   *         @arg @ref LL_EXTI_LINE_3
 548:Drivers/STM32L0xx_HAL_Driver/Inc/stm32l0xx_ll_exti.h ****   *         @arg @ref LL_EXTI_LINE_4
 549:Drivers/STM32L0xx_HAL_Driver/Inc/stm32l0xx_ll_exti.h ****   *         @arg @ref LL_EXTI_LINE_5
 550:Drivers/STM32L0xx_HAL_Driver/Inc/stm32l0xx_ll_exti.h ****   *         @arg @ref LL_EXTI_LINE_6
 551:Drivers/STM32L0xx_HAL_Driver/Inc/stm32l0xx_ll_exti.h ****   *         @arg @ref LL_EXTI_LINE_7
 552:Drivers/STM32L0xx_HAL_Driver/Inc/stm32l0xx_ll_exti.h ****   *         @arg @ref LL_EXTI_LINE_8
 553:Drivers/STM32L0xx_HAL_Driver/Inc/stm32l0xx_ll_exti.h ****   *         @arg @ref LL_EXTI_LINE_9
 554:Drivers/STM32L0xx_HAL_Driver/Inc/stm32l0xx_ll_exti.h ****   *         @arg @ref LL_EXTI_LINE_10
 555:Drivers/STM32L0xx_HAL_Driver/Inc/stm32l0xx_ll_exti.h ****   *         @arg @ref LL_EXTI_LINE_11
 556:Drivers/STM32L0xx_HAL_Driver/Inc/stm32l0xx_ll_exti.h ****   *         @arg @ref LL_EXTI_LINE_12
 557:Drivers/STM32L0xx_HAL_Driver/Inc/stm32l0xx_ll_exti.h ****   *         @arg @ref LL_EXTI_LINE_13
 558:Drivers/STM32L0xx_HAL_Driver/Inc/stm32l0xx_ll_exti.h ****   *         @arg @ref LL_EXTI_LINE_14
 559:Drivers/STM32L0xx_HAL_Driver/Inc/stm32l0xx_ll_exti.h ****   *         @arg @ref LL_EXTI_LINE_15
 560:Drivers/STM32L0xx_HAL_Driver/Inc/stm32l0xx_ll_exti.h ****   *         @arg @ref LL_EXTI_LINE_16
 561:Drivers/STM32L0xx_HAL_Driver/Inc/stm32l0xx_ll_exti.h ****   *         @arg @ref LL_EXTI_LINE_18
 562:Drivers/STM32L0xx_HAL_Driver/Inc/stm32l0xx_ll_exti.h ****   *         @arg @ref LL_EXTI_LINE_19
 563:Drivers/STM32L0xx_HAL_Driver/Inc/stm32l0xx_ll_exti.h ****   *         @arg @ref LL_EXTI_LINE_20
 564:Drivers/STM32L0xx_HAL_Driver/Inc/stm32l0xx_ll_exti.h ****   *         @arg @ref LL_EXTI_LINE_21
 565:Drivers/STM32L0xx_HAL_Driver/Inc/stm32l0xx_ll_exti.h ****   *         @arg @ref LL_EXTI_LINE_22
 566:Drivers/STM32L0xx_HAL_Driver/Inc/stm32l0xx_ll_exti.h ****   *         @arg @ref LL_EXTI_LINE_29
 567:Drivers/STM32L0xx_HAL_Driver/Inc/stm32l0xx_ll_exti.h ****   *         @arg @ref LL_EXTI_LINE_30
 568:Drivers/STM32L0xx_HAL_Driver/Inc/stm32l0xx_ll_exti.h ****   *         @arg @ref LL_EXTI_LINE_31
 569:Drivers/STM32L0xx_HAL_Driver/Inc/stm32l0xx_ll_exti.h ****   * @note   Please check each device line mapping for EXTI Line availability
 570:Drivers/STM32L0xx_HAL_Driver/Inc/stm32l0xx_ll_exti.h ****   * @retval None
ARM GAS  /tmp/ccr6mobF.s 			page 16


 571:Drivers/STM32L0xx_HAL_Driver/Inc/stm32l0xx_ll_exti.h ****   */
 572:Drivers/STM32L0xx_HAL_Driver/Inc/stm32l0xx_ll_exti.h **** __STATIC_INLINE void LL_EXTI_EnableRisingTrig_0_31(uint32_t ExtiLine)
 573:Drivers/STM32L0xx_HAL_Driver/Inc/stm32l0xx_ll_exti.h **** {
 574:Drivers/STM32L0xx_HAL_Driver/Inc/stm32l0xx_ll_exti.h ****   SET_BIT(EXTI->RTSR, ExtiLine);
 575:Drivers/STM32L0xx_HAL_Driver/Inc/stm32l0xx_ll_exti.h **** 
 576:Drivers/STM32L0xx_HAL_Driver/Inc/stm32l0xx_ll_exti.h **** }
 577:Drivers/STM32L0xx_HAL_Driver/Inc/stm32l0xx_ll_exti.h **** 
 578:Drivers/STM32L0xx_HAL_Driver/Inc/stm32l0xx_ll_exti.h **** 
 579:Drivers/STM32L0xx_HAL_Driver/Inc/stm32l0xx_ll_exti.h **** /**
 580:Drivers/STM32L0xx_HAL_Driver/Inc/stm32l0xx_ll_exti.h ****   * @brief  Disable ExtiLine Rising Edge Trigger for Lines in range 0 to 31
 581:Drivers/STM32L0xx_HAL_Driver/Inc/stm32l0xx_ll_exti.h ****   * @note The configurable wakeup lines are edge-triggered. No glitch must be
 582:Drivers/STM32L0xx_HAL_Driver/Inc/stm32l0xx_ll_exti.h ****   *       generated on these lines. If a rising edge on a configurable interrupt
 583:Drivers/STM32L0xx_HAL_Driver/Inc/stm32l0xx_ll_exti.h ****   *       line occurs during a write operation in the EXTI_RTSR register, the
 584:Drivers/STM32L0xx_HAL_Driver/Inc/stm32l0xx_ll_exti.h ****   *       pending bit is not set.
 585:Drivers/STM32L0xx_HAL_Driver/Inc/stm32l0xx_ll_exti.h ****   *       Rising and falling edge triggers can be set for
 586:Drivers/STM32L0xx_HAL_Driver/Inc/stm32l0xx_ll_exti.h ****   *       the same interrupt line. In this case, both generate a trigger
 587:Drivers/STM32L0xx_HAL_Driver/Inc/stm32l0xx_ll_exti.h ****   *       condition.
 588:Drivers/STM32L0xx_HAL_Driver/Inc/stm32l0xx_ll_exti.h ****   * @rmtoll RTSR        RTx           LL_EXTI_DisableRisingTrig_0_31
 589:Drivers/STM32L0xx_HAL_Driver/Inc/stm32l0xx_ll_exti.h ****   * @param  ExtiLine This parameter can be a combination of the following values:
 590:Drivers/STM32L0xx_HAL_Driver/Inc/stm32l0xx_ll_exti.h ****   *         @arg @ref LL_EXTI_LINE_0
 591:Drivers/STM32L0xx_HAL_Driver/Inc/stm32l0xx_ll_exti.h ****   *         @arg @ref LL_EXTI_LINE_1
 592:Drivers/STM32L0xx_HAL_Driver/Inc/stm32l0xx_ll_exti.h ****   *         @arg @ref LL_EXTI_LINE_2
 593:Drivers/STM32L0xx_HAL_Driver/Inc/stm32l0xx_ll_exti.h ****   *         @arg @ref LL_EXTI_LINE_3
 594:Drivers/STM32L0xx_HAL_Driver/Inc/stm32l0xx_ll_exti.h ****   *         @arg @ref LL_EXTI_LINE_4
 595:Drivers/STM32L0xx_HAL_Driver/Inc/stm32l0xx_ll_exti.h ****   *         @arg @ref LL_EXTI_LINE_5
 596:Drivers/STM32L0xx_HAL_Driver/Inc/stm32l0xx_ll_exti.h ****   *         @arg @ref LL_EXTI_LINE_6
 597:Drivers/STM32L0xx_HAL_Driver/Inc/stm32l0xx_ll_exti.h ****   *         @arg @ref LL_EXTI_LINE_7
 598:Drivers/STM32L0xx_HAL_Driver/Inc/stm32l0xx_ll_exti.h ****   *         @arg @ref LL_EXTI_LINE_8
 599:Drivers/STM32L0xx_HAL_Driver/Inc/stm32l0xx_ll_exti.h ****   *         @arg @ref LL_EXTI_LINE_9
 600:Drivers/STM32L0xx_HAL_Driver/Inc/stm32l0xx_ll_exti.h ****   *         @arg @ref LL_EXTI_LINE_10
 601:Drivers/STM32L0xx_HAL_Driver/Inc/stm32l0xx_ll_exti.h ****   *         @arg @ref LL_EXTI_LINE_11
 602:Drivers/STM32L0xx_HAL_Driver/Inc/stm32l0xx_ll_exti.h ****   *         @arg @ref LL_EXTI_LINE_12
 603:Drivers/STM32L0xx_HAL_Driver/Inc/stm32l0xx_ll_exti.h ****   *         @arg @ref LL_EXTI_LINE_13
 604:Drivers/STM32L0xx_HAL_Driver/Inc/stm32l0xx_ll_exti.h ****   *         @arg @ref LL_EXTI_LINE_14
 605:Drivers/STM32L0xx_HAL_Driver/Inc/stm32l0xx_ll_exti.h ****   *         @arg @ref LL_EXTI_LINE_15
 606:Drivers/STM32L0xx_HAL_Driver/Inc/stm32l0xx_ll_exti.h ****   *         @arg @ref LL_EXTI_LINE_16
 607:Drivers/STM32L0xx_HAL_Driver/Inc/stm32l0xx_ll_exti.h ****   *         @arg @ref LL_EXTI_LINE_18
 608:Drivers/STM32L0xx_HAL_Driver/Inc/stm32l0xx_ll_exti.h ****   *         @arg @ref LL_EXTI_LINE_19
 609:Drivers/STM32L0xx_HAL_Driver/Inc/stm32l0xx_ll_exti.h ****   *         @arg @ref LL_EXTI_LINE_20
 610:Drivers/STM32L0xx_HAL_Driver/Inc/stm32l0xx_ll_exti.h ****   *         @arg @ref LL_EXTI_LINE_21
 611:Drivers/STM32L0xx_HAL_Driver/Inc/stm32l0xx_ll_exti.h ****   *         @arg @ref LL_EXTI_LINE_22
 612:Drivers/STM32L0xx_HAL_Driver/Inc/stm32l0xx_ll_exti.h ****   *         @arg @ref LL_EXTI_LINE_29
 613:Drivers/STM32L0xx_HAL_Driver/Inc/stm32l0xx_ll_exti.h ****   *         @arg @ref LL_EXTI_LINE_30
 614:Drivers/STM32L0xx_HAL_Driver/Inc/stm32l0xx_ll_exti.h ****   *         @arg @ref LL_EXTI_LINE_31
 615:Drivers/STM32L0xx_HAL_Driver/Inc/stm32l0xx_ll_exti.h ****   * @note   Please check each device line mapping for EXTI Line availability
 616:Drivers/STM32L0xx_HAL_Driver/Inc/stm32l0xx_ll_exti.h ****   * @retval None
 617:Drivers/STM32L0xx_HAL_Driver/Inc/stm32l0xx_ll_exti.h ****   */
 618:Drivers/STM32L0xx_HAL_Driver/Inc/stm32l0xx_ll_exti.h **** __STATIC_INLINE void LL_EXTI_DisableRisingTrig_0_31(uint32_t ExtiLine)
 619:Drivers/STM32L0xx_HAL_Driver/Inc/stm32l0xx_ll_exti.h **** {
 620:Drivers/STM32L0xx_HAL_Driver/Inc/stm32l0xx_ll_exti.h ****   CLEAR_BIT(EXTI->RTSR, ExtiLine);
 621:Drivers/STM32L0xx_HAL_Driver/Inc/stm32l0xx_ll_exti.h **** 
 622:Drivers/STM32L0xx_HAL_Driver/Inc/stm32l0xx_ll_exti.h **** }
 623:Drivers/STM32L0xx_HAL_Driver/Inc/stm32l0xx_ll_exti.h **** 
 624:Drivers/STM32L0xx_HAL_Driver/Inc/stm32l0xx_ll_exti.h **** 
 625:Drivers/STM32L0xx_HAL_Driver/Inc/stm32l0xx_ll_exti.h **** /**
 626:Drivers/STM32L0xx_HAL_Driver/Inc/stm32l0xx_ll_exti.h ****   * @brief  Check if rising edge trigger is enabled for Lines in range 0 to 31
 627:Drivers/STM32L0xx_HAL_Driver/Inc/stm32l0xx_ll_exti.h ****   * @rmtoll RTSR        RTx           LL_EXTI_IsEnabledRisingTrig_0_31
ARM GAS  /tmp/ccr6mobF.s 			page 17


 628:Drivers/STM32L0xx_HAL_Driver/Inc/stm32l0xx_ll_exti.h ****   * @param  ExtiLine This parameter can be a combination of the following values:
 629:Drivers/STM32L0xx_HAL_Driver/Inc/stm32l0xx_ll_exti.h ****   *         @arg @ref LL_EXTI_LINE_0
 630:Drivers/STM32L0xx_HAL_Driver/Inc/stm32l0xx_ll_exti.h ****   *         @arg @ref LL_EXTI_LINE_1
 631:Drivers/STM32L0xx_HAL_Driver/Inc/stm32l0xx_ll_exti.h ****   *         @arg @ref LL_EXTI_LINE_2
 632:Drivers/STM32L0xx_HAL_Driver/Inc/stm32l0xx_ll_exti.h ****   *         @arg @ref LL_EXTI_LINE_3
 633:Drivers/STM32L0xx_HAL_Driver/Inc/stm32l0xx_ll_exti.h ****   *         @arg @ref LL_EXTI_LINE_4
 634:Drivers/STM32L0xx_HAL_Driver/Inc/stm32l0xx_ll_exti.h ****   *         @arg @ref LL_EXTI_LINE_5
 635:Drivers/STM32L0xx_HAL_Driver/Inc/stm32l0xx_ll_exti.h ****   *         @arg @ref LL_EXTI_LINE_6
 636:Drivers/STM32L0xx_HAL_Driver/Inc/stm32l0xx_ll_exti.h ****   *         @arg @ref LL_EXTI_LINE_7
 637:Drivers/STM32L0xx_HAL_Driver/Inc/stm32l0xx_ll_exti.h ****   *         @arg @ref LL_EXTI_LINE_8
 638:Drivers/STM32L0xx_HAL_Driver/Inc/stm32l0xx_ll_exti.h ****   *         @arg @ref LL_EXTI_LINE_9
 639:Drivers/STM32L0xx_HAL_Driver/Inc/stm32l0xx_ll_exti.h ****   *         @arg @ref LL_EXTI_LINE_10
 640:Drivers/STM32L0xx_HAL_Driver/Inc/stm32l0xx_ll_exti.h ****   *         @arg @ref LL_EXTI_LINE_11
 641:Drivers/STM32L0xx_HAL_Driver/Inc/stm32l0xx_ll_exti.h ****   *         @arg @ref LL_EXTI_LINE_12
 642:Drivers/STM32L0xx_HAL_Driver/Inc/stm32l0xx_ll_exti.h ****   *         @arg @ref LL_EXTI_LINE_13
 643:Drivers/STM32L0xx_HAL_Driver/Inc/stm32l0xx_ll_exti.h ****   *         @arg @ref LL_EXTI_LINE_14
 644:Drivers/STM32L0xx_HAL_Driver/Inc/stm32l0xx_ll_exti.h ****   *         @arg @ref LL_EXTI_LINE_15
 645:Drivers/STM32L0xx_HAL_Driver/Inc/stm32l0xx_ll_exti.h ****   *         @arg @ref LL_EXTI_LINE_16
 646:Drivers/STM32L0xx_HAL_Driver/Inc/stm32l0xx_ll_exti.h ****   *         @arg @ref LL_EXTI_LINE_18
 647:Drivers/STM32L0xx_HAL_Driver/Inc/stm32l0xx_ll_exti.h ****   *         @arg @ref LL_EXTI_LINE_19
 648:Drivers/STM32L0xx_HAL_Driver/Inc/stm32l0xx_ll_exti.h ****   *         @arg @ref LL_EXTI_LINE_20
 649:Drivers/STM32L0xx_HAL_Driver/Inc/stm32l0xx_ll_exti.h ****   *         @arg @ref LL_EXTI_LINE_21
 650:Drivers/STM32L0xx_HAL_Driver/Inc/stm32l0xx_ll_exti.h ****   *         @arg @ref LL_EXTI_LINE_22
 651:Drivers/STM32L0xx_HAL_Driver/Inc/stm32l0xx_ll_exti.h ****   *         @arg @ref LL_EXTI_LINE_29
 652:Drivers/STM32L0xx_HAL_Driver/Inc/stm32l0xx_ll_exti.h ****   *         @arg @ref LL_EXTI_LINE_30
 653:Drivers/STM32L0xx_HAL_Driver/Inc/stm32l0xx_ll_exti.h ****   *         @arg @ref LL_EXTI_LINE_31
 654:Drivers/STM32L0xx_HAL_Driver/Inc/stm32l0xx_ll_exti.h ****   * @note   Please check each device line mapping for EXTI Line availability
 655:Drivers/STM32L0xx_HAL_Driver/Inc/stm32l0xx_ll_exti.h ****   * @retval State of bit (1 or 0).
 656:Drivers/STM32L0xx_HAL_Driver/Inc/stm32l0xx_ll_exti.h ****   */
 657:Drivers/STM32L0xx_HAL_Driver/Inc/stm32l0xx_ll_exti.h **** __STATIC_INLINE uint32_t LL_EXTI_IsEnabledRisingTrig_0_31(uint32_t ExtiLine)
 658:Drivers/STM32L0xx_HAL_Driver/Inc/stm32l0xx_ll_exti.h **** {
 659:Drivers/STM32L0xx_HAL_Driver/Inc/stm32l0xx_ll_exti.h ****   return (READ_BIT(EXTI->RTSR, ExtiLine) == (ExtiLine));
 660:Drivers/STM32L0xx_HAL_Driver/Inc/stm32l0xx_ll_exti.h **** }
 661:Drivers/STM32L0xx_HAL_Driver/Inc/stm32l0xx_ll_exti.h **** 
 662:Drivers/STM32L0xx_HAL_Driver/Inc/stm32l0xx_ll_exti.h **** 
 663:Drivers/STM32L0xx_HAL_Driver/Inc/stm32l0xx_ll_exti.h **** /**
 664:Drivers/STM32L0xx_HAL_Driver/Inc/stm32l0xx_ll_exti.h ****   * @}
 665:Drivers/STM32L0xx_HAL_Driver/Inc/stm32l0xx_ll_exti.h ****   */
 666:Drivers/STM32L0xx_HAL_Driver/Inc/stm32l0xx_ll_exti.h **** 
 667:Drivers/STM32L0xx_HAL_Driver/Inc/stm32l0xx_ll_exti.h **** /** @defgroup EXTI_LL_EF_Falling_Trigger_Management Falling_Trigger_Management
 668:Drivers/STM32L0xx_HAL_Driver/Inc/stm32l0xx_ll_exti.h ****   * @{
 669:Drivers/STM32L0xx_HAL_Driver/Inc/stm32l0xx_ll_exti.h ****   */
 670:Drivers/STM32L0xx_HAL_Driver/Inc/stm32l0xx_ll_exti.h **** 
 671:Drivers/STM32L0xx_HAL_Driver/Inc/stm32l0xx_ll_exti.h **** /**
 672:Drivers/STM32L0xx_HAL_Driver/Inc/stm32l0xx_ll_exti.h ****   * @brief  Enable ExtiLine Falling Edge Trigger for Lines in range 0 to 31
 673:Drivers/STM32L0xx_HAL_Driver/Inc/stm32l0xx_ll_exti.h ****   * @note The configurable wakeup lines are edge-triggered. No glitch must be
 674:Drivers/STM32L0xx_HAL_Driver/Inc/stm32l0xx_ll_exti.h ****   *       generated on these lines. If a falling edge on a configurable interrupt
 675:Drivers/STM32L0xx_HAL_Driver/Inc/stm32l0xx_ll_exti.h ****   *       line occurs during a write operation in the EXTI_FTSR register, the
 676:Drivers/STM32L0xx_HAL_Driver/Inc/stm32l0xx_ll_exti.h ****   *       pending bit is not set.
 677:Drivers/STM32L0xx_HAL_Driver/Inc/stm32l0xx_ll_exti.h ****   *       Rising and falling edge triggers can be set for
 678:Drivers/STM32L0xx_HAL_Driver/Inc/stm32l0xx_ll_exti.h ****   *       the same interrupt line. In this case, both generate a trigger
 679:Drivers/STM32L0xx_HAL_Driver/Inc/stm32l0xx_ll_exti.h ****   *       condition.
 680:Drivers/STM32L0xx_HAL_Driver/Inc/stm32l0xx_ll_exti.h ****   * @rmtoll FTSR        FTx           LL_EXTI_EnableFallingTrig_0_31
 681:Drivers/STM32L0xx_HAL_Driver/Inc/stm32l0xx_ll_exti.h ****   * @param  ExtiLine This parameter can be a combination of the following values:
 682:Drivers/STM32L0xx_HAL_Driver/Inc/stm32l0xx_ll_exti.h ****   *         @arg @ref LL_EXTI_LINE_0
 683:Drivers/STM32L0xx_HAL_Driver/Inc/stm32l0xx_ll_exti.h ****   *         @arg @ref LL_EXTI_LINE_1
 684:Drivers/STM32L0xx_HAL_Driver/Inc/stm32l0xx_ll_exti.h ****   *         @arg @ref LL_EXTI_LINE_2
ARM GAS  /tmp/ccr6mobF.s 			page 18


 685:Drivers/STM32L0xx_HAL_Driver/Inc/stm32l0xx_ll_exti.h ****   *         @arg @ref LL_EXTI_LINE_3
 686:Drivers/STM32L0xx_HAL_Driver/Inc/stm32l0xx_ll_exti.h ****   *         @arg @ref LL_EXTI_LINE_4
 687:Drivers/STM32L0xx_HAL_Driver/Inc/stm32l0xx_ll_exti.h ****   *         @arg @ref LL_EXTI_LINE_5
 688:Drivers/STM32L0xx_HAL_Driver/Inc/stm32l0xx_ll_exti.h ****   *         @arg @ref LL_EXTI_LINE_6
 689:Drivers/STM32L0xx_HAL_Driver/Inc/stm32l0xx_ll_exti.h ****   *         @arg @ref LL_EXTI_LINE_7
 690:Drivers/STM32L0xx_HAL_Driver/Inc/stm32l0xx_ll_exti.h ****   *         @arg @ref LL_EXTI_LINE_8
 691:Drivers/STM32L0xx_HAL_Driver/Inc/stm32l0xx_ll_exti.h ****   *         @arg @ref LL_EXTI_LINE_9
 692:Drivers/STM32L0xx_HAL_Driver/Inc/stm32l0xx_ll_exti.h ****   *         @arg @ref LL_EXTI_LINE_10
 693:Drivers/STM32L0xx_HAL_Driver/Inc/stm32l0xx_ll_exti.h ****   *         @arg @ref LL_EXTI_LINE_11
 694:Drivers/STM32L0xx_HAL_Driver/Inc/stm32l0xx_ll_exti.h ****   *         @arg @ref LL_EXTI_LINE_12
 695:Drivers/STM32L0xx_HAL_Driver/Inc/stm32l0xx_ll_exti.h ****   *         @arg @ref LL_EXTI_LINE_13
 696:Drivers/STM32L0xx_HAL_Driver/Inc/stm32l0xx_ll_exti.h ****   *         @arg @ref LL_EXTI_LINE_14
 697:Drivers/STM32L0xx_HAL_Driver/Inc/stm32l0xx_ll_exti.h ****   *         @arg @ref LL_EXTI_LINE_15
 698:Drivers/STM32L0xx_HAL_Driver/Inc/stm32l0xx_ll_exti.h ****   *         @arg @ref LL_EXTI_LINE_16
 699:Drivers/STM32L0xx_HAL_Driver/Inc/stm32l0xx_ll_exti.h ****   *         @arg @ref LL_EXTI_LINE_18
 700:Drivers/STM32L0xx_HAL_Driver/Inc/stm32l0xx_ll_exti.h ****   *         @arg @ref LL_EXTI_LINE_19
 701:Drivers/STM32L0xx_HAL_Driver/Inc/stm32l0xx_ll_exti.h ****   *         @arg @ref LL_EXTI_LINE_20
 702:Drivers/STM32L0xx_HAL_Driver/Inc/stm32l0xx_ll_exti.h ****   *         @arg @ref LL_EXTI_LINE_21
 703:Drivers/STM32L0xx_HAL_Driver/Inc/stm32l0xx_ll_exti.h ****   *         @arg @ref LL_EXTI_LINE_22
 704:Drivers/STM32L0xx_HAL_Driver/Inc/stm32l0xx_ll_exti.h ****   *         @arg @ref LL_EXTI_LINE_29
 705:Drivers/STM32L0xx_HAL_Driver/Inc/stm32l0xx_ll_exti.h ****   *         @arg @ref LL_EXTI_LINE_30
 706:Drivers/STM32L0xx_HAL_Driver/Inc/stm32l0xx_ll_exti.h ****   *         @arg @ref LL_EXTI_LINE_31
 707:Drivers/STM32L0xx_HAL_Driver/Inc/stm32l0xx_ll_exti.h ****   * @note   Please check each device line mapping for EXTI Line availability
 708:Drivers/STM32L0xx_HAL_Driver/Inc/stm32l0xx_ll_exti.h ****   * @retval None
 709:Drivers/STM32L0xx_HAL_Driver/Inc/stm32l0xx_ll_exti.h ****   */
 710:Drivers/STM32L0xx_HAL_Driver/Inc/stm32l0xx_ll_exti.h **** __STATIC_INLINE void LL_EXTI_EnableFallingTrig_0_31(uint32_t ExtiLine)
 711:Drivers/STM32L0xx_HAL_Driver/Inc/stm32l0xx_ll_exti.h **** {
 712:Drivers/STM32L0xx_HAL_Driver/Inc/stm32l0xx_ll_exti.h ****   SET_BIT(EXTI->FTSR, ExtiLine);
 713:Drivers/STM32L0xx_HAL_Driver/Inc/stm32l0xx_ll_exti.h **** }
 714:Drivers/STM32L0xx_HAL_Driver/Inc/stm32l0xx_ll_exti.h **** 
 715:Drivers/STM32L0xx_HAL_Driver/Inc/stm32l0xx_ll_exti.h **** 
 716:Drivers/STM32L0xx_HAL_Driver/Inc/stm32l0xx_ll_exti.h **** /**
 717:Drivers/STM32L0xx_HAL_Driver/Inc/stm32l0xx_ll_exti.h ****   * @brief  Disable ExtiLine Falling Edge Trigger for Lines in range 0 to 31
 718:Drivers/STM32L0xx_HAL_Driver/Inc/stm32l0xx_ll_exti.h ****   * @note The configurable wakeup lines are edge-triggered. No glitch must be
 719:Drivers/STM32L0xx_HAL_Driver/Inc/stm32l0xx_ll_exti.h ****   *       generated on these lines. If a Falling edge on a configurable interrupt
 720:Drivers/STM32L0xx_HAL_Driver/Inc/stm32l0xx_ll_exti.h ****   *       line occurs during a write operation in the EXTI_FTSR register, the
 721:Drivers/STM32L0xx_HAL_Driver/Inc/stm32l0xx_ll_exti.h ****   *       pending bit is not set.
 722:Drivers/STM32L0xx_HAL_Driver/Inc/stm32l0xx_ll_exti.h ****   *       Rising and falling edge triggers can be set for the same interrupt line.
 723:Drivers/STM32L0xx_HAL_Driver/Inc/stm32l0xx_ll_exti.h ****   *       In this case, both generate a trigger condition.
 724:Drivers/STM32L0xx_HAL_Driver/Inc/stm32l0xx_ll_exti.h ****   * @rmtoll FTSR        FTx           LL_EXTI_DisableFallingTrig_0_31
 725:Drivers/STM32L0xx_HAL_Driver/Inc/stm32l0xx_ll_exti.h ****   * @param  ExtiLine This parameter can be a combination of the following values:
 726:Drivers/STM32L0xx_HAL_Driver/Inc/stm32l0xx_ll_exti.h ****   *         @arg @ref LL_EXTI_LINE_0
 727:Drivers/STM32L0xx_HAL_Driver/Inc/stm32l0xx_ll_exti.h ****   *         @arg @ref LL_EXTI_LINE_1
 728:Drivers/STM32L0xx_HAL_Driver/Inc/stm32l0xx_ll_exti.h ****   *         @arg @ref LL_EXTI_LINE_2
 729:Drivers/STM32L0xx_HAL_Driver/Inc/stm32l0xx_ll_exti.h ****   *         @arg @ref LL_EXTI_LINE_3
 730:Drivers/STM32L0xx_HAL_Driver/Inc/stm32l0xx_ll_exti.h ****   *         @arg @ref LL_EXTI_LINE_4
 731:Drivers/STM32L0xx_HAL_Driver/Inc/stm32l0xx_ll_exti.h ****   *         @arg @ref LL_EXTI_LINE_5
 732:Drivers/STM32L0xx_HAL_Driver/Inc/stm32l0xx_ll_exti.h ****   *         @arg @ref LL_EXTI_LINE_6
 733:Drivers/STM32L0xx_HAL_Driver/Inc/stm32l0xx_ll_exti.h ****   *         @arg @ref LL_EXTI_LINE_7
 734:Drivers/STM32L0xx_HAL_Driver/Inc/stm32l0xx_ll_exti.h ****   *         @arg @ref LL_EXTI_LINE_8
 735:Drivers/STM32L0xx_HAL_Driver/Inc/stm32l0xx_ll_exti.h ****   *         @arg @ref LL_EXTI_LINE_9
 736:Drivers/STM32L0xx_HAL_Driver/Inc/stm32l0xx_ll_exti.h ****   *         @arg @ref LL_EXTI_LINE_10
 737:Drivers/STM32L0xx_HAL_Driver/Inc/stm32l0xx_ll_exti.h ****   *         @arg @ref LL_EXTI_LINE_11
 738:Drivers/STM32L0xx_HAL_Driver/Inc/stm32l0xx_ll_exti.h ****   *         @arg @ref LL_EXTI_LINE_12
 739:Drivers/STM32L0xx_HAL_Driver/Inc/stm32l0xx_ll_exti.h ****   *         @arg @ref LL_EXTI_LINE_13
 740:Drivers/STM32L0xx_HAL_Driver/Inc/stm32l0xx_ll_exti.h ****   *         @arg @ref LL_EXTI_LINE_14
 741:Drivers/STM32L0xx_HAL_Driver/Inc/stm32l0xx_ll_exti.h ****   *         @arg @ref LL_EXTI_LINE_15
ARM GAS  /tmp/ccr6mobF.s 			page 19


 742:Drivers/STM32L0xx_HAL_Driver/Inc/stm32l0xx_ll_exti.h ****   *         @arg @ref LL_EXTI_LINE_16
 743:Drivers/STM32L0xx_HAL_Driver/Inc/stm32l0xx_ll_exti.h ****   *         @arg @ref LL_EXTI_LINE_18
 744:Drivers/STM32L0xx_HAL_Driver/Inc/stm32l0xx_ll_exti.h ****   *         @arg @ref LL_EXTI_LINE_19
 745:Drivers/STM32L0xx_HAL_Driver/Inc/stm32l0xx_ll_exti.h ****   *         @arg @ref LL_EXTI_LINE_20
 746:Drivers/STM32L0xx_HAL_Driver/Inc/stm32l0xx_ll_exti.h ****   *         @arg @ref LL_EXTI_LINE_21
 747:Drivers/STM32L0xx_HAL_Driver/Inc/stm32l0xx_ll_exti.h ****   *         @arg @ref LL_EXTI_LINE_22
 748:Drivers/STM32L0xx_HAL_Driver/Inc/stm32l0xx_ll_exti.h ****   *         @arg @ref LL_EXTI_LINE_29
 749:Drivers/STM32L0xx_HAL_Driver/Inc/stm32l0xx_ll_exti.h ****   *         @arg @ref LL_EXTI_LINE_30
 750:Drivers/STM32L0xx_HAL_Driver/Inc/stm32l0xx_ll_exti.h ****   *         @arg @ref LL_EXTI_LINE_31
 751:Drivers/STM32L0xx_HAL_Driver/Inc/stm32l0xx_ll_exti.h ****   * @note   Please check each device line mapping for EXTI Line availability
 752:Drivers/STM32L0xx_HAL_Driver/Inc/stm32l0xx_ll_exti.h ****   * @retval None
 753:Drivers/STM32L0xx_HAL_Driver/Inc/stm32l0xx_ll_exti.h ****   */
 754:Drivers/STM32L0xx_HAL_Driver/Inc/stm32l0xx_ll_exti.h **** __STATIC_INLINE void LL_EXTI_DisableFallingTrig_0_31(uint32_t ExtiLine)
 755:Drivers/STM32L0xx_HAL_Driver/Inc/stm32l0xx_ll_exti.h **** {
 756:Drivers/STM32L0xx_HAL_Driver/Inc/stm32l0xx_ll_exti.h ****   CLEAR_BIT(EXTI->FTSR, ExtiLine);
 757:Drivers/STM32L0xx_HAL_Driver/Inc/stm32l0xx_ll_exti.h **** }
 758:Drivers/STM32L0xx_HAL_Driver/Inc/stm32l0xx_ll_exti.h **** 
 759:Drivers/STM32L0xx_HAL_Driver/Inc/stm32l0xx_ll_exti.h **** 
 760:Drivers/STM32L0xx_HAL_Driver/Inc/stm32l0xx_ll_exti.h **** /**
 761:Drivers/STM32L0xx_HAL_Driver/Inc/stm32l0xx_ll_exti.h ****   * @brief  Check if falling edge trigger is enabled for Lines in range 0 to 31
 762:Drivers/STM32L0xx_HAL_Driver/Inc/stm32l0xx_ll_exti.h ****   * @rmtoll FTSR        FTx           LL_EXTI_IsEnabledFallingTrig_0_31
 763:Drivers/STM32L0xx_HAL_Driver/Inc/stm32l0xx_ll_exti.h ****   * @param  ExtiLine This parameter can be a combination of the following values:
 764:Drivers/STM32L0xx_HAL_Driver/Inc/stm32l0xx_ll_exti.h ****   *         @arg @ref LL_EXTI_LINE_0
 765:Drivers/STM32L0xx_HAL_Driver/Inc/stm32l0xx_ll_exti.h ****   *         @arg @ref LL_EXTI_LINE_1
 766:Drivers/STM32L0xx_HAL_Driver/Inc/stm32l0xx_ll_exti.h ****   *         @arg @ref LL_EXTI_LINE_2
 767:Drivers/STM32L0xx_HAL_Driver/Inc/stm32l0xx_ll_exti.h ****   *         @arg @ref LL_EXTI_LINE_3
 768:Drivers/STM32L0xx_HAL_Driver/Inc/stm32l0xx_ll_exti.h ****   *         @arg @ref LL_EXTI_LINE_4
 769:Drivers/STM32L0xx_HAL_Driver/Inc/stm32l0xx_ll_exti.h ****   *         @arg @ref LL_EXTI_LINE_5
 770:Drivers/STM32L0xx_HAL_Driver/Inc/stm32l0xx_ll_exti.h ****   *         @arg @ref LL_EXTI_LINE_6
 771:Drivers/STM32L0xx_HAL_Driver/Inc/stm32l0xx_ll_exti.h ****   *         @arg @ref LL_EXTI_LINE_7
 772:Drivers/STM32L0xx_HAL_Driver/Inc/stm32l0xx_ll_exti.h ****   *         @arg @ref LL_EXTI_LINE_8
 773:Drivers/STM32L0xx_HAL_Driver/Inc/stm32l0xx_ll_exti.h ****   *         @arg @ref LL_EXTI_LINE_9
 774:Drivers/STM32L0xx_HAL_Driver/Inc/stm32l0xx_ll_exti.h ****   *         @arg @ref LL_EXTI_LINE_10
 775:Drivers/STM32L0xx_HAL_Driver/Inc/stm32l0xx_ll_exti.h ****   *         @arg @ref LL_EXTI_LINE_11
 776:Drivers/STM32L0xx_HAL_Driver/Inc/stm32l0xx_ll_exti.h ****   *         @arg @ref LL_EXTI_LINE_12
 777:Drivers/STM32L0xx_HAL_Driver/Inc/stm32l0xx_ll_exti.h ****   *         @arg @ref LL_EXTI_LINE_13
 778:Drivers/STM32L0xx_HAL_Driver/Inc/stm32l0xx_ll_exti.h ****   *         @arg @ref LL_EXTI_LINE_14
 779:Drivers/STM32L0xx_HAL_Driver/Inc/stm32l0xx_ll_exti.h ****   *         @arg @ref LL_EXTI_LINE_15
 780:Drivers/STM32L0xx_HAL_Driver/Inc/stm32l0xx_ll_exti.h ****   *         @arg @ref LL_EXTI_LINE_16
 781:Drivers/STM32L0xx_HAL_Driver/Inc/stm32l0xx_ll_exti.h ****   *         @arg @ref LL_EXTI_LINE_18
 782:Drivers/STM32L0xx_HAL_Driver/Inc/stm32l0xx_ll_exti.h ****   *         @arg @ref LL_EXTI_LINE_19
 783:Drivers/STM32L0xx_HAL_Driver/Inc/stm32l0xx_ll_exti.h ****   *         @arg @ref LL_EXTI_LINE_20
 784:Drivers/STM32L0xx_HAL_Driver/Inc/stm32l0xx_ll_exti.h ****   *         @arg @ref LL_EXTI_LINE_21
 785:Drivers/STM32L0xx_HAL_Driver/Inc/stm32l0xx_ll_exti.h ****   *         @arg @ref LL_EXTI_LINE_22
 786:Drivers/STM32L0xx_HAL_Driver/Inc/stm32l0xx_ll_exti.h ****   *         @arg @ref LL_EXTI_LINE_29
 787:Drivers/STM32L0xx_HAL_Driver/Inc/stm32l0xx_ll_exti.h ****   *         @arg @ref LL_EXTI_LINE_30
 788:Drivers/STM32L0xx_HAL_Driver/Inc/stm32l0xx_ll_exti.h ****   *         @arg @ref LL_EXTI_LINE_31
 789:Drivers/STM32L0xx_HAL_Driver/Inc/stm32l0xx_ll_exti.h ****   * @note   Please check each device line mapping for EXTI Line availability
 790:Drivers/STM32L0xx_HAL_Driver/Inc/stm32l0xx_ll_exti.h ****   * @retval State of bit (1 or 0).
 791:Drivers/STM32L0xx_HAL_Driver/Inc/stm32l0xx_ll_exti.h ****   */
 792:Drivers/STM32L0xx_HAL_Driver/Inc/stm32l0xx_ll_exti.h **** __STATIC_INLINE uint32_t LL_EXTI_IsEnabledFallingTrig_0_31(uint32_t ExtiLine)
 793:Drivers/STM32L0xx_HAL_Driver/Inc/stm32l0xx_ll_exti.h **** {
 794:Drivers/STM32L0xx_HAL_Driver/Inc/stm32l0xx_ll_exti.h ****   return (READ_BIT(EXTI->FTSR, ExtiLine) == (ExtiLine));
 795:Drivers/STM32L0xx_HAL_Driver/Inc/stm32l0xx_ll_exti.h **** }
 796:Drivers/STM32L0xx_HAL_Driver/Inc/stm32l0xx_ll_exti.h **** 
 797:Drivers/STM32L0xx_HAL_Driver/Inc/stm32l0xx_ll_exti.h **** 
 798:Drivers/STM32L0xx_HAL_Driver/Inc/stm32l0xx_ll_exti.h **** /**
ARM GAS  /tmp/ccr6mobF.s 			page 20


 799:Drivers/STM32L0xx_HAL_Driver/Inc/stm32l0xx_ll_exti.h ****   * @}
 800:Drivers/STM32L0xx_HAL_Driver/Inc/stm32l0xx_ll_exti.h ****   */
 801:Drivers/STM32L0xx_HAL_Driver/Inc/stm32l0xx_ll_exti.h **** 
 802:Drivers/STM32L0xx_HAL_Driver/Inc/stm32l0xx_ll_exti.h **** /** @defgroup EXTI_LL_EF_Software_Interrupt_Management Software_Interrupt_Management
 803:Drivers/STM32L0xx_HAL_Driver/Inc/stm32l0xx_ll_exti.h ****   * @{
 804:Drivers/STM32L0xx_HAL_Driver/Inc/stm32l0xx_ll_exti.h ****   */
 805:Drivers/STM32L0xx_HAL_Driver/Inc/stm32l0xx_ll_exti.h **** 
 806:Drivers/STM32L0xx_HAL_Driver/Inc/stm32l0xx_ll_exti.h **** /**
 807:Drivers/STM32L0xx_HAL_Driver/Inc/stm32l0xx_ll_exti.h ****   * @brief  Generate a software Interrupt Event for Lines in range 0 to 31
 808:Drivers/STM32L0xx_HAL_Driver/Inc/stm32l0xx_ll_exti.h ****   * @note If the interrupt is enabled on this line in the EXTI_IMR, writing a 1 to
 809:Drivers/STM32L0xx_HAL_Driver/Inc/stm32l0xx_ll_exti.h ****   *       this bit when it is at '0' sets the corresponding pending bit in EXTI_PR
 810:Drivers/STM32L0xx_HAL_Driver/Inc/stm32l0xx_ll_exti.h ****   *       resulting in an interrupt request generation.
 811:Drivers/STM32L0xx_HAL_Driver/Inc/stm32l0xx_ll_exti.h ****   *       This bit is cleared by clearing the corresponding bit in the EXTI_PR
 812:Drivers/STM32L0xx_HAL_Driver/Inc/stm32l0xx_ll_exti.h ****   *       register (by writing a 1 into the bit)
 813:Drivers/STM32L0xx_HAL_Driver/Inc/stm32l0xx_ll_exti.h ****   * @rmtoll SWIER       SWIx          LL_EXTI_GenerateSWI_0_31
 814:Drivers/STM32L0xx_HAL_Driver/Inc/stm32l0xx_ll_exti.h ****   * @param  ExtiLine This parameter can be a combination of the following values:
 815:Drivers/STM32L0xx_HAL_Driver/Inc/stm32l0xx_ll_exti.h ****   *         @arg @ref LL_EXTI_LINE_0
 816:Drivers/STM32L0xx_HAL_Driver/Inc/stm32l0xx_ll_exti.h ****   *         @arg @ref LL_EXTI_LINE_1
 817:Drivers/STM32L0xx_HAL_Driver/Inc/stm32l0xx_ll_exti.h ****   *         @arg @ref LL_EXTI_LINE_2
 818:Drivers/STM32L0xx_HAL_Driver/Inc/stm32l0xx_ll_exti.h ****   *         @arg @ref LL_EXTI_LINE_3
 819:Drivers/STM32L0xx_HAL_Driver/Inc/stm32l0xx_ll_exti.h ****   *         @arg @ref LL_EXTI_LINE_4
 820:Drivers/STM32L0xx_HAL_Driver/Inc/stm32l0xx_ll_exti.h ****   *         @arg @ref LL_EXTI_LINE_5
 821:Drivers/STM32L0xx_HAL_Driver/Inc/stm32l0xx_ll_exti.h ****   *         @arg @ref LL_EXTI_LINE_6
 822:Drivers/STM32L0xx_HAL_Driver/Inc/stm32l0xx_ll_exti.h ****   *         @arg @ref LL_EXTI_LINE_7
 823:Drivers/STM32L0xx_HAL_Driver/Inc/stm32l0xx_ll_exti.h ****   *         @arg @ref LL_EXTI_LINE_8
 824:Drivers/STM32L0xx_HAL_Driver/Inc/stm32l0xx_ll_exti.h ****   *         @arg @ref LL_EXTI_LINE_9
 825:Drivers/STM32L0xx_HAL_Driver/Inc/stm32l0xx_ll_exti.h ****   *         @arg @ref LL_EXTI_LINE_10
 826:Drivers/STM32L0xx_HAL_Driver/Inc/stm32l0xx_ll_exti.h ****   *         @arg @ref LL_EXTI_LINE_11
 827:Drivers/STM32L0xx_HAL_Driver/Inc/stm32l0xx_ll_exti.h ****   *         @arg @ref LL_EXTI_LINE_12
 828:Drivers/STM32L0xx_HAL_Driver/Inc/stm32l0xx_ll_exti.h ****   *         @arg @ref LL_EXTI_LINE_13
 829:Drivers/STM32L0xx_HAL_Driver/Inc/stm32l0xx_ll_exti.h ****   *         @arg @ref LL_EXTI_LINE_14
 830:Drivers/STM32L0xx_HAL_Driver/Inc/stm32l0xx_ll_exti.h ****   *         @arg @ref LL_EXTI_LINE_15
 831:Drivers/STM32L0xx_HAL_Driver/Inc/stm32l0xx_ll_exti.h ****   *         @arg @ref LL_EXTI_LINE_16
 832:Drivers/STM32L0xx_HAL_Driver/Inc/stm32l0xx_ll_exti.h ****   *         @arg @ref LL_EXTI_LINE_18
 833:Drivers/STM32L0xx_HAL_Driver/Inc/stm32l0xx_ll_exti.h ****   *         @arg @ref LL_EXTI_LINE_19
 834:Drivers/STM32L0xx_HAL_Driver/Inc/stm32l0xx_ll_exti.h ****   *         @arg @ref LL_EXTI_LINE_20
 835:Drivers/STM32L0xx_HAL_Driver/Inc/stm32l0xx_ll_exti.h ****   *         @arg @ref LL_EXTI_LINE_21
 836:Drivers/STM32L0xx_HAL_Driver/Inc/stm32l0xx_ll_exti.h ****   *         @arg @ref LL_EXTI_LINE_22
 837:Drivers/STM32L0xx_HAL_Driver/Inc/stm32l0xx_ll_exti.h ****   *         @arg @ref LL_EXTI_LINE_29
 838:Drivers/STM32L0xx_HAL_Driver/Inc/stm32l0xx_ll_exti.h ****   *         @arg @ref LL_EXTI_LINE_30
 839:Drivers/STM32L0xx_HAL_Driver/Inc/stm32l0xx_ll_exti.h ****   *         @arg @ref LL_EXTI_LINE_31
 840:Drivers/STM32L0xx_HAL_Driver/Inc/stm32l0xx_ll_exti.h ****   * @note   Please check each device line mapping for EXTI Line availability
 841:Drivers/STM32L0xx_HAL_Driver/Inc/stm32l0xx_ll_exti.h ****   * @retval None
 842:Drivers/STM32L0xx_HAL_Driver/Inc/stm32l0xx_ll_exti.h ****   */
 843:Drivers/STM32L0xx_HAL_Driver/Inc/stm32l0xx_ll_exti.h **** __STATIC_INLINE void LL_EXTI_GenerateSWI_0_31(uint32_t ExtiLine)
 844:Drivers/STM32L0xx_HAL_Driver/Inc/stm32l0xx_ll_exti.h **** {
 845:Drivers/STM32L0xx_HAL_Driver/Inc/stm32l0xx_ll_exti.h ****   SET_BIT(EXTI->SWIER, ExtiLine);
 846:Drivers/STM32L0xx_HAL_Driver/Inc/stm32l0xx_ll_exti.h **** }
 847:Drivers/STM32L0xx_HAL_Driver/Inc/stm32l0xx_ll_exti.h **** 
 848:Drivers/STM32L0xx_HAL_Driver/Inc/stm32l0xx_ll_exti.h **** 
 849:Drivers/STM32L0xx_HAL_Driver/Inc/stm32l0xx_ll_exti.h **** /**
 850:Drivers/STM32L0xx_HAL_Driver/Inc/stm32l0xx_ll_exti.h ****   * @}
 851:Drivers/STM32L0xx_HAL_Driver/Inc/stm32l0xx_ll_exti.h ****   */
 852:Drivers/STM32L0xx_HAL_Driver/Inc/stm32l0xx_ll_exti.h **** 
 853:Drivers/STM32L0xx_HAL_Driver/Inc/stm32l0xx_ll_exti.h **** /** @defgroup EXTI_LL_EF_Flag_Management Flag_Management
 854:Drivers/STM32L0xx_HAL_Driver/Inc/stm32l0xx_ll_exti.h ****   * @{
 855:Drivers/STM32L0xx_HAL_Driver/Inc/stm32l0xx_ll_exti.h ****   */
ARM GAS  /tmp/ccr6mobF.s 			page 21


 856:Drivers/STM32L0xx_HAL_Driver/Inc/stm32l0xx_ll_exti.h **** 
 857:Drivers/STM32L0xx_HAL_Driver/Inc/stm32l0xx_ll_exti.h **** /**
 858:Drivers/STM32L0xx_HAL_Driver/Inc/stm32l0xx_ll_exti.h ****   * @brief  Check if the ExtLine Flag is set or not for Lines in range 0 to 31
 859:Drivers/STM32L0xx_HAL_Driver/Inc/stm32l0xx_ll_exti.h ****   * @note This bit is set when the selected edge event arrives on the interrupt
 860:Drivers/STM32L0xx_HAL_Driver/Inc/stm32l0xx_ll_exti.h ****   *       line. This bit is cleared by writing a 1 to the bit.
 861:Drivers/STM32L0xx_HAL_Driver/Inc/stm32l0xx_ll_exti.h ****   * @rmtoll PR          PIFx           LL_EXTI_IsActiveFlag_0_31
 862:Drivers/STM32L0xx_HAL_Driver/Inc/stm32l0xx_ll_exti.h ****   * @param  ExtiLine This parameter can be a combination of the following values:
 863:Drivers/STM32L0xx_HAL_Driver/Inc/stm32l0xx_ll_exti.h ****   *         @arg @ref LL_EXTI_LINE_0
 864:Drivers/STM32L0xx_HAL_Driver/Inc/stm32l0xx_ll_exti.h ****   *         @arg @ref LL_EXTI_LINE_1
 865:Drivers/STM32L0xx_HAL_Driver/Inc/stm32l0xx_ll_exti.h ****   *         @arg @ref LL_EXTI_LINE_2
 866:Drivers/STM32L0xx_HAL_Driver/Inc/stm32l0xx_ll_exti.h ****   *         @arg @ref LL_EXTI_LINE_3
 867:Drivers/STM32L0xx_HAL_Driver/Inc/stm32l0xx_ll_exti.h ****   *         @arg @ref LL_EXTI_LINE_4
 868:Drivers/STM32L0xx_HAL_Driver/Inc/stm32l0xx_ll_exti.h ****   *         @arg @ref LL_EXTI_LINE_5
 869:Drivers/STM32L0xx_HAL_Driver/Inc/stm32l0xx_ll_exti.h ****   *         @arg @ref LL_EXTI_LINE_6
 870:Drivers/STM32L0xx_HAL_Driver/Inc/stm32l0xx_ll_exti.h ****   *         @arg @ref LL_EXTI_LINE_7
 871:Drivers/STM32L0xx_HAL_Driver/Inc/stm32l0xx_ll_exti.h ****   *         @arg @ref LL_EXTI_LINE_8
 872:Drivers/STM32L0xx_HAL_Driver/Inc/stm32l0xx_ll_exti.h ****   *         @arg @ref LL_EXTI_LINE_9
 873:Drivers/STM32L0xx_HAL_Driver/Inc/stm32l0xx_ll_exti.h ****   *         @arg @ref LL_EXTI_LINE_10
 874:Drivers/STM32L0xx_HAL_Driver/Inc/stm32l0xx_ll_exti.h ****   *         @arg @ref LL_EXTI_LINE_11
 875:Drivers/STM32L0xx_HAL_Driver/Inc/stm32l0xx_ll_exti.h ****   *         @arg @ref LL_EXTI_LINE_12
 876:Drivers/STM32L0xx_HAL_Driver/Inc/stm32l0xx_ll_exti.h ****   *         @arg @ref LL_EXTI_LINE_13
 877:Drivers/STM32L0xx_HAL_Driver/Inc/stm32l0xx_ll_exti.h ****   *         @arg @ref LL_EXTI_LINE_14
 878:Drivers/STM32L0xx_HAL_Driver/Inc/stm32l0xx_ll_exti.h ****   *         @arg @ref LL_EXTI_LINE_15
 879:Drivers/STM32L0xx_HAL_Driver/Inc/stm32l0xx_ll_exti.h ****   *         @arg @ref LL_EXTI_LINE_16
 880:Drivers/STM32L0xx_HAL_Driver/Inc/stm32l0xx_ll_exti.h ****   *         @arg @ref LL_EXTI_LINE_18
 881:Drivers/STM32L0xx_HAL_Driver/Inc/stm32l0xx_ll_exti.h ****   *         @arg @ref LL_EXTI_LINE_19
 882:Drivers/STM32L0xx_HAL_Driver/Inc/stm32l0xx_ll_exti.h ****   *         @arg @ref LL_EXTI_LINE_20
 883:Drivers/STM32L0xx_HAL_Driver/Inc/stm32l0xx_ll_exti.h ****   *         @arg @ref LL_EXTI_LINE_21
 884:Drivers/STM32L0xx_HAL_Driver/Inc/stm32l0xx_ll_exti.h ****   *         @arg @ref LL_EXTI_LINE_22
 885:Drivers/STM32L0xx_HAL_Driver/Inc/stm32l0xx_ll_exti.h ****   *         @arg @ref LL_EXTI_LINE_29
 886:Drivers/STM32L0xx_HAL_Driver/Inc/stm32l0xx_ll_exti.h ****   *         @arg @ref LL_EXTI_LINE_30
 887:Drivers/STM32L0xx_HAL_Driver/Inc/stm32l0xx_ll_exti.h ****   *         @arg @ref LL_EXTI_LINE_31
 888:Drivers/STM32L0xx_HAL_Driver/Inc/stm32l0xx_ll_exti.h ****   * @note   Please check each device line mapping for EXTI Line availability
 889:Drivers/STM32L0xx_HAL_Driver/Inc/stm32l0xx_ll_exti.h ****   * @retval State of bit (1 or 0).
 890:Drivers/STM32L0xx_HAL_Driver/Inc/stm32l0xx_ll_exti.h ****   */
 891:Drivers/STM32L0xx_HAL_Driver/Inc/stm32l0xx_ll_exti.h **** __STATIC_INLINE uint32_t LL_EXTI_IsActiveFlag_0_31(uint32_t ExtiLine)
 143              		.loc 2 891 26 view .LVU16
 144              	.LBB19:
 892:Drivers/STM32L0xx_HAL_Driver/Inc/stm32l0xx_ll_exti.h **** {
 893:Drivers/STM32L0xx_HAL_Driver/Inc/stm32l0xx_ll_exti.h ****   return (READ_BIT(EXTI->PR, ExtiLine) == (ExtiLine));
 145              		.loc 2 893 3 view .LVU17
 146              		.loc 2 893 11 is_stmt 0 view .LVU18
 147 0000 0C4B     		ldr	r3, .L13
 148 0002 5B69     		ldr	r3, [r3, #20]
 149              	.LVL1:
 150              		.loc 2 893 11 view .LVU19
 151              	.LBE19:
 152              	.LBE18:
 153              		.loc 1 152 6 view .LVU20
 154 0004 DB07     		lsls	r3, r3, #31
 155 0006 07D5     		bpl	.L9
 153:Core/Src/stm32l0xx_it.c ****   {
 154:Core/Src/stm32l0xx_it.c ****     LL_EXTI_ClearFlag_0_31(LL_EXTI_LINE_0);
 156              		.loc 1 154 5 is_stmt 1 view .LVU21
 157              	.LVL2:
 158              	.LBB20:
 159              	.LBI20:
ARM GAS  /tmp/ccr6mobF.s 			page 22


 894:Drivers/STM32L0xx_HAL_Driver/Inc/stm32l0xx_ll_exti.h **** }
 895:Drivers/STM32L0xx_HAL_Driver/Inc/stm32l0xx_ll_exti.h **** 
 896:Drivers/STM32L0xx_HAL_Driver/Inc/stm32l0xx_ll_exti.h **** 
 897:Drivers/STM32L0xx_HAL_Driver/Inc/stm32l0xx_ll_exti.h **** /**
 898:Drivers/STM32L0xx_HAL_Driver/Inc/stm32l0xx_ll_exti.h ****   * @brief  Read ExtLine Combination Flag for Lines in range 0 to 31
 899:Drivers/STM32L0xx_HAL_Driver/Inc/stm32l0xx_ll_exti.h ****   * @note This bit is set when the selected edge event arrives on the interrupt
 900:Drivers/STM32L0xx_HAL_Driver/Inc/stm32l0xx_ll_exti.h ****   *       line. This bit is cleared by writing a 1 to the bit.
 901:Drivers/STM32L0xx_HAL_Driver/Inc/stm32l0xx_ll_exti.h ****   * @rmtoll PR          PIFx           LL_EXTI_ReadFlag_0_31
 902:Drivers/STM32L0xx_HAL_Driver/Inc/stm32l0xx_ll_exti.h ****   * @param  ExtiLine This parameter can be a combination of the following values:
 903:Drivers/STM32L0xx_HAL_Driver/Inc/stm32l0xx_ll_exti.h ****   *         @arg @ref LL_EXTI_LINE_0
 904:Drivers/STM32L0xx_HAL_Driver/Inc/stm32l0xx_ll_exti.h ****   *         @arg @ref LL_EXTI_LINE_1
 905:Drivers/STM32L0xx_HAL_Driver/Inc/stm32l0xx_ll_exti.h ****   *         @arg @ref LL_EXTI_LINE_2
 906:Drivers/STM32L0xx_HAL_Driver/Inc/stm32l0xx_ll_exti.h ****   *         @arg @ref LL_EXTI_LINE_3
 907:Drivers/STM32L0xx_HAL_Driver/Inc/stm32l0xx_ll_exti.h ****   *         @arg @ref LL_EXTI_LINE_4
 908:Drivers/STM32L0xx_HAL_Driver/Inc/stm32l0xx_ll_exti.h ****   *         @arg @ref LL_EXTI_LINE_5
 909:Drivers/STM32L0xx_HAL_Driver/Inc/stm32l0xx_ll_exti.h ****   *         @arg @ref LL_EXTI_LINE_6
 910:Drivers/STM32L0xx_HAL_Driver/Inc/stm32l0xx_ll_exti.h ****   *         @arg @ref LL_EXTI_LINE_7
 911:Drivers/STM32L0xx_HAL_Driver/Inc/stm32l0xx_ll_exti.h ****   *         @arg @ref LL_EXTI_LINE_8
 912:Drivers/STM32L0xx_HAL_Driver/Inc/stm32l0xx_ll_exti.h ****   *         @arg @ref LL_EXTI_LINE_9
 913:Drivers/STM32L0xx_HAL_Driver/Inc/stm32l0xx_ll_exti.h ****   *         @arg @ref LL_EXTI_LINE_10
 914:Drivers/STM32L0xx_HAL_Driver/Inc/stm32l0xx_ll_exti.h ****   *         @arg @ref LL_EXTI_LINE_11
 915:Drivers/STM32L0xx_HAL_Driver/Inc/stm32l0xx_ll_exti.h ****   *         @arg @ref LL_EXTI_LINE_12
 916:Drivers/STM32L0xx_HAL_Driver/Inc/stm32l0xx_ll_exti.h ****   *         @arg @ref LL_EXTI_LINE_13
 917:Drivers/STM32L0xx_HAL_Driver/Inc/stm32l0xx_ll_exti.h ****   *         @arg @ref LL_EXTI_LINE_14
 918:Drivers/STM32L0xx_HAL_Driver/Inc/stm32l0xx_ll_exti.h ****   *         @arg @ref LL_EXTI_LINE_15
 919:Drivers/STM32L0xx_HAL_Driver/Inc/stm32l0xx_ll_exti.h ****   *         @arg @ref LL_EXTI_LINE_16
 920:Drivers/STM32L0xx_HAL_Driver/Inc/stm32l0xx_ll_exti.h ****   *         @arg @ref LL_EXTI_LINE_18
 921:Drivers/STM32L0xx_HAL_Driver/Inc/stm32l0xx_ll_exti.h ****   *         @arg @ref LL_EXTI_LINE_19
 922:Drivers/STM32L0xx_HAL_Driver/Inc/stm32l0xx_ll_exti.h ****   *         @arg @ref LL_EXTI_LINE_20
 923:Drivers/STM32L0xx_HAL_Driver/Inc/stm32l0xx_ll_exti.h ****   *         @arg @ref LL_EXTI_LINE_21
 924:Drivers/STM32L0xx_HAL_Driver/Inc/stm32l0xx_ll_exti.h ****   *         @arg @ref LL_EXTI_LINE_22
 925:Drivers/STM32L0xx_HAL_Driver/Inc/stm32l0xx_ll_exti.h ****   *         @arg @ref LL_EXTI_LINE_29
 926:Drivers/STM32L0xx_HAL_Driver/Inc/stm32l0xx_ll_exti.h ****   *         @arg @ref LL_EXTI_LINE_30
 927:Drivers/STM32L0xx_HAL_Driver/Inc/stm32l0xx_ll_exti.h ****   *         @arg @ref LL_EXTI_LINE_31
 928:Drivers/STM32L0xx_HAL_Driver/Inc/stm32l0xx_ll_exti.h ****   * @note   Please check each device line mapping for EXTI Line availability
 929:Drivers/STM32L0xx_HAL_Driver/Inc/stm32l0xx_ll_exti.h ****   * @retval @note This bit is set when the selected edge event arrives on the interrupt
 930:Drivers/STM32L0xx_HAL_Driver/Inc/stm32l0xx_ll_exti.h ****   */
 931:Drivers/STM32L0xx_HAL_Driver/Inc/stm32l0xx_ll_exti.h **** __STATIC_INLINE uint32_t LL_EXTI_ReadFlag_0_31(uint32_t ExtiLine)
 932:Drivers/STM32L0xx_HAL_Driver/Inc/stm32l0xx_ll_exti.h **** {
 933:Drivers/STM32L0xx_HAL_Driver/Inc/stm32l0xx_ll_exti.h ****   return (uint32_t)(READ_BIT(EXTI->PR, ExtiLine));
 934:Drivers/STM32L0xx_HAL_Driver/Inc/stm32l0xx_ll_exti.h **** }
 935:Drivers/STM32L0xx_HAL_Driver/Inc/stm32l0xx_ll_exti.h **** 
 936:Drivers/STM32L0xx_HAL_Driver/Inc/stm32l0xx_ll_exti.h **** 
 937:Drivers/STM32L0xx_HAL_Driver/Inc/stm32l0xx_ll_exti.h **** /**
 938:Drivers/STM32L0xx_HAL_Driver/Inc/stm32l0xx_ll_exti.h ****   * @brief  Clear ExtLine Flags  for Lines in range 0 to 31
 939:Drivers/STM32L0xx_HAL_Driver/Inc/stm32l0xx_ll_exti.h ****   * @note This bit is set when the selected edge event arrives on the interrupt
 940:Drivers/STM32L0xx_HAL_Driver/Inc/stm32l0xx_ll_exti.h ****   *       line. This bit is cleared by writing a 1 to the bit.
 941:Drivers/STM32L0xx_HAL_Driver/Inc/stm32l0xx_ll_exti.h ****   * @rmtoll PR          PIFx           LL_EXTI_ClearFlag_0_31
 942:Drivers/STM32L0xx_HAL_Driver/Inc/stm32l0xx_ll_exti.h ****   * @param  ExtiLine This parameter can be a combination of the following values:
 943:Drivers/STM32L0xx_HAL_Driver/Inc/stm32l0xx_ll_exti.h ****   *         @arg @ref LL_EXTI_LINE_0
 944:Drivers/STM32L0xx_HAL_Driver/Inc/stm32l0xx_ll_exti.h ****   *         @arg @ref LL_EXTI_LINE_1
 945:Drivers/STM32L0xx_HAL_Driver/Inc/stm32l0xx_ll_exti.h ****   *         @arg @ref LL_EXTI_LINE_2
 946:Drivers/STM32L0xx_HAL_Driver/Inc/stm32l0xx_ll_exti.h ****   *         @arg @ref LL_EXTI_LINE_3
 947:Drivers/STM32L0xx_HAL_Driver/Inc/stm32l0xx_ll_exti.h ****   *         @arg @ref LL_EXTI_LINE_4
 948:Drivers/STM32L0xx_HAL_Driver/Inc/stm32l0xx_ll_exti.h ****   *         @arg @ref LL_EXTI_LINE_5
 949:Drivers/STM32L0xx_HAL_Driver/Inc/stm32l0xx_ll_exti.h ****   *         @arg @ref LL_EXTI_LINE_6
 950:Drivers/STM32L0xx_HAL_Driver/Inc/stm32l0xx_ll_exti.h ****   *         @arg @ref LL_EXTI_LINE_7
ARM GAS  /tmp/ccr6mobF.s 			page 23


 951:Drivers/STM32L0xx_HAL_Driver/Inc/stm32l0xx_ll_exti.h ****   *         @arg @ref LL_EXTI_LINE_8
 952:Drivers/STM32L0xx_HAL_Driver/Inc/stm32l0xx_ll_exti.h ****   *         @arg @ref LL_EXTI_LINE_9
 953:Drivers/STM32L0xx_HAL_Driver/Inc/stm32l0xx_ll_exti.h ****   *         @arg @ref LL_EXTI_LINE_10
 954:Drivers/STM32L0xx_HAL_Driver/Inc/stm32l0xx_ll_exti.h ****   *         @arg @ref LL_EXTI_LINE_11
 955:Drivers/STM32L0xx_HAL_Driver/Inc/stm32l0xx_ll_exti.h ****   *         @arg @ref LL_EXTI_LINE_12
 956:Drivers/STM32L0xx_HAL_Driver/Inc/stm32l0xx_ll_exti.h ****   *         @arg @ref LL_EXTI_LINE_13
 957:Drivers/STM32L0xx_HAL_Driver/Inc/stm32l0xx_ll_exti.h ****   *         @arg @ref LL_EXTI_LINE_14
 958:Drivers/STM32L0xx_HAL_Driver/Inc/stm32l0xx_ll_exti.h ****   *         @arg @ref LL_EXTI_LINE_15
 959:Drivers/STM32L0xx_HAL_Driver/Inc/stm32l0xx_ll_exti.h ****   *         @arg @ref LL_EXTI_LINE_16
 960:Drivers/STM32L0xx_HAL_Driver/Inc/stm32l0xx_ll_exti.h ****   *         @arg @ref LL_EXTI_LINE_18
 961:Drivers/STM32L0xx_HAL_Driver/Inc/stm32l0xx_ll_exti.h ****   *         @arg @ref LL_EXTI_LINE_19
 962:Drivers/STM32L0xx_HAL_Driver/Inc/stm32l0xx_ll_exti.h ****   *         @arg @ref LL_EXTI_LINE_20
 963:Drivers/STM32L0xx_HAL_Driver/Inc/stm32l0xx_ll_exti.h ****   *         @arg @ref LL_EXTI_LINE_21
 964:Drivers/STM32L0xx_HAL_Driver/Inc/stm32l0xx_ll_exti.h ****   *         @arg @ref LL_EXTI_LINE_22
 965:Drivers/STM32L0xx_HAL_Driver/Inc/stm32l0xx_ll_exti.h ****   *         @arg @ref LL_EXTI_LINE_29
 966:Drivers/STM32L0xx_HAL_Driver/Inc/stm32l0xx_ll_exti.h ****   *         @arg @ref LL_EXTI_LINE_30
 967:Drivers/STM32L0xx_HAL_Driver/Inc/stm32l0xx_ll_exti.h ****   *         @arg @ref LL_EXTI_LINE_31
 968:Drivers/STM32L0xx_HAL_Driver/Inc/stm32l0xx_ll_exti.h ****   * @note   Please check each device line mapping for EXTI Line availability
 969:Drivers/STM32L0xx_HAL_Driver/Inc/stm32l0xx_ll_exti.h ****   * @retval None
 970:Drivers/STM32L0xx_HAL_Driver/Inc/stm32l0xx_ll_exti.h ****   */
 971:Drivers/STM32L0xx_HAL_Driver/Inc/stm32l0xx_ll_exti.h **** __STATIC_INLINE void LL_EXTI_ClearFlag_0_31(uint32_t ExtiLine)
 160              		.loc 2 971 22 view .LVU22
 161              	.LBB21:
 972:Drivers/STM32L0xx_HAL_Driver/Inc/stm32l0xx_ll_exti.h **** {
 973:Drivers/STM32L0xx_HAL_Driver/Inc/stm32l0xx_ll_exti.h ****   WRITE_REG(EXTI->PR, ExtiLine);
 162              		.loc 2 973 3 view .LVU23
 163 0008 0A4B     		ldr	r3, .L13
 164 000a 0122     		movs	r2, #1
 165 000c 5A61     		str	r2, [r3, #20]
 166              	.LVL3:
 167              		.loc 2 973 3 is_stmt 0 view .LVU24
 168              	.LBE21:
 169              	.LBE20:
 155:Core/Src/stm32l0xx_it.c ****     /* USER CODE BEGIN LL_EXTI_LINE_0 */
 156:Core/Src/stm32l0xx_it.c ****     count++; // Increment counter mony cash bill. One impulse = 1 min. 1 impuls = 10 rub
 170              		.loc 1 156 5 is_stmt 1 view .LVU25
 171              		.loc 1 156 10 is_stmt 0 view .LVU26
 172 000e 0A4A     		ldr	r2, .L13+4
 173 0010 1388     		ldrh	r3, [r2]
 174 0012 0133     		adds	r3, r3, #1
 175 0014 9BB2     		uxth	r3, r3
 176 0016 1380     		strh	r3, [r2]
 177              	.L9:
 157:Core/Src/stm32l0xx_it.c ****     /* USER CODE END LL_EXTI_LINE_0 */
 158:Core/Src/stm32l0xx_it.c ****   }
 159:Core/Src/stm32l0xx_it.c ****   if (LL_EXTI_IsActiveFlag_0_31(LL_EXTI_LINE_1) != RESET) // Coin input
 178              		.loc 1 159 3 is_stmt 1 view .LVU27
 179              	.LVL4:
 180              	.LBB22:
 181              	.LBI22:
 891:Drivers/STM32L0xx_HAL_Driver/Inc/stm32l0xx_ll_exti.h **** {
 182              		.loc 2 891 26 view .LVU28
 183              	.LBB23:
 893:Drivers/STM32L0xx_HAL_Driver/Inc/stm32l0xx_ll_exti.h **** }
 184              		.loc 2 893 3 view .LVU29
 893:Drivers/STM32L0xx_HAL_Driver/Inc/stm32l0xx_ll_exti.h **** }
 185              		.loc 2 893 11 is_stmt 0 view .LVU30
ARM GAS  /tmp/ccr6mobF.s 			page 24


 186 0018 064B     		ldr	r3, .L13
 187 001a 5B69     		ldr	r3, [r3, #20]
 188              	.LVL5:
 893:Drivers/STM32L0xx_HAL_Driver/Inc/stm32l0xx_ll_exti.h **** }
 189              		.loc 2 893 11 view .LVU31
 190              	.LBE23:
 191              	.LBE22:
 192              		.loc 1 159 6 view .LVU32
 193 001c 9B07     		lsls	r3, r3, #30
 194 001e 07D5     		bpl	.L8
 160:Core/Src/stm32l0xx_it.c ****   {
 161:Core/Src/stm32l0xx_it.c ****     LL_EXTI_ClearFlag_0_31(LL_EXTI_LINE_1);
 195              		.loc 1 161 5 is_stmt 1 view .LVU33
 196              	.LVL6:
 197              	.LBB24:
 198              	.LBI24:
 971:Drivers/STM32L0xx_HAL_Driver/Inc/stm32l0xx_ll_exti.h **** {
 199              		.loc 2 971 22 view .LVU34
 200              	.LBB25:
 201              		.loc 2 973 3 view .LVU35
 202 0020 044B     		ldr	r3, .L13
 203 0022 0222     		movs	r2, #2
 204 0024 5A61     		str	r2, [r3, #20]
 205              	.LVL7:
 206              		.loc 2 973 3 is_stmt 0 view .LVU36
 207              	.LBE25:
 208              	.LBE24:
 162:Core/Src/stm32l0xx_it.c ****     /* USER CODE BEGIN LL_EXTI_LINE_1 */
 163:Core/Src/stm32l0xx_it.c ****     count++;   // Increment counter mony cash coin. One coin = 1 min
 209              		.loc 1 163 5 is_stmt 1 view .LVU37
 210              		.loc 1 163 10 is_stmt 0 view .LVU38
 211 0026 044A     		ldr	r2, .L13+4
 212 0028 1388     		ldrh	r3, [r2]
 213 002a 0133     		adds	r3, r3, #1
 214 002c 9BB2     		uxth	r3, r3
 215 002e 1380     		strh	r3, [r2]
 216              	.L8:
 164:Core/Src/stm32l0xx_it.c ****     /* USER CODE END LL_EXTI_LINE_1 */
 165:Core/Src/stm32l0xx_it.c ****   }
 166:Core/Src/stm32l0xx_it.c ****   /* USER CODE BEGIN EXTI0_1_IRQn 1 */
 167:Core/Src/stm32l0xx_it.c **** 
 168:Core/Src/stm32l0xx_it.c ****   /* USER CODE END EXTI0_1_IRQn 1 */
 169:Core/Src/stm32l0xx_it.c **** }
 217              		.loc 1 169 1 view .LVU39
 218              		@ sp needed
 219 0030 7047     		bx	lr
 220              	.L14:
 221 0032 C046     		.align	2
 222              	.L13:
 223 0034 00040140 		.word	1073808384
 224 0038 00000000 		.word	count
 225              		.cfi_endproc
 226              	.LFE579:
 228              		.section	.text.TIM2_IRQHandler,"ax",%progbits
 229              		.align	1
 230              		.global	TIM2_IRQHandler
 231              		.syntax unified
ARM GAS  /tmp/ccr6mobF.s 			page 25


 232              		.code	16
 233              		.thumb_func
 235              	TIM2_IRQHandler:
 236              	.LFB580:
 170:Core/Src/stm32l0xx_it.c **** 
 171:Core/Src/stm32l0xx_it.c **** /**
 172:Core/Src/stm32l0xx_it.c ****   * @brief This function handles EXTI line 2 and line 3 interrupts.
 173:Core/Src/stm32l0xx_it.c ****   */
 174:Core/Src/stm32l0xx_it.c **** //void EXTI2_3_IRQHandler(void)
 175:Core/Src/stm32l0xx_it.c **** //{
 176:Core/Src/stm32l0xx_it.c ****   /* USER CODE BEGIN EXTI2_3_IRQn 0 */
 177:Core/Src/stm32l0xx_it.c **** 
 178:Core/Src/stm32l0xx_it.c ****   /* USER CODE END EXTI2_3_IRQn 0 */
 179:Core/Src/stm32l0xx_it.c **** //  if (LL_EXTI_IsActiveFlag_0_31(LL_EXTI_LINE_2) != RESET)
 180:Core/Src/stm32l0xx_it.c **** //  {
 181:Core/Src/stm32l0xx_it.c **** //    LL_EXTI_ClearFlag_0_31(LL_EXTI_LINE_2);
 182:Core/Src/stm32l0xx_it.c ****     /* USER CODE BEGIN LL_EXTI_LINE_2 */
 183:Core/Src/stm32l0xx_it.c ****    
 184:Core/Src/stm32l0xx_it.c ****     /* USER CODE END LL_EXTI_LINE_2 */
 185:Core/Src/stm32l0xx_it.c **** //  }
 186:Core/Src/stm32l0xx_it.c ****   /* USER CODE BEGIN EXTI2_3_IRQn 1 */
 187:Core/Src/stm32l0xx_it.c **** 
 188:Core/Src/stm32l0xx_it.c ****   /* USER CODE END EXTI2_3_IRQn 1 */
 189:Core/Src/stm32l0xx_it.c **** //}
 190:Core/Src/stm32l0xx_it.c **** 
 191:Core/Src/stm32l0xx_it.c **** /**
 192:Core/Src/stm32l0xx_it.c ****   * @brief This function handles TIM2 global interrupt.
 193:Core/Src/stm32l0xx_it.c ****   */
 194:Core/Src/stm32l0xx_it.c **** void TIM2_IRQHandler(void)
 195:Core/Src/stm32l0xx_it.c **** {
 237              		.loc 1 195 1 is_stmt 1 view -0
 238              		.cfi_startproc
 239              		@ args = 0, pretend = 0, frame = 0
 240              		@ frame_needed = 0, uses_anonymous_args = 0
 241              		@ link register save eliminated.
 196:Core/Src/stm32l0xx_it.c ****   /* USER CODE BEGIN TIM2_IRQn 0 */
 197:Core/Src/stm32l0xx_it.c ****   if (LL_TIM_IsActiveFlag_UPDATE(TIM2)) 
 242              		.loc 1 197 3 view .LVU41
 243              	.LVL8:
 244              	.LBB26:
 245              	.LBI26:
 246              		.file 3 "Drivers/STM32L0xx_HAL_Driver/Inc/stm32l0xx_ll_tim.h"
   1:Drivers/STM32L0xx_HAL_Driver/Inc/stm32l0xx_ll_tim.h **** /**
   2:Drivers/STM32L0xx_HAL_Driver/Inc/stm32l0xx_ll_tim.h ****   ******************************************************************************
   3:Drivers/STM32L0xx_HAL_Driver/Inc/stm32l0xx_ll_tim.h ****   * @file    stm32l0xx_ll_tim.h
   4:Drivers/STM32L0xx_HAL_Driver/Inc/stm32l0xx_ll_tim.h ****   * @author  MCD Application Team
   5:Drivers/STM32L0xx_HAL_Driver/Inc/stm32l0xx_ll_tim.h ****   * @brief   Header file of TIM LL module.
   6:Drivers/STM32L0xx_HAL_Driver/Inc/stm32l0xx_ll_tim.h ****   ******************************************************************************
   7:Drivers/STM32L0xx_HAL_Driver/Inc/stm32l0xx_ll_tim.h ****   * @attention
   8:Drivers/STM32L0xx_HAL_Driver/Inc/stm32l0xx_ll_tim.h ****   *
   9:Drivers/STM32L0xx_HAL_Driver/Inc/stm32l0xx_ll_tim.h ****   * <h2><center>&copy; Copyright (c) 2016 STMicroelectronics.
  10:Drivers/STM32L0xx_HAL_Driver/Inc/stm32l0xx_ll_tim.h ****   * All rights reserved.</center></h2>
  11:Drivers/STM32L0xx_HAL_Driver/Inc/stm32l0xx_ll_tim.h ****   *
  12:Drivers/STM32L0xx_HAL_Driver/Inc/stm32l0xx_ll_tim.h ****   * This software component is licensed by ST under BSD 3-Clause license,
  13:Drivers/STM32L0xx_HAL_Driver/Inc/stm32l0xx_ll_tim.h ****   * the "License"; You may not use this file except in compliance with the
  14:Drivers/STM32L0xx_HAL_Driver/Inc/stm32l0xx_ll_tim.h ****   * License. You may obtain a copy of the License at:
  15:Drivers/STM32L0xx_HAL_Driver/Inc/stm32l0xx_ll_tim.h ****   *                        opensource.org/licenses/BSD-3-Clause
ARM GAS  /tmp/ccr6mobF.s 			page 26


  16:Drivers/STM32L0xx_HAL_Driver/Inc/stm32l0xx_ll_tim.h ****   *
  17:Drivers/STM32L0xx_HAL_Driver/Inc/stm32l0xx_ll_tim.h ****   ******************************************************************************
  18:Drivers/STM32L0xx_HAL_Driver/Inc/stm32l0xx_ll_tim.h ****   */
  19:Drivers/STM32L0xx_HAL_Driver/Inc/stm32l0xx_ll_tim.h **** 
  20:Drivers/STM32L0xx_HAL_Driver/Inc/stm32l0xx_ll_tim.h **** /* Define to prevent recursive inclusion -------------------------------------*/
  21:Drivers/STM32L0xx_HAL_Driver/Inc/stm32l0xx_ll_tim.h **** #ifndef __STM32L0xx_LL_TIM_H
  22:Drivers/STM32L0xx_HAL_Driver/Inc/stm32l0xx_ll_tim.h **** #define __STM32L0xx_LL_TIM_H
  23:Drivers/STM32L0xx_HAL_Driver/Inc/stm32l0xx_ll_tim.h **** 
  24:Drivers/STM32L0xx_HAL_Driver/Inc/stm32l0xx_ll_tim.h **** #ifdef __cplusplus
  25:Drivers/STM32L0xx_HAL_Driver/Inc/stm32l0xx_ll_tim.h **** extern "C" {
  26:Drivers/STM32L0xx_HAL_Driver/Inc/stm32l0xx_ll_tim.h **** #endif
  27:Drivers/STM32L0xx_HAL_Driver/Inc/stm32l0xx_ll_tim.h **** 
  28:Drivers/STM32L0xx_HAL_Driver/Inc/stm32l0xx_ll_tim.h **** /* Includes ------------------------------------------------------------------*/
  29:Drivers/STM32L0xx_HAL_Driver/Inc/stm32l0xx_ll_tim.h **** #include "stm32l0xx.h"
  30:Drivers/STM32L0xx_HAL_Driver/Inc/stm32l0xx_ll_tim.h **** 
  31:Drivers/STM32L0xx_HAL_Driver/Inc/stm32l0xx_ll_tim.h **** /** @addtogroup STM32L0xx_LL_Driver
  32:Drivers/STM32L0xx_HAL_Driver/Inc/stm32l0xx_ll_tim.h ****   * @{
  33:Drivers/STM32L0xx_HAL_Driver/Inc/stm32l0xx_ll_tim.h ****   */
  34:Drivers/STM32L0xx_HAL_Driver/Inc/stm32l0xx_ll_tim.h **** 
  35:Drivers/STM32L0xx_HAL_Driver/Inc/stm32l0xx_ll_tim.h **** #if defined (TIM2) || defined (TIM3) || defined (TIM21) || defined (TIM22) || defined (TIM6) || def
  36:Drivers/STM32L0xx_HAL_Driver/Inc/stm32l0xx_ll_tim.h **** 
  37:Drivers/STM32L0xx_HAL_Driver/Inc/stm32l0xx_ll_tim.h **** /** @defgroup TIM_LL TIM
  38:Drivers/STM32L0xx_HAL_Driver/Inc/stm32l0xx_ll_tim.h ****   * @{
  39:Drivers/STM32L0xx_HAL_Driver/Inc/stm32l0xx_ll_tim.h ****   */
  40:Drivers/STM32L0xx_HAL_Driver/Inc/stm32l0xx_ll_tim.h **** 
  41:Drivers/STM32L0xx_HAL_Driver/Inc/stm32l0xx_ll_tim.h **** /* Private types -------------------------------------------------------------*/
  42:Drivers/STM32L0xx_HAL_Driver/Inc/stm32l0xx_ll_tim.h **** /* Private variables ---------------------------------------------------------*/
  43:Drivers/STM32L0xx_HAL_Driver/Inc/stm32l0xx_ll_tim.h **** /** @defgroup TIM_LL_Private_Variables TIM Private Variables
  44:Drivers/STM32L0xx_HAL_Driver/Inc/stm32l0xx_ll_tim.h ****   * @{
  45:Drivers/STM32L0xx_HAL_Driver/Inc/stm32l0xx_ll_tim.h ****   */
  46:Drivers/STM32L0xx_HAL_Driver/Inc/stm32l0xx_ll_tim.h **** static const uint8_t OFFSET_TAB_CCMRx[] =
  47:Drivers/STM32L0xx_HAL_Driver/Inc/stm32l0xx_ll_tim.h **** {
  48:Drivers/STM32L0xx_HAL_Driver/Inc/stm32l0xx_ll_tim.h ****   0x00U,   /* 0: TIMx_CH1  */
  49:Drivers/STM32L0xx_HAL_Driver/Inc/stm32l0xx_ll_tim.h ****   0x00U,   /* 1: NA */
  50:Drivers/STM32L0xx_HAL_Driver/Inc/stm32l0xx_ll_tim.h ****   0x00U,   /* 2: TIMx_CH2  */
  51:Drivers/STM32L0xx_HAL_Driver/Inc/stm32l0xx_ll_tim.h ****   0x00U,   /* 3: NA */
  52:Drivers/STM32L0xx_HAL_Driver/Inc/stm32l0xx_ll_tim.h ****   0x04U,   /* 4: TIMx_CH3  */
  53:Drivers/STM32L0xx_HAL_Driver/Inc/stm32l0xx_ll_tim.h ****   0x00U,   /* 5: NA */
  54:Drivers/STM32L0xx_HAL_Driver/Inc/stm32l0xx_ll_tim.h ****   0x04U    /* 6: TIMx_CH4  */
  55:Drivers/STM32L0xx_HAL_Driver/Inc/stm32l0xx_ll_tim.h **** };
  56:Drivers/STM32L0xx_HAL_Driver/Inc/stm32l0xx_ll_tim.h **** 
  57:Drivers/STM32L0xx_HAL_Driver/Inc/stm32l0xx_ll_tim.h **** static const uint8_t SHIFT_TAB_OCxx[] =
  58:Drivers/STM32L0xx_HAL_Driver/Inc/stm32l0xx_ll_tim.h **** {
  59:Drivers/STM32L0xx_HAL_Driver/Inc/stm32l0xx_ll_tim.h ****   0U,            /* 0: OC1M, OC1FE, OC1PE */
  60:Drivers/STM32L0xx_HAL_Driver/Inc/stm32l0xx_ll_tim.h ****   0U,            /* 1: - NA */
  61:Drivers/STM32L0xx_HAL_Driver/Inc/stm32l0xx_ll_tim.h ****   8U,            /* 2: OC2M, OC2FE, OC2PE */
  62:Drivers/STM32L0xx_HAL_Driver/Inc/stm32l0xx_ll_tim.h ****   0U,            /* 3: - NA */
  63:Drivers/STM32L0xx_HAL_Driver/Inc/stm32l0xx_ll_tim.h ****   0U,            /* 4: OC3M, OC3FE, OC3PE */
  64:Drivers/STM32L0xx_HAL_Driver/Inc/stm32l0xx_ll_tim.h ****   0U,            /* 5: - NA */
  65:Drivers/STM32L0xx_HAL_Driver/Inc/stm32l0xx_ll_tim.h ****   8U             /* 6: OC4M, OC4FE, OC4PE */
  66:Drivers/STM32L0xx_HAL_Driver/Inc/stm32l0xx_ll_tim.h **** };
  67:Drivers/STM32L0xx_HAL_Driver/Inc/stm32l0xx_ll_tim.h **** 
  68:Drivers/STM32L0xx_HAL_Driver/Inc/stm32l0xx_ll_tim.h **** static const uint8_t SHIFT_TAB_ICxx[] =
  69:Drivers/STM32L0xx_HAL_Driver/Inc/stm32l0xx_ll_tim.h **** {
  70:Drivers/STM32L0xx_HAL_Driver/Inc/stm32l0xx_ll_tim.h ****   0U,            /* 0: CC1S, IC1PSC, IC1F */
  71:Drivers/STM32L0xx_HAL_Driver/Inc/stm32l0xx_ll_tim.h ****   0U,            /* 1: - NA */
  72:Drivers/STM32L0xx_HAL_Driver/Inc/stm32l0xx_ll_tim.h ****   8U,            /* 2: CC2S, IC2PSC, IC2F */
ARM GAS  /tmp/ccr6mobF.s 			page 27


  73:Drivers/STM32L0xx_HAL_Driver/Inc/stm32l0xx_ll_tim.h ****   0U,            /* 3: - NA */
  74:Drivers/STM32L0xx_HAL_Driver/Inc/stm32l0xx_ll_tim.h ****   0U,            /* 4: CC3S, IC3PSC, IC3F */
  75:Drivers/STM32L0xx_HAL_Driver/Inc/stm32l0xx_ll_tim.h ****   0U,            /* 5: - NA */
  76:Drivers/STM32L0xx_HAL_Driver/Inc/stm32l0xx_ll_tim.h ****   8U             /* 6: CC4S, IC4PSC, IC4F */
  77:Drivers/STM32L0xx_HAL_Driver/Inc/stm32l0xx_ll_tim.h **** };
  78:Drivers/STM32L0xx_HAL_Driver/Inc/stm32l0xx_ll_tim.h **** 
  79:Drivers/STM32L0xx_HAL_Driver/Inc/stm32l0xx_ll_tim.h **** static const uint8_t SHIFT_TAB_CCxP[] =
  80:Drivers/STM32L0xx_HAL_Driver/Inc/stm32l0xx_ll_tim.h **** {
  81:Drivers/STM32L0xx_HAL_Driver/Inc/stm32l0xx_ll_tim.h ****   0U,            /* 0: CC1P */
  82:Drivers/STM32L0xx_HAL_Driver/Inc/stm32l0xx_ll_tim.h ****   0U,            /* 1: NA */
  83:Drivers/STM32L0xx_HAL_Driver/Inc/stm32l0xx_ll_tim.h ****   4U,            /* 2: CC2P */
  84:Drivers/STM32L0xx_HAL_Driver/Inc/stm32l0xx_ll_tim.h ****   0U,            /* 3: NA */
  85:Drivers/STM32L0xx_HAL_Driver/Inc/stm32l0xx_ll_tim.h ****   8U,            /* 4: CC3P */
  86:Drivers/STM32L0xx_HAL_Driver/Inc/stm32l0xx_ll_tim.h ****   0U,            /* 5: NA */
  87:Drivers/STM32L0xx_HAL_Driver/Inc/stm32l0xx_ll_tim.h ****   12U            /* 6: CC4P */
  88:Drivers/STM32L0xx_HAL_Driver/Inc/stm32l0xx_ll_tim.h **** };
  89:Drivers/STM32L0xx_HAL_Driver/Inc/stm32l0xx_ll_tim.h **** 
  90:Drivers/STM32L0xx_HAL_Driver/Inc/stm32l0xx_ll_tim.h **** /**
  91:Drivers/STM32L0xx_HAL_Driver/Inc/stm32l0xx_ll_tim.h ****   * @}
  92:Drivers/STM32L0xx_HAL_Driver/Inc/stm32l0xx_ll_tim.h ****   */
  93:Drivers/STM32L0xx_HAL_Driver/Inc/stm32l0xx_ll_tim.h **** 
  94:Drivers/STM32L0xx_HAL_Driver/Inc/stm32l0xx_ll_tim.h **** /* Private constants ---------------------------------------------------------*/
  95:Drivers/STM32L0xx_HAL_Driver/Inc/stm32l0xx_ll_tim.h **** /** @defgroup TIM_LL_Private_Constants TIM Private Constants
  96:Drivers/STM32L0xx_HAL_Driver/Inc/stm32l0xx_ll_tim.h ****   * @{
  97:Drivers/STM32L0xx_HAL_Driver/Inc/stm32l0xx_ll_tim.h ****   */
  98:Drivers/STM32L0xx_HAL_Driver/Inc/stm32l0xx_ll_tim.h **** 
  99:Drivers/STM32L0xx_HAL_Driver/Inc/stm32l0xx_ll_tim.h **** 
 100:Drivers/STM32L0xx_HAL_Driver/Inc/stm32l0xx_ll_tim.h **** /* Remap mask definitions */
 101:Drivers/STM32L0xx_HAL_Driver/Inc/stm32l0xx_ll_tim.h **** #define TIMx_OR_RMP_SHIFT  16U
 102:Drivers/STM32L0xx_HAL_Driver/Inc/stm32l0xx_ll_tim.h **** #define TIMx_OR_RMP_MASK   0x0000FFFFU
 103:Drivers/STM32L0xx_HAL_Driver/Inc/stm32l0xx_ll_tim.h **** #define TIM2_OR_RMP_MASK   ((TIM2_OR_ETR_RMP | TIM2_OR_TI4_RMP ) << TIMx_OR_RMP_SHIFT)
 104:Drivers/STM32L0xx_HAL_Driver/Inc/stm32l0xx_ll_tim.h **** #define TIM21_OR_RMP_MASK  ((TIM21_OR_ETR_RMP | TIM21_OR_TI1_RMP | TIM21_OR_TI2_RMP) << TIMx_OR_RMP
 105:Drivers/STM32L0xx_HAL_Driver/Inc/stm32l0xx_ll_tim.h **** #define TIM22_OR_RMP_MASK  ((TIM22_OR_ETR_RMP | TIM22_OR_TI1_RMP) << TIMx_OR_RMP_SHIFT)
 106:Drivers/STM32L0xx_HAL_Driver/Inc/stm32l0xx_ll_tim.h **** #if defined(TIM3)
 107:Drivers/STM32L0xx_HAL_Driver/Inc/stm32l0xx_ll_tim.h **** #define TIM3_OR_RMP_MASK   ((TIM3_OR_ETR_RMP | TIM3_OR_TI1_RMP | TIM3_OR_TI2_RMP | \
 108:Drivers/STM32L0xx_HAL_Driver/Inc/stm32l0xx_ll_tim.h ****                              TIM3_OR_TI4_RMP) << TIMx_OR_RMP_SHIFT)
 109:Drivers/STM32L0xx_HAL_Driver/Inc/stm32l0xx_ll_tim.h **** #endif /* TIM3 */
 110:Drivers/STM32L0xx_HAL_Driver/Inc/stm32l0xx_ll_tim.h **** 
 111:Drivers/STM32L0xx_HAL_Driver/Inc/stm32l0xx_ll_tim.h **** 
 112:Drivers/STM32L0xx_HAL_Driver/Inc/stm32l0xx_ll_tim.h **** 
 113:Drivers/STM32L0xx_HAL_Driver/Inc/stm32l0xx_ll_tim.h **** /**
 114:Drivers/STM32L0xx_HAL_Driver/Inc/stm32l0xx_ll_tim.h ****   * @}
 115:Drivers/STM32L0xx_HAL_Driver/Inc/stm32l0xx_ll_tim.h ****   */
 116:Drivers/STM32L0xx_HAL_Driver/Inc/stm32l0xx_ll_tim.h **** 
 117:Drivers/STM32L0xx_HAL_Driver/Inc/stm32l0xx_ll_tim.h **** /* Private macros ------------------------------------------------------------*/
 118:Drivers/STM32L0xx_HAL_Driver/Inc/stm32l0xx_ll_tim.h **** /** @defgroup TIM_LL_Private_Macros TIM Private Macros
 119:Drivers/STM32L0xx_HAL_Driver/Inc/stm32l0xx_ll_tim.h ****   * @{
 120:Drivers/STM32L0xx_HAL_Driver/Inc/stm32l0xx_ll_tim.h ****   */
 121:Drivers/STM32L0xx_HAL_Driver/Inc/stm32l0xx_ll_tim.h **** /** @brief  Convert channel id into channel index.
 122:Drivers/STM32L0xx_HAL_Driver/Inc/stm32l0xx_ll_tim.h ****   * @param  __CHANNEL__ This parameter can be one of the following values:
 123:Drivers/STM32L0xx_HAL_Driver/Inc/stm32l0xx_ll_tim.h ****   *         @arg @ref LL_TIM_CHANNEL_CH1
 124:Drivers/STM32L0xx_HAL_Driver/Inc/stm32l0xx_ll_tim.h ****   *         @arg @ref LL_TIM_CHANNEL_CH2
 125:Drivers/STM32L0xx_HAL_Driver/Inc/stm32l0xx_ll_tim.h ****   *         @arg @ref LL_TIM_CHANNEL_CH3
 126:Drivers/STM32L0xx_HAL_Driver/Inc/stm32l0xx_ll_tim.h ****   *         @arg @ref LL_TIM_CHANNEL_CH4
 127:Drivers/STM32L0xx_HAL_Driver/Inc/stm32l0xx_ll_tim.h ****   * @retval none
 128:Drivers/STM32L0xx_HAL_Driver/Inc/stm32l0xx_ll_tim.h ****   */
 129:Drivers/STM32L0xx_HAL_Driver/Inc/stm32l0xx_ll_tim.h **** #define TIM_GET_CHANNEL_INDEX( __CHANNEL__) \
ARM GAS  /tmp/ccr6mobF.s 			page 28


 130:Drivers/STM32L0xx_HAL_Driver/Inc/stm32l0xx_ll_tim.h ****   (((__CHANNEL__) == LL_TIM_CHANNEL_CH1) ? 0U :\
 131:Drivers/STM32L0xx_HAL_Driver/Inc/stm32l0xx_ll_tim.h ****    ((__CHANNEL__) == LL_TIM_CHANNEL_CH2) ? 2U :\
 132:Drivers/STM32L0xx_HAL_Driver/Inc/stm32l0xx_ll_tim.h ****    ((__CHANNEL__) == LL_TIM_CHANNEL_CH3) ? 4U : 6U)
 133:Drivers/STM32L0xx_HAL_Driver/Inc/stm32l0xx_ll_tim.h **** 
 134:Drivers/STM32L0xx_HAL_Driver/Inc/stm32l0xx_ll_tim.h **** /**
 135:Drivers/STM32L0xx_HAL_Driver/Inc/stm32l0xx_ll_tim.h ****   * @}
 136:Drivers/STM32L0xx_HAL_Driver/Inc/stm32l0xx_ll_tim.h ****   */
 137:Drivers/STM32L0xx_HAL_Driver/Inc/stm32l0xx_ll_tim.h **** 
 138:Drivers/STM32L0xx_HAL_Driver/Inc/stm32l0xx_ll_tim.h **** 
 139:Drivers/STM32L0xx_HAL_Driver/Inc/stm32l0xx_ll_tim.h **** /* Exported types ------------------------------------------------------------*/
 140:Drivers/STM32L0xx_HAL_Driver/Inc/stm32l0xx_ll_tim.h **** #if defined(USE_FULL_LL_DRIVER)
 141:Drivers/STM32L0xx_HAL_Driver/Inc/stm32l0xx_ll_tim.h **** /** @defgroup TIM_LL_ES_INIT TIM Exported Init structure
 142:Drivers/STM32L0xx_HAL_Driver/Inc/stm32l0xx_ll_tim.h ****   * @{
 143:Drivers/STM32L0xx_HAL_Driver/Inc/stm32l0xx_ll_tim.h ****   */
 144:Drivers/STM32L0xx_HAL_Driver/Inc/stm32l0xx_ll_tim.h **** 
 145:Drivers/STM32L0xx_HAL_Driver/Inc/stm32l0xx_ll_tim.h **** /**
 146:Drivers/STM32L0xx_HAL_Driver/Inc/stm32l0xx_ll_tim.h ****   * @brief  TIM Time Base configuration structure definition.
 147:Drivers/STM32L0xx_HAL_Driver/Inc/stm32l0xx_ll_tim.h ****   */
 148:Drivers/STM32L0xx_HAL_Driver/Inc/stm32l0xx_ll_tim.h **** typedef struct
 149:Drivers/STM32L0xx_HAL_Driver/Inc/stm32l0xx_ll_tim.h **** {
 150:Drivers/STM32L0xx_HAL_Driver/Inc/stm32l0xx_ll_tim.h ****   uint16_t Prescaler;         /*!< Specifies the prescaler value used to divide the TIM clock.
 151:Drivers/STM32L0xx_HAL_Driver/Inc/stm32l0xx_ll_tim.h ****                                    This parameter can be a number between Min_Data=0x0000 and Max_D
 152:Drivers/STM32L0xx_HAL_Driver/Inc/stm32l0xx_ll_tim.h **** 
 153:Drivers/STM32L0xx_HAL_Driver/Inc/stm32l0xx_ll_tim.h ****                                    This feature can be modified afterwards using unitary function
 154:Drivers/STM32L0xx_HAL_Driver/Inc/stm32l0xx_ll_tim.h ****                                    @ref LL_TIM_SetPrescaler().*/
 155:Drivers/STM32L0xx_HAL_Driver/Inc/stm32l0xx_ll_tim.h **** 
 156:Drivers/STM32L0xx_HAL_Driver/Inc/stm32l0xx_ll_tim.h ****   uint32_t CounterMode;       /*!< Specifies the counter mode.
 157:Drivers/STM32L0xx_HAL_Driver/Inc/stm32l0xx_ll_tim.h ****                                    This parameter can be a value of @ref TIM_LL_EC_COUNTERMODE.
 158:Drivers/STM32L0xx_HAL_Driver/Inc/stm32l0xx_ll_tim.h **** 
 159:Drivers/STM32L0xx_HAL_Driver/Inc/stm32l0xx_ll_tim.h ****                                    This feature can be modified afterwards using unitary function
 160:Drivers/STM32L0xx_HAL_Driver/Inc/stm32l0xx_ll_tim.h ****                                    @ref LL_TIM_SetCounterMode().*/
 161:Drivers/STM32L0xx_HAL_Driver/Inc/stm32l0xx_ll_tim.h **** 
 162:Drivers/STM32L0xx_HAL_Driver/Inc/stm32l0xx_ll_tim.h ****   uint32_t Autoreload;        /*!< Specifies the auto reload value to be loaded into the active
 163:Drivers/STM32L0xx_HAL_Driver/Inc/stm32l0xx_ll_tim.h ****                                    Auto-Reload Register at the next update event.
 164:Drivers/STM32L0xx_HAL_Driver/Inc/stm32l0xx_ll_tim.h ****                                    This parameter must be a number between Min_Data=0x0000 and Max_
 165:Drivers/STM32L0xx_HAL_Driver/Inc/stm32l0xx_ll_tim.h ****                                    Some timer instances may support 32 bits counters. In that case 
 166:Drivers/STM32L0xx_HAL_Driver/Inc/stm32l0xx_ll_tim.h ****                                    be a number between 0x0000 and 0xFFFFFFFF.
 167:Drivers/STM32L0xx_HAL_Driver/Inc/stm32l0xx_ll_tim.h **** 
 168:Drivers/STM32L0xx_HAL_Driver/Inc/stm32l0xx_ll_tim.h ****                                    This feature can be modified afterwards using unitary function
 169:Drivers/STM32L0xx_HAL_Driver/Inc/stm32l0xx_ll_tim.h ****                                    @ref LL_TIM_SetAutoReload().*/
 170:Drivers/STM32L0xx_HAL_Driver/Inc/stm32l0xx_ll_tim.h **** 
 171:Drivers/STM32L0xx_HAL_Driver/Inc/stm32l0xx_ll_tim.h ****   uint32_t ClockDivision;     /*!< Specifies the clock division.
 172:Drivers/STM32L0xx_HAL_Driver/Inc/stm32l0xx_ll_tim.h ****                                    This parameter can be a value of @ref TIM_LL_EC_CLOCKDIVISION.
 173:Drivers/STM32L0xx_HAL_Driver/Inc/stm32l0xx_ll_tim.h **** 
 174:Drivers/STM32L0xx_HAL_Driver/Inc/stm32l0xx_ll_tim.h ****                                    This feature can be modified afterwards using unitary function
 175:Drivers/STM32L0xx_HAL_Driver/Inc/stm32l0xx_ll_tim.h ****                                    @ref LL_TIM_SetClockDivision().*/
 176:Drivers/STM32L0xx_HAL_Driver/Inc/stm32l0xx_ll_tim.h **** } LL_TIM_InitTypeDef;
 177:Drivers/STM32L0xx_HAL_Driver/Inc/stm32l0xx_ll_tim.h **** 
 178:Drivers/STM32L0xx_HAL_Driver/Inc/stm32l0xx_ll_tim.h **** /**
 179:Drivers/STM32L0xx_HAL_Driver/Inc/stm32l0xx_ll_tim.h ****   * @brief  TIM Output Compare configuration structure definition.
 180:Drivers/STM32L0xx_HAL_Driver/Inc/stm32l0xx_ll_tim.h ****   */
 181:Drivers/STM32L0xx_HAL_Driver/Inc/stm32l0xx_ll_tim.h **** typedef struct
 182:Drivers/STM32L0xx_HAL_Driver/Inc/stm32l0xx_ll_tim.h **** {
 183:Drivers/STM32L0xx_HAL_Driver/Inc/stm32l0xx_ll_tim.h ****   uint32_t OCMode;        /*!< Specifies the output mode.
 184:Drivers/STM32L0xx_HAL_Driver/Inc/stm32l0xx_ll_tim.h ****                                This parameter can be a value of @ref TIM_LL_EC_OCMODE.
 185:Drivers/STM32L0xx_HAL_Driver/Inc/stm32l0xx_ll_tim.h **** 
 186:Drivers/STM32L0xx_HAL_Driver/Inc/stm32l0xx_ll_tim.h ****                                This feature can be modified afterwards using unitary function
ARM GAS  /tmp/ccr6mobF.s 			page 29


 187:Drivers/STM32L0xx_HAL_Driver/Inc/stm32l0xx_ll_tim.h ****                                @ref LL_TIM_OC_SetMode().*/
 188:Drivers/STM32L0xx_HAL_Driver/Inc/stm32l0xx_ll_tim.h **** 
 189:Drivers/STM32L0xx_HAL_Driver/Inc/stm32l0xx_ll_tim.h ****   uint32_t OCState;       /*!< Specifies the TIM Output Compare state.
 190:Drivers/STM32L0xx_HAL_Driver/Inc/stm32l0xx_ll_tim.h ****                                This parameter can be a value of @ref TIM_LL_EC_OCSTATE.
 191:Drivers/STM32L0xx_HAL_Driver/Inc/stm32l0xx_ll_tim.h **** 
 192:Drivers/STM32L0xx_HAL_Driver/Inc/stm32l0xx_ll_tim.h ****                                This feature can be modified afterwards using unitary functions
 193:Drivers/STM32L0xx_HAL_Driver/Inc/stm32l0xx_ll_tim.h ****                                @ref LL_TIM_CC_EnableChannel() or @ref LL_TIM_CC_DisableChannel().*/
 194:Drivers/STM32L0xx_HAL_Driver/Inc/stm32l0xx_ll_tim.h **** 
 195:Drivers/STM32L0xx_HAL_Driver/Inc/stm32l0xx_ll_tim.h ****   uint32_t CompareValue;  /*!< Specifies the Compare value to be loaded into the Capture Compare Re
 196:Drivers/STM32L0xx_HAL_Driver/Inc/stm32l0xx_ll_tim.h ****                                This parameter can be a number between Min_Data=0x0000 and Max_Data=
 197:Drivers/STM32L0xx_HAL_Driver/Inc/stm32l0xx_ll_tim.h **** 
 198:Drivers/STM32L0xx_HAL_Driver/Inc/stm32l0xx_ll_tim.h ****                                This feature can be modified afterwards using unitary function
 199:Drivers/STM32L0xx_HAL_Driver/Inc/stm32l0xx_ll_tim.h ****                                LL_TIM_OC_SetCompareCHx (x=1..6).*/
 200:Drivers/STM32L0xx_HAL_Driver/Inc/stm32l0xx_ll_tim.h **** 
 201:Drivers/STM32L0xx_HAL_Driver/Inc/stm32l0xx_ll_tim.h ****   uint32_t OCPolarity;    /*!< Specifies the output polarity.
 202:Drivers/STM32L0xx_HAL_Driver/Inc/stm32l0xx_ll_tim.h ****                                This parameter can be a value of @ref TIM_LL_EC_OCPOLARITY.
 203:Drivers/STM32L0xx_HAL_Driver/Inc/stm32l0xx_ll_tim.h **** 
 204:Drivers/STM32L0xx_HAL_Driver/Inc/stm32l0xx_ll_tim.h ****                                This feature can be modified afterwards using unitary function
 205:Drivers/STM32L0xx_HAL_Driver/Inc/stm32l0xx_ll_tim.h ****                                @ref LL_TIM_OC_SetPolarity().*/
 206:Drivers/STM32L0xx_HAL_Driver/Inc/stm32l0xx_ll_tim.h **** 
 207:Drivers/STM32L0xx_HAL_Driver/Inc/stm32l0xx_ll_tim.h **** 
 208:Drivers/STM32L0xx_HAL_Driver/Inc/stm32l0xx_ll_tim.h **** } LL_TIM_OC_InitTypeDef;
 209:Drivers/STM32L0xx_HAL_Driver/Inc/stm32l0xx_ll_tim.h **** 
 210:Drivers/STM32L0xx_HAL_Driver/Inc/stm32l0xx_ll_tim.h **** /**
 211:Drivers/STM32L0xx_HAL_Driver/Inc/stm32l0xx_ll_tim.h ****   * @brief  TIM Input Capture configuration structure definition.
 212:Drivers/STM32L0xx_HAL_Driver/Inc/stm32l0xx_ll_tim.h ****   */
 213:Drivers/STM32L0xx_HAL_Driver/Inc/stm32l0xx_ll_tim.h **** 
 214:Drivers/STM32L0xx_HAL_Driver/Inc/stm32l0xx_ll_tim.h **** typedef struct
 215:Drivers/STM32L0xx_HAL_Driver/Inc/stm32l0xx_ll_tim.h **** {
 216:Drivers/STM32L0xx_HAL_Driver/Inc/stm32l0xx_ll_tim.h **** 
 217:Drivers/STM32L0xx_HAL_Driver/Inc/stm32l0xx_ll_tim.h ****   uint32_t ICPolarity;    /*!< Specifies the active edge of the input signal.
 218:Drivers/STM32L0xx_HAL_Driver/Inc/stm32l0xx_ll_tim.h ****                                This parameter can be a value of @ref TIM_LL_EC_IC_POLARITY.
 219:Drivers/STM32L0xx_HAL_Driver/Inc/stm32l0xx_ll_tim.h **** 
 220:Drivers/STM32L0xx_HAL_Driver/Inc/stm32l0xx_ll_tim.h ****                                This feature can be modified afterwards using unitary function
 221:Drivers/STM32L0xx_HAL_Driver/Inc/stm32l0xx_ll_tim.h ****                                @ref LL_TIM_IC_SetPolarity().*/
 222:Drivers/STM32L0xx_HAL_Driver/Inc/stm32l0xx_ll_tim.h **** 
 223:Drivers/STM32L0xx_HAL_Driver/Inc/stm32l0xx_ll_tim.h ****   uint32_t ICActiveInput; /*!< Specifies the input.
 224:Drivers/STM32L0xx_HAL_Driver/Inc/stm32l0xx_ll_tim.h ****                                This parameter can be a value of @ref TIM_LL_EC_ACTIVEINPUT.
 225:Drivers/STM32L0xx_HAL_Driver/Inc/stm32l0xx_ll_tim.h **** 
 226:Drivers/STM32L0xx_HAL_Driver/Inc/stm32l0xx_ll_tim.h ****                                This feature can be modified afterwards using unitary function
 227:Drivers/STM32L0xx_HAL_Driver/Inc/stm32l0xx_ll_tim.h ****                                @ref LL_TIM_IC_SetActiveInput().*/
 228:Drivers/STM32L0xx_HAL_Driver/Inc/stm32l0xx_ll_tim.h **** 
 229:Drivers/STM32L0xx_HAL_Driver/Inc/stm32l0xx_ll_tim.h ****   uint32_t ICPrescaler;   /*!< Specifies the Input Capture Prescaler.
 230:Drivers/STM32L0xx_HAL_Driver/Inc/stm32l0xx_ll_tim.h ****                                This parameter can be a value of @ref TIM_LL_EC_ICPSC.
 231:Drivers/STM32L0xx_HAL_Driver/Inc/stm32l0xx_ll_tim.h **** 
 232:Drivers/STM32L0xx_HAL_Driver/Inc/stm32l0xx_ll_tim.h ****                                This feature can be modified afterwards using unitary function
 233:Drivers/STM32L0xx_HAL_Driver/Inc/stm32l0xx_ll_tim.h ****                                @ref LL_TIM_IC_SetPrescaler().*/
 234:Drivers/STM32L0xx_HAL_Driver/Inc/stm32l0xx_ll_tim.h **** 
 235:Drivers/STM32L0xx_HAL_Driver/Inc/stm32l0xx_ll_tim.h ****   uint32_t ICFilter;      /*!< Specifies the input capture filter.
 236:Drivers/STM32L0xx_HAL_Driver/Inc/stm32l0xx_ll_tim.h ****                                This parameter can be a value of @ref TIM_LL_EC_IC_FILTER.
 237:Drivers/STM32L0xx_HAL_Driver/Inc/stm32l0xx_ll_tim.h **** 
 238:Drivers/STM32L0xx_HAL_Driver/Inc/stm32l0xx_ll_tim.h ****                                This feature can be modified afterwards using unitary function
 239:Drivers/STM32L0xx_HAL_Driver/Inc/stm32l0xx_ll_tim.h ****                                @ref LL_TIM_IC_SetFilter().*/
 240:Drivers/STM32L0xx_HAL_Driver/Inc/stm32l0xx_ll_tim.h **** } LL_TIM_IC_InitTypeDef;
 241:Drivers/STM32L0xx_HAL_Driver/Inc/stm32l0xx_ll_tim.h **** 
 242:Drivers/STM32L0xx_HAL_Driver/Inc/stm32l0xx_ll_tim.h **** 
 243:Drivers/STM32L0xx_HAL_Driver/Inc/stm32l0xx_ll_tim.h **** /**
ARM GAS  /tmp/ccr6mobF.s 			page 30


 244:Drivers/STM32L0xx_HAL_Driver/Inc/stm32l0xx_ll_tim.h ****   * @brief  TIM Encoder interface configuration structure definition.
 245:Drivers/STM32L0xx_HAL_Driver/Inc/stm32l0xx_ll_tim.h ****   */
 246:Drivers/STM32L0xx_HAL_Driver/Inc/stm32l0xx_ll_tim.h **** typedef struct
 247:Drivers/STM32L0xx_HAL_Driver/Inc/stm32l0xx_ll_tim.h **** {
 248:Drivers/STM32L0xx_HAL_Driver/Inc/stm32l0xx_ll_tim.h ****   uint32_t EncoderMode;     /*!< Specifies the encoder resolution (x2 or x4).
 249:Drivers/STM32L0xx_HAL_Driver/Inc/stm32l0xx_ll_tim.h ****                                  This parameter can be a value of @ref TIM_LL_EC_ENCODERMODE.
 250:Drivers/STM32L0xx_HAL_Driver/Inc/stm32l0xx_ll_tim.h **** 
 251:Drivers/STM32L0xx_HAL_Driver/Inc/stm32l0xx_ll_tim.h ****                                  This feature can be modified afterwards using unitary function
 252:Drivers/STM32L0xx_HAL_Driver/Inc/stm32l0xx_ll_tim.h ****                                  @ref LL_TIM_SetEncoderMode().*/
 253:Drivers/STM32L0xx_HAL_Driver/Inc/stm32l0xx_ll_tim.h **** 
 254:Drivers/STM32L0xx_HAL_Driver/Inc/stm32l0xx_ll_tim.h ****   uint32_t IC1Polarity;     /*!< Specifies the active edge of TI1 input.
 255:Drivers/STM32L0xx_HAL_Driver/Inc/stm32l0xx_ll_tim.h ****                                  This parameter can be a value of @ref TIM_LL_EC_IC_POLARITY.
 256:Drivers/STM32L0xx_HAL_Driver/Inc/stm32l0xx_ll_tim.h **** 
 257:Drivers/STM32L0xx_HAL_Driver/Inc/stm32l0xx_ll_tim.h ****                                  This feature can be modified afterwards using unitary function
 258:Drivers/STM32L0xx_HAL_Driver/Inc/stm32l0xx_ll_tim.h ****                                  @ref LL_TIM_IC_SetPolarity().*/
 259:Drivers/STM32L0xx_HAL_Driver/Inc/stm32l0xx_ll_tim.h **** 
 260:Drivers/STM32L0xx_HAL_Driver/Inc/stm32l0xx_ll_tim.h ****   uint32_t IC1ActiveInput;  /*!< Specifies the TI1 input source
 261:Drivers/STM32L0xx_HAL_Driver/Inc/stm32l0xx_ll_tim.h ****                                  This parameter can be a value of @ref TIM_LL_EC_ACTIVEINPUT.
 262:Drivers/STM32L0xx_HAL_Driver/Inc/stm32l0xx_ll_tim.h **** 
 263:Drivers/STM32L0xx_HAL_Driver/Inc/stm32l0xx_ll_tim.h ****                                  This feature can be modified afterwards using unitary function
 264:Drivers/STM32L0xx_HAL_Driver/Inc/stm32l0xx_ll_tim.h ****                                  @ref LL_TIM_IC_SetActiveInput().*/
 265:Drivers/STM32L0xx_HAL_Driver/Inc/stm32l0xx_ll_tim.h **** 
 266:Drivers/STM32L0xx_HAL_Driver/Inc/stm32l0xx_ll_tim.h ****   uint32_t IC1Prescaler;    /*!< Specifies the TI1 input prescaler value.
 267:Drivers/STM32L0xx_HAL_Driver/Inc/stm32l0xx_ll_tim.h ****                                  This parameter can be a value of @ref TIM_LL_EC_ICPSC.
 268:Drivers/STM32L0xx_HAL_Driver/Inc/stm32l0xx_ll_tim.h **** 
 269:Drivers/STM32L0xx_HAL_Driver/Inc/stm32l0xx_ll_tim.h ****                                  This feature can be modified afterwards using unitary function
 270:Drivers/STM32L0xx_HAL_Driver/Inc/stm32l0xx_ll_tim.h ****                                  @ref LL_TIM_IC_SetPrescaler().*/
 271:Drivers/STM32L0xx_HAL_Driver/Inc/stm32l0xx_ll_tim.h **** 
 272:Drivers/STM32L0xx_HAL_Driver/Inc/stm32l0xx_ll_tim.h ****   uint32_t IC1Filter;       /*!< Specifies the TI1 input filter.
 273:Drivers/STM32L0xx_HAL_Driver/Inc/stm32l0xx_ll_tim.h ****                                  This parameter can be a value of @ref TIM_LL_EC_IC_FILTER.
 274:Drivers/STM32L0xx_HAL_Driver/Inc/stm32l0xx_ll_tim.h **** 
 275:Drivers/STM32L0xx_HAL_Driver/Inc/stm32l0xx_ll_tim.h ****                                  This feature can be modified afterwards using unitary function
 276:Drivers/STM32L0xx_HAL_Driver/Inc/stm32l0xx_ll_tim.h ****                                  @ref LL_TIM_IC_SetFilter().*/
 277:Drivers/STM32L0xx_HAL_Driver/Inc/stm32l0xx_ll_tim.h **** 
 278:Drivers/STM32L0xx_HAL_Driver/Inc/stm32l0xx_ll_tim.h ****   uint32_t IC2Polarity;      /*!< Specifies the active edge of TI2 input.
 279:Drivers/STM32L0xx_HAL_Driver/Inc/stm32l0xx_ll_tim.h ****                                  This parameter can be a value of @ref TIM_LL_EC_IC_POLARITY.
 280:Drivers/STM32L0xx_HAL_Driver/Inc/stm32l0xx_ll_tim.h **** 
 281:Drivers/STM32L0xx_HAL_Driver/Inc/stm32l0xx_ll_tim.h ****                                  This feature can be modified afterwards using unitary function
 282:Drivers/STM32L0xx_HAL_Driver/Inc/stm32l0xx_ll_tim.h ****                                  @ref LL_TIM_IC_SetPolarity().*/
 283:Drivers/STM32L0xx_HAL_Driver/Inc/stm32l0xx_ll_tim.h **** 
 284:Drivers/STM32L0xx_HAL_Driver/Inc/stm32l0xx_ll_tim.h ****   uint32_t IC2ActiveInput;  /*!< Specifies the TI2 input source
 285:Drivers/STM32L0xx_HAL_Driver/Inc/stm32l0xx_ll_tim.h ****                                  This parameter can be a value of @ref TIM_LL_EC_ACTIVEINPUT.
 286:Drivers/STM32L0xx_HAL_Driver/Inc/stm32l0xx_ll_tim.h **** 
 287:Drivers/STM32L0xx_HAL_Driver/Inc/stm32l0xx_ll_tim.h ****                                  This feature can be modified afterwards using unitary function
 288:Drivers/STM32L0xx_HAL_Driver/Inc/stm32l0xx_ll_tim.h ****                                  @ref LL_TIM_IC_SetActiveInput().*/
 289:Drivers/STM32L0xx_HAL_Driver/Inc/stm32l0xx_ll_tim.h **** 
 290:Drivers/STM32L0xx_HAL_Driver/Inc/stm32l0xx_ll_tim.h ****   uint32_t IC2Prescaler;    /*!< Specifies the TI2 input prescaler value.
 291:Drivers/STM32L0xx_HAL_Driver/Inc/stm32l0xx_ll_tim.h ****                                  This parameter can be a value of @ref TIM_LL_EC_ICPSC.
 292:Drivers/STM32L0xx_HAL_Driver/Inc/stm32l0xx_ll_tim.h **** 
 293:Drivers/STM32L0xx_HAL_Driver/Inc/stm32l0xx_ll_tim.h ****                                  This feature can be modified afterwards using unitary function
 294:Drivers/STM32L0xx_HAL_Driver/Inc/stm32l0xx_ll_tim.h ****                                  @ref LL_TIM_IC_SetPrescaler().*/
 295:Drivers/STM32L0xx_HAL_Driver/Inc/stm32l0xx_ll_tim.h **** 
 296:Drivers/STM32L0xx_HAL_Driver/Inc/stm32l0xx_ll_tim.h ****   uint32_t IC2Filter;       /*!< Specifies the TI2 input filter.
 297:Drivers/STM32L0xx_HAL_Driver/Inc/stm32l0xx_ll_tim.h ****                                  This parameter can be a value of @ref TIM_LL_EC_IC_FILTER.
 298:Drivers/STM32L0xx_HAL_Driver/Inc/stm32l0xx_ll_tim.h **** 
 299:Drivers/STM32L0xx_HAL_Driver/Inc/stm32l0xx_ll_tim.h ****                                  This feature can be modified afterwards using unitary function
 300:Drivers/STM32L0xx_HAL_Driver/Inc/stm32l0xx_ll_tim.h ****                                  @ref LL_TIM_IC_SetFilter().*/
ARM GAS  /tmp/ccr6mobF.s 			page 31


 301:Drivers/STM32L0xx_HAL_Driver/Inc/stm32l0xx_ll_tim.h **** 
 302:Drivers/STM32L0xx_HAL_Driver/Inc/stm32l0xx_ll_tim.h **** } LL_TIM_ENCODER_InitTypeDef;
 303:Drivers/STM32L0xx_HAL_Driver/Inc/stm32l0xx_ll_tim.h **** 
 304:Drivers/STM32L0xx_HAL_Driver/Inc/stm32l0xx_ll_tim.h **** 
 305:Drivers/STM32L0xx_HAL_Driver/Inc/stm32l0xx_ll_tim.h **** /**
 306:Drivers/STM32L0xx_HAL_Driver/Inc/stm32l0xx_ll_tim.h ****   * @}
 307:Drivers/STM32L0xx_HAL_Driver/Inc/stm32l0xx_ll_tim.h ****   */
 308:Drivers/STM32L0xx_HAL_Driver/Inc/stm32l0xx_ll_tim.h **** #endif /* USE_FULL_LL_DRIVER */
 309:Drivers/STM32L0xx_HAL_Driver/Inc/stm32l0xx_ll_tim.h **** 
 310:Drivers/STM32L0xx_HAL_Driver/Inc/stm32l0xx_ll_tim.h **** /* Exported constants --------------------------------------------------------*/
 311:Drivers/STM32L0xx_HAL_Driver/Inc/stm32l0xx_ll_tim.h **** /** @defgroup TIM_LL_Exported_Constants TIM Exported Constants
 312:Drivers/STM32L0xx_HAL_Driver/Inc/stm32l0xx_ll_tim.h ****   * @{
 313:Drivers/STM32L0xx_HAL_Driver/Inc/stm32l0xx_ll_tim.h ****   */
 314:Drivers/STM32L0xx_HAL_Driver/Inc/stm32l0xx_ll_tim.h **** 
 315:Drivers/STM32L0xx_HAL_Driver/Inc/stm32l0xx_ll_tim.h **** /** @defgroup TIM_LL_EC_GET_FLAG Get Flags Defines
 316:Drivers/STM32L0xx_HAL_Driver/Inc/stm32l0xx_ll_tim.h ****   * @brief    Flags defines which can be used with LL_TIM_ReadReg function.
 317:Drivers/STM32L0xx_HAL_Driver/Inc/stm32l0xx_ll_tim.h ****   * @{
 318:Drivers/STM32L0xx_HAL_Driver/Inc/stm32l0xx_ll_tim.h ****   */
 319:Drivers/STM32L0xx_HAL_Driver/Inc/stm32l0xx_ll_tim.h **** #define LL_TIM_SR_UIF                          TIM_SR_UIF           /*!< Update interrupt flag */
 320:Drivers/STM32L0xx_HAL_Driver/Inc/stm32l0xx_ll_tim.h **** #define LL_TIM_SR_CC1IF                        TIM_SR_CC1IF         /*!< Capture/compare 1 interrup
 321:Drivers/STM32L0xx_HAL_Driver/Inc/stm32l0xx_ll_tim.h **** #define LL_TIM_SR_CC2IF                        TIM_SR_CC2IF         /*!< Capture/compare 2 interrup
 322:Drivers/STM32L0xx_HAL_Driver/Inc/stm32l0xx_ll_tim.h **** #define LL_TIM_SR_CC3IF                        TIM_SR_CC3IF         /*!< Capture/compare 3 interrup
 323:Drivers/STM32L0xx_HAL_Driver/Inc/stm32l0xx_ll_tim.h **** #define LL_TIM_SR_CC4IF                        TIM_SR_CC4IF         /*!< Capture/compare 4 interrup
 324:Drivers/STM32L0xx_HAL_Driver/Inc/stm32l0xx_ll_tim.h **** #define LL_TIM_SR_TIF                          TIM_SR_TIF           /*!< Trigger interrupt flag */
 325:Drivers/STM32L0xx_HAL_Driver/Inc/stm32l0xx_ll_tim.h **** #define LL_TIM_SR_CC1OF                        TIM_SR_CC1OF         /*!< Capture/Compare 1 overcapt
 326:Drivers/STM32L0xx_HAL_Driver/Inc/stm32l0xx_ll_tim.h **** #define LL_TIM_SR_CC2OF                        TIM_SR_CC2OF         /*!< Capture/Compare 2 overcapt
 327:Drivers/STM32L0xx_HAL_Driver/Inc/stm32l0xx_ll_tim.h **** #define LL_TIM_SR_CC3OF                        TIM_SR_CC3OF         /*!< Capture/Compare 3 overcapt
 328:Drivers/STM32L0xx_HAL_Driver/Inc/stm32l0xx_ll_tim.h **** #define LL_TIM_SR_CC4OF                        TIM_SR_CC4OF         /*!< Capture/Compare 4 overcapt
 329:Drivers/STM32L0xx_HAL_Driver/Inc/stm32l0xx_ll_tim.h **** /**
 330:Drivers/STM32L0xx_HAL_Driver/Inc/stm32l0xx_ll_tim.h ****   * @}
 331:Drivers/STM32L0xx_HAL_Driver/Inc/stm32l0xx_ll_tim.h ****   */
 332:Drivers/STM32L0xx_HAL_Driver/Inc/stm32l0xx_ll_tim.h **** 
 333:Drivers/STM32L0xx_HAL_Driver/Inc/stm32l0xx_ll_tim.h **** /** @defgroup TIM_LL_EC_IT IT Defines
 334:Drivers/STM32L0xx_HAL_Driver/Inc/stm32l0xx_ll_tim.h ****   * @brief    IT defines which can be used with LL_TIM_ReadReg and  LL_TIM_WriteReg functions.
 335:Drivers/STM32L0xx_HAL_Driver/Inc/stm32l0xx_ll_tim.h ****   * @{
 336:Drivers/STM32L0xx_HAL_Driver/Inc/stm32l0xx_ll_tim.h ****   */
 337:Drivers/STM32L0xx_HAL_Driver/Inc/stm32l0xx_ll_tim.h **** #define LL_TIM_DIER_UIE                        TIM_DIER_UIE         /*!< Update interrupt enable */
 338:Drivers/STM32L0xx_HAL_Driver/Inc/stm32l0xx_ll_tim.h **** #define LL_TIM_DIER_CC1IE                      TIM_DIER_CC1IE       /*!< Capture/compare 1 interrup
 339:Drivers/STM32L0xx_HAL_Driver/Inc/stm32l0xx_ll_tim.h **** #define LL_TIM_DIER_CC2IE                      TIM_DIER_CC2IE       /*!< Capture/compare 2 interrup
 340:Drivers/STM32L0xx_HAL_Driver/Inc/stm32l0xx_ll_tim.h **** #define LL_TIM_DIER_CC3IE                      TIM_DIER_CC3IE       /*!< Capture/compare 3 interrup
 341:Drivers/STM32L0xx_HAL_Driver/Inc/stm32l0xx_ll_tim.h **** #define LL_TIM_DIER_CC4IE                      TIM_DIER_CC4IE       /*!< Capture/compare 4 interrup
 342:Drivers/STM32L0xx_HAL_Driver/Inc/stm32l0xx_ll_tim.h **** #define LL_TIM_DIER_TIE                        TIM_DIER_TIE         /*!< Trigger interrupt enable *
 343:Drivers/STM32L0xx_HAL_Driver/Inc/stm32l0xx_ll_tim.h **** /**
 344:Drivers/STM32L0xx_HAL_Driver/Inc/stm32l0xx_ll_tim.h ****   * @}
 345:Drivers/STM32L0xx_HAL_Driver/Inc/stm32l0xx_ll_tim.h ****   */
 346:Drivers/STM32L0xx_HAL_Driver/Inc/stm32l0xx_ll_tim.h **** 
 347:Drivers/STM32L0xx_HAL_Driver/Inc/stm32l0xx_ll_tim.h **** /** @defgroup TIM_LL_EC_UPDATESOURCE Update Source
 348:Drivers/STM32L0xx_HAL_Driver/Inc/stm32l0xx_ll_tim.h ****   * @{
 349:Drivers/STM32L0xx_HAL_Driver/Inc/stm32l0xx_ll_tim.h ****   */
 350:Drivers/STM32L0xx_HAL_Driver/Inc/stm32l0xx_ll_tim.h **** #define LL_TIM_UPDATESOURCE_REGULAR            0x00000000U          /*!< Counter overflow/underflow
 351:Drivers/STM32L0xx_HAL_Driver/Inc/stm32l0xx_ll_tim.h **** #define LL_TIM_UPDATESOURCE_COUNTER            TIM_CR1_URS          /*!< Only counter overflow/unde
 352:Drivers/STM32L0xx_HAL_Driver/Inc/stm32l0xx_ll_tim.h **** /**
 353:Drivers/STM32L0xx_HAL_Driver/Inc/stm32l0xx_ll_tim.h ****   * @}
 354:Drivers/STM32L0xx_HAL_Driver/Inc/stm32l0xx_ll_tim.h ****   */
 355:Drivers/STM32L0xx_HAL_Driver/Inc/stm32l0xx_ll_tim.h **** 
 356:Drivers/STM32L0xx_HAL_Driver/Inc/stm32l0xx_ll_tim.h **** /** @defgroup TIM_LL_EC_ONEPULSEMODE One Pulse Mode
 357:Drivers/STM32L0xx_HAL_Driver/Inc/stm32l0xx_ll_tim.h ****   * @{
ARM GAS  /tmp/ccr6mobF.s 			page 32


 358:Drivers/STM32L0xx_HAL_Driver/Inc/stm32l0xx_ll_tim.h ****   */
 359:Drivers/STM32L0xx_HAL_Driver/Inc/stm32l0xx_ll_tim.h **** #define LL_TIM_ONEPULSEMODE_SINGLE             TIM_CR1_OPM          /*!< Counter stops counting at 
 360:Drivers/STM32L0xx_HAL_Driver/Inc/stm32l0xx_ll_tim.h **** #define LL_TIM_ONEPULSEMODE_REPETITIVE         0x00000000U          /*!< Counter is not stopped at 
 361:Drivers/STM32L0xx_HAL_Driver/Inc/stm32l0xx_ll_tim.h **** /**
 362:Drivers/STM32L0xx_HAL_Driver/Inc/stm32l0xx_ll_tim.h ****   * @}
 363:Drivers/STM32L0xx_HAL_Driver/Inc/stm32l0xx_ll_tim.h ****   */
 364:Drivers/STM32L0xx_HAL_Driver/Inc/stm32l0xx_ll_tim.h **** 
 365:Drivers/STM32L0xx_HAL_Driver/Inc/stm32l0xx_ll_tim.h **** /** @defgroup TIM_LL_EC_COUNTERMODE Counter Mode
 366:Drivers/STM32L0xx_HAL_Driver/Inc/stm32l0xx_ll_tim.h ****   * @{
 367:Drivers/STM32L0xx_HAL_Driver/Inc/stm32l0xx_ll_tim.h ****   */
 368:Drivers/STM32L0xx_HAL_Driver/Inc/stm32l0xx_ll_tim.h **** #define LL_TIM_COUNTERMODE_UP                  0x00000000U          /*!<Counter used as upcounter *
 369:Drivers/STM32L0xx_HAL_Driver/Inc/stm32l0xx_ll_tim.h **** #define LL_TIM_COUNTERMODE_DOWN                TIM_CR1_DIR          /*!< Counter used as downcounte
 370:Drivers/STM32L0xx_HAL_Driver/Inc/stm32l0xx_ll_tim.h **** #define LL_TIM_COUNTERMODE_CENTER_DOWN         TIM_CR1_CMS_0        /*!< The counter counts up and 
 371:Drivers/STM32L0xx_HAL_Driver/Inc/stm32l0xx_ll_tim.h **** #define LL_TIM_COUNTERMODE_CENTER_UP           TIM_CR1_CMS_1        /*!<The counter counts up and d
 372:Drivers/STM32L0xx_HAL_Driver/Inc/stm32l0xx_ll_tim.h **** #define LL_TIM_COUNTERMODE_CENTER_UP_DOWN      TIM_CR1_CMS          /*!< The counter counts up and 
 373:Drivers/STM32L0xx_HAL_Driver/Inc/stm32l0xx_ll_tim.h **** /**
 374:Drivers/STM32L0xx_HAL_Driver/Inc/stm32l0xx_ll_tim.h ****   * @}
 375:Drivers/STM32L0xx_HAL_Driver/Inc/stm32l0xx_ll_tim.h ****   */
 376:Drivers/STM32L0xx_HAL_Driver/Inc/stm32l0xx_ll_tim.h **** 
 377:Drivers/STM32L0xx_HAL_Driver/Inc/stm32l0xx_ll_tim.h **** /** @defgroup TIM_LL_EC_CLOCKDIVISION Clock Division
 378:Drivers/STM32L0xx_HAL_Driver/Inc/stm32l0xx_ll_tim.h ****   * @{
 379:Drivers/STM32L0xx_HAL_Driver/Inc/stm32l0xx_ll_tim.h ****   */
 380:Drivers/STM32L0xx_HAL_Driver/Inc/stm32l0xx_ll_tim.h **** #define LL_TIM_CLOCKDIVISION_DIV1              0x00000000U          /*!< tDTS=tCK_INT */
 381:Drivers/STM32L0xx_HAL_Driver/Inc/stm32l0xx_ll_tim.h **** #define LL_TIM_CLOCKDIVISION_DIV2              TIM_CR1_CKD_0        /*!< tDTS=2*tCK_INT */
 382:Drivers/STM32L0xx_HAL_Driver/Inc/stm32l0xx_ll_tim.h **** #define LL_TIM_CLOCKDIVISION_DIV4              TIM_CR1_CKD_1        /*!< tDTS=4*tCK_INT */
 383:Drivers/STM32L0xx_HAL_Driver/Inc/stm32l0xx_ll_tim.h **** /**
 384:Drivers/STM32L0xx_HAL_Driver/Inc/stm32l0xx_ll_tim.h ****   * @}
 385:Drivers/STM32L0xx_HAL_Driver/Inc/stm32l0xx_ll_tim.h ****   */
 386:Drivers/STM32L0xx_HAL_Driver/Inc/stm32l0xx_ll_tim.h **** 
 387:Drivers/STM32L0xx_HAL_Driver/Inc/stm32l0xx_ll_tim.h **** /** @defgroup TIM_LL_EC_COUNTERDIRECTION Counter Direction
 388:Drivers/STM32L0xx_HAL_Driver/Inc/stm32l0xx_ll_tim.h ****   * @{
 389:Drivers/STM32L0xx_HAL_Driver/Inc/stm32l0xx_ll_tim.h ****   */
 390:Drivers/STM32L0xx_HAL_Driver/Inc/stm32l0xx_ll_tim.h **** #define LL_TIM_COUNTERDIRECTION_UP             0x00000000U          /*!< Timer counter counts up */
 391:Drivers/STM32L0xx_HAL_Driver/Inc/stm32l0xx_ll_tim.h **** #define LL_TIM_COUNTERDIRECTION_DOWN           TIM_CR1_DIR          /*!< Timer counter counts down 
 392:Drivers/STM32L0xx_HAL_Driver/Inc/stm32l0xx_ll_tim.h **** /**
 393:Drivers/STM32L0xx_HAL_Driver/Inc/stm32l0xx_ll_tim.h ****   * @}
 394:Drivers/STM32L0xx_HAL_Driver/Inc/stm32l0xx_ll_tim.h ****   */
 395:Drivers/STM32L0xx_HAL_Driver/Inc/stm32l0xx_ll_tim.h **** 
 396:Drivers/STM32L0xx_HAL_Driver/Inc/stm32l0xx_ll_tim.h **** 
 397:Drivers/STM32L0xx_HAL_Driver/Inc/stm32l0xx_ll_tim.h **** /** @defgroup TIM_LL_EC_CCDMAREQUEST Capture Compare DMA Request
 398:Drivers/STM32L0xx_HAL_Driver/Inc/stm32l0xx_ll_tim.h ****   * @{
 399:Drivers/STM32L0xx_HAL_Driver/Inc/stm32l0xx_ll_tim.h ****   */
 400:Drivers/STM32L0xx_HAL_Driver/Inc/stm32l0xx_ll_tim.h **** #define LL_TIM_CCDMAREQUEST_CC                 0x00000000U          /*!< CCx DMA request sent when 
 401:Drivers/STM32L0xx_HAL_Driver/Inc/stm32l0xx_ll_tim.h **** #define LL_TIM_CCDMAREQUEST_UPDATE             TIM_CR2_CCDS         /*!< CCx DMA requests sent when
 402:Drivers/STM32L0xx_HAL_Driver/Inc/stm32l0xx_ll_tim.h **** /**
 403:Drivers/STM32L0xx_HAL_Driver/Inc/stm32l0xx_ll_tim.h ****   * @}
 404:Drivers/STM32L0xx_HAL_Driver/Inc/stm32l0xx_ll_tim.h ****   */
 405:Drivers/STM32L0xx_HAL_Driver/Inc/stm32l0xx_ll_tim.h **** 
 406:Drivers/STM32L0xx_HAL_Driver/Inc/stm32l0xx_ll_tim.h **** 
 407:Drivers/STM32L0xx_HAL_Driver/Inc/stm32l0xx_ll_tim.h **** /** @defgroup TIM_LL_EC_CHANNEL Channel
 408:Drivers/STM32L0xx_HAL_Driver/Inc/stm32l0xx_ll_tim.h ****   * @{
 409:Drivers/STM32L0xx_HAL_Driver/Inc/stm32l0xx_ll_tim.h ****   */
 410:Drivers/STM32L0xx_HAL_Driver/Inc/stm32l0xx_ll_tim.h **** #define LL_TIM_CHANNEL_CH1                     TIM_CCER_CC1E     /*!< Timer input/output channel 1 
 411:Drivers/STM32L0xx_HAL_Driver/Inc/stm32l0xx_ll_tim.h **** #define LL_TIM_CHANNEL_CH2                     TIM_CCER_CC2E     /*!< Timer input/output channel 2 
 412:Drivers/STM32L0xx_HAL_Driver/Inc/stm32l0xx_ll_tim.h **** #define LL_TIM_CHANNEL_CH3                     TIM_CCER_CC3E     /*!< Timer input/output channel 3 
 413:Drivers/STM32L0xx_HAL_Driver/Inc/stm32l0xx_ll_tim.h **** #define LL_TIM_CHANNEL_CH4                     TIM_CCER_CC4E     /*!< Timer input/output channel 4 
 414:Drivers/STM32L0xx_HAL_Driver/Inc/stm32l0xx_ll_tim.h **** /**
ARM GAS  /tmp/ccr6mobF.s 			page 33


 415:Drivers/STM32L0xx_HAL_Driver/Inc/stm32l0xx_ll_tim.h ****   * @}
 416:Drivers/STM32L0xx_HAL_Driver/Inc/stm32l0xx_ll_tim.h ****   */
 417:Drivers/STM32L0xx_HAL_Driver/Inc/stm32l0xx_ll_tim.h **** 
 418:Drivers/STM32L0xx_HAL_Driver/Inc/stm32l0xx_ll_tim.h **** #if defined(USE_FULL_LL_DRIVER)
 419:Drivers/STM32L0xx_HAL_Driver/Inc/stm32l0xx_ll_tim.h **** /** @defgroup TIM_LL_EC_OCSTATE Output Configuration State
 420:Drivers/STM32L0xx_HAL_Driver/Inc/stm32l0xx_ll_tim.h ****   * @{
 421:Drivers/STM32L0xx_HAL_Driver/Inc/stm32l0xx_ll_tim.h ****   */
 422:Drivers/STM32L0xx_HAL_Driver/Inc/stm32l0xx_ll_tim.h **** #define LL_TIM_OCSTATE_DISABLE                 0x00000000U             /*!< OCx is not active */
 423:Drivers/STM32L0xx_HAL_Driver/Inc/stm32l0xx_ll_tim.h **** #define LL_TIM_OCSTATE_ENABLE                  TIM_CCER_CC1E           /*!< OCx signal is output on
 424:Drivers/STM32L0xx_HAL_Driver/Inc/stm32l0xx_ll_tim.h **** /**
 425:Drivers/STM32L0xx_HAL_Driver/Inc/stm32l0xx_ll_tim.h ****   * @}
 426:Drivers/STM32L0xx_HAL_Driver/Inc/stm32l0xx_ll_tim.h ****   */
 427:Drivers/STM32L0xx_HAL_Driver/Inc/stm32l0xx_ll_tim.h **** #endif /* USE_FULL_LL_DRIVER */
 428:Drivers/STM32L0xx_HAL_Driver/Inc/stm32l0xx_ll_tim.h **** 
 429:Drivers/STM32L0xx_HAL_Driver/Inc/stm32l0xx_ll_tim.h **** /** @defgroup TIM_LL_EC_OCMODE Output Configuration Mode
 430:Drivers/STM32L0xx_HAL_Driver/Inc/stm32l0xx_ll_tim.h ****   * @{
 431:Drivers/STM32L0xx_HAL_Driver/Inc/stm32l0xx_ll_tim.h ****   */
 432:Drivers/STM32L0xx_HAL_Driver/Inc/stm32l0xx_ll_tim.h **** #define LL_TIM_OCMODE_FROZEN                   0x00000000U                                         
 433:Drivers/STM32L0xx_HAL_Driver/Inc/stm32l0xx_ll_tim.h **** #define LL_TIM_OCMODE_ACTIVE                   TIM_CCMR1_OC1M_0                                    
 434:Drivers/STM32L0xx_HAL_Driver/Inc/stm32l0xx_ll_tim.h **** #define LL_TIM_OCMODE_INACTIVE                 TIM_CCMR1_OC1M_1                                    
 435:Drivers/STM32L0xx_HAL_Driver/Inc/stm32l0xx_ll_tim.h **** #define LL_TIM_OCMODE_TOGGLE                   (TIM_CCMR1_OC1M_1 | TIM_CCMR1_OC1M_0)               
 436:Drivers/STM32L0xx_HAL_Driver/Inc/stm32l0xx_ll_tim.h **** #define LL_TIM_OCMODE_FORCED_INACTIVE          TIM_CCMR1_OC1M_2                                    
 437:Drivers/STM32L0xx_HAL_Driver/Inc/stm32l0xx_ll_tim.h **** #define LL_TIM_OCMODE_FORCED_ACTIVE            (TIM_CCMR1_OC1M_2 | TIM_CCMR1_OC1M_0)               
 438:Drivers/STM32L0xx_HAL_Driver/Inc/stm32l0xx_ll_tim.h **** #define LL_TIM_OCMODE_PWM1                     (TIM_CCMR1_OC1M_2 | TIM_CCMR1_OC1M_1)               
 439:Drivers/STM32L0xx_HAL_Driver/Inc/stm32l0xx_ll_tim.h **** #define LL_TIM_OCMODE_PWM2                     (TIM_CCMR1_OC1M_2 | TIM_CCMR1_OC1M_1 | TIM_CCMR1_OC1
 440:Drivers/STM32L0xx_HAL_Driver/Inc/stm32l0xx_ll_tim.h **** /**
 441:Drivers/STM32L0xx_HAL_Driver/Inc/stm32l0xx_ll_tim.h ****   * @}
 442:Drivers/STM32L0xx_HAL_Driver/Inc/stm32l0xx_ll_tim.h ****   */
 443:Drivers/STM32L0xx_HAL_Driver/Inc/stm32l0xx_ll_tim.h **** 
 444:Drivers/STM32L0xx_HAL_Driver/Inc/stm32l0xx_ll_tim.h **** /** @defgroup TIM_LL_EC_OCPOLARITY Output Configuration Polarity
 445:Drivers/STM32L0xx_HAL_Driver/Inc/stm32l0xx_ll_tim.h ****   * @{
 446:Drivers/STM32L0xx_HAL_Driver/Inc/stm32l0xx_ll_tim.h ****   */
 447:Drivers/STM32L0xx_HAL_Driver/Inc/stm32l0xx_ll_tim.h **** #define LL_TIM_OCPOLARITY_HIGH                 0x00000000U                 /*!< OCxactive high*/
 448:Drivers/STM32L0xx_HAL_Driver/Inc/stm32l0xx_ll_tim.h **** #define LL_TIM_OCPOLARITY_LOW                  TIM_CCER_CC1P               /*!< OCxactive low*/
 449:Drivers/STM32L0xx_HAL_Driver/Inc/stm32l0xx_ll_tim.h **** /**
 450:Drivers/STM32L0xx_HAL_Driver/Inc/stm32l0xx_ll_tim.h ****   * @}
 451:Drivers/STM32L0xx_HAL_Driver/Inc/stm32l0xx_ll_tim.h ****   */
 452:Drivers/STM32L0xx_HAL_Driver/Inc/stm32l0xx_ll_tim.h **** 
 453:Drivers/STM32L0xx_HAL_Driver/Inc/stm32l0xx_ll_tim.h **** 
 454:Drivers/STM32L0xx_HAL_Driver/Inc/stm32l0xx_ll_tim.h **** 
 455:Drivers/STM32L0xx_HAL_Driver/Inc/stm32l0xx_ll_tim.h **** /** @defgroup TIM_LL_EC_ACTIVEINPUT Active Input Selection
 456:Drivers/STM32L0xx_HAL_Driver/Inc/stm32l0xx_ll_tim.h ****   * @{
 457:Drivers/STM32L0xx_HAL_Driver/Inc/stm32l0xx_ll_tim.h ****   */
 458:Drivers/STM32L0xx_HAL_Driver/Inc/stm32l0xx_ll_tim.h **** #define LL_TIM_ACTIVEINPUT_DIRECTTI            (TIM_CCMR1_CC1S_0 << 16U) /*!< ICx is mapped on TIx 
 459:Drivers/STM32L0xx_HAL_Driver/Inc/stm32l0xx_ll_tim.h **** #define LL_TIM_ACTIVEINPUT_INDIRECTTI          (TIM_CCMR1_CC1S_1 << 16U) /*!< ICx is mapped on TIy 
 460:Drivers/STM32L0xx_HAL_Driver/Inc/stm32l0xx_ll_tim.h **** #define LL_TIM_ACTIVEINPUT_TRC                 (TIM_CCMR1_CC1S << 16U)   /*!< ICx is mapped on TRC 
 461:Drivers/STM32L0xx_HAL_Driver/Inc/stm32l0xx_ll_tim.h **** /**
 462:Drivers/STM32L0xx_HAL_Driver/Inc/stm32l0xx_ll_tim.h ****   * @}
 463:Drivers/STM32L0xx_HAL_Driver/Inc/stm32l0xx_ll_tim.h ****   */
 464:Drivers/STM32L0xx_HAL_Driver/Inc/stm32l0xx_ll_tim.h **** 
 465:Drivers/STM32L0xx_HAL_Driver/Inc/stm32l0xx_ll_tim.h **** /** @defgroup TIM_LL_EC_ICPSC Input Configuration Prescaler
 466:Drivers/STM32L0xx_HAL_Driver/Inc/stm32l0xx_ll_tim.h ****   * @{
 467:Drivers/STM32L0xx_HAL_Driver/Inc/stm32l0xx_ll_tim.h ****   */
 468:Drivers/STM32L0xx_HAL_Driver/Inc/stm32l0xx_ll_tim.h **** #define LL_TIM_ICPSC_DIV1                      0x00000000U                    /*!< No prescaler, ca
 469:Drivers/STM32L0xx_HAL_Driver/Inc/stm32l0xx_ll_tim.h **** #define LL_TIM_ICPSC_DIV2                      (TIM_CCMR1_IC1PSC_0 << 16U)    /*!< Capture is done 
 470:Drivers/STM32L0xx_HAL_Driver/Inc/stm32l0xx_ll_tim.h **** #define LL_TIM_ICPSC_DIV4                      (TIM_CCMR1_IC1PSC_1 << 16U)    /*!< Capture is done 
 471:Drivers/STM32L0xx_HAL_Driver/Inc/stm32l0xx_ll_tim.h **** #define LL_TIM_ICPSC_DIV8                      (TIM_CCMR1_IC1PSC << 16U)      /*!< Capture is done 
ARM GAS  /tmp/ccr6mobF.s 			page 34


 472:Drivers/STM32L0xx_HAL_Driver/Inc/stm32l0xx_ll_tim.h **** /**
 473:Drivers/STM32L0xx_HAL_Driver/Inc/stm32l0xx_ll_tim.h ****   * @}
 474:Drivers/STM32L0xx_HAL_Driver/Inc/stm32l0xx_ll_tim.h ****   */
 475:Drivers/STM32L0xx_HAL_Driver/Inc/stm32l0xx_ll_tim.h **** 
 476:Drivers/STM32L0xx_HAL_Driver/Inc/stm32l0xx_ll_tim.h **** /** @defgroup TIM_LL_EC_IC_FILTER Input Configuration Filter
 477:Drivers/STM32L0xx_HAL_Driver/Inc/stm32l0xx_ll_tim.h ****   * @{
 478:Drivers/STM32L0xx_HAL_Driver/Inc/stm32l0xx_ll_tim.h ****   */
 479:Drivers/STM32L0xx_HAL_Driver/Inc/stm32l0xx_ll_tim.h **** #define LL_TIM_IC_FILTER_FDIV1                 0x00000000U                                         
 480:Drivers/STM32L0xx_HAL_Driver/Inc/stm32l0xx_ll_tim.h **** #define LL_TIM_IC_FILTER_FDIV1_N2              (TIM_CCMR1_IC1F_0 << 16U)                           
 481:Drivers/STM32L0xx_HAL_Driver/Inc/stm32l0xx_ll_tim.h **** #define LL_TIM_IC_FILTER_FDIV1_N4              (TIM_CCMR1_IC1F_1 << 16U)                           
 482:Drivers/STM32L0xx_HAL_Driver/Inc/stm32l0xx_ll_tim.h **** #define LL_TIM_IC_FILTER_FDIV1_N8              ((TIM_CCMR1_IC1F_1 | TIM_CCMR1_IC1F_0) << 16U)      
 483:Drivers/STM32L0xx_HAL_Driver/Inc/stm32l0xx_ll_tim.h **** #define LL_TIM_IC_FILTER_FDIV2_N6              (TIM_CCMR1_IC1F_2 << 16U)                           
 484:Drivers/STM32L0xx_HAL_Driver/Inc/stm32l0xx_ll_tim.h **** #define LL_TIM_IC_FILTER_FDIV2_N8              ((TIM_CCMR1_IC1F_2 | TIM_CCMR1_IC1F_0) << 16U)      
 485:Drivers/STM32L0xx_HAL_Driver/Inc/stm32l0xx_ll_tim.h **** #define LL_TIM_IC_FILTER_FDIV4_N6              ((TIM_CCMR1_IC1F_2 | TIM_CCMR1_IC1F_1) << 16U)      
 486:Drivers/STM32L0xx_HAL_Driver/Inc/stm32l0xx_ll_tim.h **** #define LL_TIM_IC_FILTER_FDIV4_N8              ((TIM_CCMR1_IC1F_2 | TIM_CCMR1_IC1F_1 | TIM_CCMR1_IC
 487:Drivers/STM32L0xx_HAL_Driver/Inc/stm32l0xx_ll_tim.h **** #define LL_TIM_IC_FILTER_FDIV8_N6              (TIM_CCMR1_IC1F_3 << 16U)                           
 488:Drivers/STM32L0xx_HAL_Driver/Inc/stm32l0xx_ll_tim.h **** #define LL_TIM_IC_FILTER_FDIV8_N8              ((TIM_CCMR1_IC1F_3 | TIM_CCMR1_IC1F_0) << 16U)      
 489:Drivers/STM32L0xx_HAL_Driver/Inc/stm32l0xx_ll_tim.h **** #define LL_TIM_IC_FILTER_FDIV16_N5             ((TIM_CCMR1_IC1F_3 | TIM_CCMR1_IC1F_1) << 16U)      
 490:Drivers/STM32L0xx_HAL_Driver/Inc/stm32l0xx_ll_tim.h **** #define LL_TIM_IC_FILTER_FDIV16_N6             ((TIM_CCMR1_IC1F_3 | TIM_CCMR1_IC1F_1 | TIM_CCMR1_IC
 491:Drivers/STM32L0xx_HAL_Driver/Inc/stm32l0xx_ll_tim.h **** #define LL_TIM_IC_FILTER_FDIV16_N8             ((TIM_CCMR1_IC1F_3 | TIM_CCMR1_IC1F_2) << 16U)      
 492:Drivers/STM32L0xx_HAL_Driver/Inc/stm32l0xx_ll_tim.h **** #define LL_TIM_IC_FILTER_FDIV32_N5             ((TIM_CCMR1_IC1F_3 | TIM_CCMR1_IC1F_2 | TIM_CCMR1_IC
 493:Drivers/STM32L0xx_HAL_Driver/Inc/stm32l0xx_ll_tim.h **** #define LL_TIM_IC_FILTER_FDIV32_N6             ((TIM_CCMR1_IC1F_3 | TIM_CCMR1_IC1F_2 | TIM_CCMR1_IC
 494:Drivers/STM32L0xx_HAL_Driver/Inc/stm32l0xx_ll_tim.h **** #define LL_TIM_IC_FILTER_FDIV32_N8             (TIM_CCMR1_IC1F << 16U)                             
 495:Drivers/STM32L0xx_HAL_Driver/Inc/stm32l0xx_ll_tim.h **** /**
 496:Drivers/STM32L0xx_HAL_Driver/Inc/stm32l0xx_ll_tim.h ****   * @}
 497:Drivers/STM32L0xx_HAL_Driver/Inc/stm32l0xx_ll_tim.h ****   */
 498:Drivers/STM32L0xx_HAL_Driver/Inc/stm32l0xx_ll_tim.h **** 
 499:Drivers/STM32L0xx_HAL_Driver/Inc/stm32l0xx_ll_tim.h **** /** @defgroup TIM_LL_EC_IC_POLARITY Input Configuration Polarity
 500:Drivers/STM32L0xx_HAL_Driver/Inc/stm32l0xx_ll_tim.h ****   * @{
 501:Drivers/STM32L0xx_HAL_Driver/Inc/stm32l0xx_ll_tim.h ****   */
 502:Drivers/STM32L0xx_HAL_Driver/Inc/stm32l0xx_ll_tim.h **** #define LL_TIM_IC_POLARITY_RISING              0x00000000U                      /*!< The circuit is
 503:Drivers/STM32L0xx_HAL_Driver/Inc/stm32l0xx_ll_tim.h **** #define LL_TIM_IC_POLARITY_FALLING             TIM_CCER_CC1P                    /*!< The circuit is
 504:Drivers/STM32L0xx_HAL_Driver/Inc/stm32l0xx_ll_tim.h **** #define LL_TIM_IC_POLARITY_BOTHEDGE            (TIM_CCER_CC1P | TIM_CCER_CC1NP) /*!< The circuit is
 505:Drivers/STM32L0xx_HAL_Driver/Inc/stm32l0xx_ll_tim.h **** /**
 506:Drivers/STM32L0xx_HAL_Driver/Inc/stm32l0xx_ll_tim.h ****   * @}
 507:Drivers/STM32L0xx_HAL_Driver/Inc/stm32l0xx_ll_tim.h ****   */
 508:Drivers/STM32L0xx_HAL_Driver/Inc/stm32l0xx_ll_tim.h **** 
 509:Drivers/STM32L0xx_HAL_Driver/Inc/stm32l0xx_ll_tim.h **** /** @defgroup TIM_LL_EC_CLOCKSOURCE Clock Source
 510:Drivers/STM32L0xx_HAL_Driver/Inc/stm32l0xx_ll_tim.h ****   * @{
 511:Drivers/STM32L0xx_HAL_Driver/Inc/stm32l0xx_ll_tim.h ****   */
 512:Drivers/STM32L0xx_HAL_Driver/Inc/stm32l0xx_ll_tim.h **** #define LL_TIM_CLOCKSOURCE_INTERNAL            0x00000000U                                         
 513:Drivers/STM32L0xx_HAL_Driver/Inc/stm32l0xx_ll_tim.h **** #define LL_TIM_CLOCKSOURCE_EXT_MODE1           (TIM_SMCR_SMS_2 | TIM_SMCR_SMS_1 | TIM_SMCR_SMS_0)  
 514:Drivers/STM32L0xx_HAL_Driver/Inc/stm32l0xx_ll_tim.h **** #define LL_TIM_CLOCKSOURCE_EXT_MODE2           TIM_SMCR_ECE                                        
 515:Drivers/STM32L0xx_HAL_Driver/Inc/stm32l0xx_ll_tim.h **** /**
 516:Drivers/STM32L0xx_HAL_Driver/Inc/stm32l0xx_ll_tim.h ****   * @}
 517:Drivers/STM32L0xx_HAL_Driver/Inc/stm32l0xx_ll_tim.h ****   */
 518:Drivers/STM32L0xx_HAL_Driver/Inc/stm32l0xx_ll_tim.h **** 
 519:Drivers/STM32L0xx_HAL_Driver/Inc/stm32l0xx_ll_tim.h **** /** @defgroup TIM_LL_EC_ENCODERMODE Encoder Mode
 520:Drivers/STM32L0xx_HAL_Driver/Inc/stm32l0xx_ll_tim.h ****   * @{
 521:Drivers/STM32L0xx_HAL_Driver/Inc/stm32l0xx_ll_tim.h ****   */
 522:Drivers/STM32L0xx_HAL_Driver/Inc/stm32l0xx_ll_tim.h **** #define LL_TIM_ENCODERMODE_X2_TI1                     TIM_SMCR_SMS_0                               
 523:Drivers/STM32L0xx_HAL_Driver/Inc/stm32l0xx_ll_tim.h **** #define LL_TIM_ENCODERMODE_X2_TI2                     TIM_SMCR_SMS_1                               
 524:Drivers/STM32L0xx_HAL_Driver/Inc/stm32l0xx_ll_tim.h **** #define LL_TIM_ENCODERMODE_X4_TI12                   (TIM_SMCR_SMS_1 | TIM_SMCR_SMS_0)             
 525:Drivers/STM32L0xx_HAL_Driver/Inc/stm32l0xx_ll_tim.h **** /**
 526:Drivers/STM32L0xx_HAL_Driver/Inc/stm32l0xx_ll_tim.h ****   * @}
 527:Drivers/STM32L0xx_HAL_Driver/Inc/stm32l0xx_ll_tim.h ****   */
 528:Drivers/STM32L0xx_HAL_Driver/Inc/stm32l0xx_ll_tim.h **** 
ARM GAS  /tmp/ccr6mobF.s 			page 35


 529:Drivers/STM32L0xx_HAL_Driver/Inc/stm32l0xx_ll_tim.h **** /** @defgroup TIM_LL_EC_TRGO Trigger Output
 530:Drivers/STM32L0xx_HAL_Driver/Inc/stm32l0xx_ll_tim.h ****   * @{
 531:Drivers/STM32L0xx_HAL_Driver/Inc/stm32l0xx_ll_tim.h ****   */
 532:Drivers/STM32L0xx_HAL_Driver/Inc/stm32l0xx_ll_tim.h **** #define LL_TIM_TRGO_RESET                      0x00000000U                                     /*!<
 533:Drivers/STM32L0xx_HAL_Driver/Inc/stm32l0xx_ll_tim.h **** #define LL_TIM_TRGO_ENABLE                     TIM_CR2_MMS_0                                   /*!<
 534:Drivers/STM32L0xx_HAL_Driver/Inc/stm32l0xx_ll_tim.h **** #define LL_TIM_TRGO_UPDATE                     TIM_CR2_MMS_1                                   /*!<
 535:Drivers/STM32L0xx_HAL_Driver/Inc/stm32l0xx_ll_tim.h **** #define LL_TIM_TRGO_CC1IF                      (TIM_CR2_MMS_1 | TIM_CR2_MMS_0)                 /*!<
 536:Drivers/STM32L0xx_HAL_Driver/Inc/stm32l0xx_ll_tim.h **** #define LL_TIM_TRGO_OC1REF                     TIM_CR2_MMS_2                                   /*!<
 537:Drivers/STM32L0xx_HAL_Driver/Inc/stm32l0xx_ll_tim.h **** #define LL_TIM_TRGO_OC2REF                     (TIM_CR2_MMS_2 | TIM_CR2_MMS_0)                 /*!<
 538:Drivers/STM32L0xx_HAL_Driver/Inc/stm32l0xx_ll_tim.h **** #define LL_TIM_TRGO_OC3REF                     (TIM_CR2_MMS_2 | TIM_CR2_MMS_1)                 /*!<
 539:Drivers/STM32L0xx_HAL_Driver/Inc/stm32l0xx_ll_tim.h **** #define LL_TIM_TRGO_OC4REF                     (TIM_CR2_MMS_2 | TIM_CR2_MMS_1 | TIM_CR2_MMS_0) /*!<
 540:Drivers/STM32L0xx_HAL_Driver/Inc/stm32l0xx_ll_tim.h **** /**
 541:Drivers/STM32L0xx_HAL_Driver/Inc/stm32l0xx_ll_tim.h ****   * @}
 542:Drivers/STM32L0xx_HAL_Driver/Inc/stm32l0xx_ll_tim.h ****   */
 543:Drivers/STM32L0xx_HAL_Driver/Inc/stm32l0xx_ll_tim.h **** 
 544:Drivers/STM32L0xx_HAL_Driver/Inc/stm32l0xx_ll_tim.h **** 
 545:Drivers/STM32L0xx_HAL_Driver/Inc/stm32l0xx_ll_tim.h **** /** @defgroup TIM_LL_EC_SLAVEMODE Slave Mode
 546:Drivers/STM32L0xx_HAL_Driver/Inc/stm32l0xx_ll_tim.h ****   * @{
 547:Drivers/STM32L0xx_HAL_Driver/Inc/stm32l0xx_ll_tim.h ****   */
 548:Drivers/STM32L0xx_HAL_Driver/Inc/stm32l0xx_ll_tim.h **** #define LL_TIM_SLAVEMODE_DISABLED              0x00000000U                         /*!< Slave mode 
 549:Drivers/STM32L0xx_HAL_Driver/Inc/stm32l0xx_ll_tim.h **** #define LL_TIM_SLAVEMODE_RESET                 TIM_SMCR_SMS_2                      /*!< Reset Mode 
 550:Drivers/STM32L0xx_HAL_Driver/Inc/stm32l0xx_ll_tim.h **** #define LL_TIM_SLAVEMODE_GATED                 (TIM_SMCR_SMS_2 | TIM_SMCR_SMS_0)   /*!< Gated Mode 
 551:Drivers/STM32L0xx_HAL_Driver/Inc/stm32l0xx_ll_tim.h **** #define LL_TIM_SLAVEMODE_TRIGGER               (TIM_SMCR_SMS_2 | TIM_SMCR_SMS_1)   /*!< Trigger Mod
 552:Drivers/STM32L0xx_HAL_Driver/Inc/stm32l0xx_ll_tim.h **** /**
 553:Drivers/STM32L0xx_HAL_Driver/Inc/stm32l0xx_ll_tim.h ****   * @}
 554:Drivers/STM32L0xx_HAL_Driver/Inc/stm32l0xx_ll_tim.h ****   */
 555:Drivers/STM32L0xx_HAL_Driver/Inc/stm32l0xx_ll_tim.h **** 
 556:Drivers/STM32L0xx_HAL_Driver/Inc/stm32l0xx_ll_tim.h **** /** @defgroup TIM_LL_EC_TS Trigger Selection
 557:Drivers/STM32L0xx_HAL_Driver/Inc/stm32l0xx_ll_tim.h ****   * @{
 558:Drivers/STM32L0xx_HAL_Driver/Inc/stm32l0xx_ll_tim.h ****   */
 559:Drivers/STM32L0xx_HAL_Driver/Inc/stm32l0xx_ll_tim.h **** #define LL_TIM_TS_ITR0                         0x00000000U                                         
 560:Drivers/STM32L0xx_HAL_Driver/Inc/stm32l0xx_ll_tim.h **** #define LL_TIM_TS_ITR1                         TIM_SMCR_TS_0                                       
 561:Drivers/STM32L0xx_HAL_Driver/Inc/stm32l0xx_ll_tim.h **** #define LL_TIM_TS_ITR2                         TIM_SMCR_TS_1                                       
 562:Drivers/STM32L0xx_HAL_Driver/Inc/stm32l0xx_ll_tim.h **** #define LL_TIM_TS_ITR3                         (TIM_SMCR_TS_0 | TIM_SMCR_TS_1)                     
 563:Drivers/STM32L0xx_HAL_Driver/Inc/stm32l0xx_ll_tim.h **** #define LL_TIM_TS_TI1F_ED                      TIM_SMCR_TS_2                                       
 564:Drivers/STM32L0xx_HAL_Driver/Inc/stm32l0xx_ll_tim.h **** #define LL_TIM_TS_TI1FP1                       (TIM_SMCR_TS_2 | TIM_SMCR_TS_0)                     
 565:Drivers/STM32L0xx_HAL_Driver/Inc/stm32l0xx_ll_tim.h **** #define LL_TIM_TS_TI2FP2                       (TIM_SMCR_TS_2 | TIM_SMCR_TS_1)                     
 566:Drivers/STM32L0xx_HAL_Driver/Inc/stm32l0xx_ll_tim.h **** #define LL_TIM_TS_ETRF                         (TIM_SMCR_TS_2 | TIM_SMCR_TS_1 | TIM_SMCR_TS_0)     
 567:Drivers/STM32L0xx_HAL_Driver/Inc/stm32l0xx_ll_tim.h **** /**
 568:Drivers/STM32L0xx_HAL_Driver/Inc/stm32l0xx_ll_tim.h ****   * @}
 569:Drivers/STM32L0xx_HAL_Driver/Inc/stm32l0xx_ll_tim.h ****   */
 570:Drivers/STM32L0xx_HAL_Driver/Inc/stm32l0xx_ll_tim.h **** 
 571:Drivers/STM32L0xx_HAL_Driver/Inc/stm32l0xx_ll_tim.h **** /** @defgroup TIM_LL_EC_ETR_POLARITY External Trigger Polarity
 572:Drivers/STM32L0xx_HAL_Driver/Inc/stm32l0xx_ll_tim.h ****   * @{
 573:Drivers/STM32L0xx_HAL_Driver/Inc/stm32l0xx_ll_tim.h ****   */
 574:Drivers/STM32L0xx_HAL_Driver/Inc/stm32l0xx_ll_tim.h **** #define LL_TIM_ETR_POLARITY_NONINVERTED        0x00000000U             /*!< ETR is non-inverted, ac
 575:Drivers/STM32L0xx_HAL_Driver/Inc/stm32l0xx_ll_tim.h **** #define LL_TIM_ETR_POLARITY_INVERTED           TIM_SMCR_ETP            /*!< ETR is inverted, active
 576:Drivers/STM32L0xx_HAL_Driver/Inc/stm32l0xx_ll_tim.h **** /**
 577:Drivers/STM32L0xx_HAL_Driver/Inc/stm32l0xx_ll_tim.h ****   * @}
 578:Drivers/STM32L0xx_HAL_Driver/Inc/stm32l0xx_ll_tim.h ****   */
 579:Drivers/STM32L0xx_HAL_Driver/Inc/stm32l0xx_ll_tim.h **** 
 580:Drivers/STM32L0xx_HAL_Driver/Inc/stm32l0xx_ll_tim.h **** /** @defgroup TIM_LL_EC_ETR_PRESCALER External Trigger Prescaler
 581:Drivers/STM32L0xx_HAL_Driver/Inc/stm32l0xx_ll_tim.h ****   * @{
 582:Drivers/STM32L0xx_HAL_Driver/Inc/stm32l0xx_ll_tim.h ****   */
 583:Drivers/STM32L0xx_HAL_Driver/Inc/stm32l0xx_ll_tim.h **** #define LL_TIM_ETR_PRESCALER_DIV1              0x00000000U             /*!< ETR prescaler OFF */
 584:Drivers/STM32L0xx_HAL_Driver/Inc/stm32l0xx_ll_tim.h **** #define LL_TIM_ETR_PRESCALER_DIV2              TIM_SMCR_ETPS_0         /*!< ETR frequency is divide
 585:Drivers/STM32L0xx_HAL_Driver/Inc/stm32l0xx_ll_tim.h **** #define LL_TIM_ETR_PRESCALER_DIV4              TIM_SMCR_ETPS_1         /*!< ETR frequency is divide
ARM GAS  /tmp/ccr6mobF.s 			page 36


 586:Drivers/STM32L0xx_HAL_Driver/Inc/stm32l0xx_ll_tim.h **** #define LL_TIM_ETR_PRESCALER_DIV8              TIM_SMCR_ETPS           /*!< ETR frequency is divide
 587:Drivers/STM32L0xx_HAL_Driver/Inc/stm32l0xx_ll_tim.h **** /**
 588:Drivers/STM32L0xx_HAL_Driver/Inc/stm32l0xx_ll_tim.h ****   * @}
 589:Drivers/STM32L0xx_HAL_Driver/Inc/stm32l0xx_ll_tim.h ****   */
 590:Drivers/STM32L0xx_HAL_Driver/Inc/stm32l0xx_ll_tim.h **** 
 591:Drivers/STM32L0xx_HAL_Driver/Inc/stm32l0xx_ll_tim.h **** /** @defgroup TIM_LL_EC_ETR_FILTER External Trigger Filter
 592:Drivers/STM32L0xx_HAL_Driver/Inc/stm32l0xx_ll_tim.h ****   * @{
 593:Drivers/STM32L0xx_HAL_Driver/Inc/stm32l0xx_ll_tim.h ****   */
 594:Drivers/STM32L0xx_HAL_Driver/Inc/stm32l0xx_ll_tim.h **** #define LL_TIM_ETR_FILTER_FDIV1                0x00000000U                                         
 595:Drivers/STM32L0xx_HAL_Driver/Inc/stm32l0xx_ll_tim.h **** #define LL_TIM_ETR_FILTER_FDIV1_N2             TIM_SMCR_ETF_0                                      
 596:Drivers/STM32L0xx_HAL_Driver/Inc/stm32l0xx_ll_tim.h **** #define LL_TIM_ETR_FILTER_FDIV1_N4             TIM_SMCR_ETF_1                                      
 597:Drivers/STM32L0xx_HAL_Driver/Inc/stm32l0xx_ll_tim.h **** #define LL_TIM_ETR_FILTER_FDIV1_N8             (TIM_SMCR_ETF_1 | TIM_SMCR_ETF_0)                   
 598:Drivers/STM32L0xx_HAL_Driver/Inc/stm32l0xx_ll_tim.h **** #define LL_TIM_ETR_FILTER_FDIV2_N6             TIM_SMCR_ETF_2                                      
 599:Drivers/STM32L0xx_HAL_Driver/Inc/stm32l0xx_ll_tim.h **** #define LL_TIM_ETR_FILTER_FDIV2_N8             (TIM_SMCR_ETF_2 | TIM_SMCR_ETF_0)                   
 600:Drivers/STM32L0xx_HAL_Driver/Inc/stm32l0xx_ll_tim.h **** #define LL_TIM_ETR_FILTER_FDIV4_N6             (TIM_SMCR_ETF_2 | TIM_SMCR_ETF_1)                   
 601:Drivers/STM32L0xx_HAL_Driver/Inc/stm32l0xx_ll_tim.h **** #define LL_TIM_ETR_FILTER_FDIV4_N8             (TIM_SMCR_ETF_2 | TIM_SMCR_ETF_1 | TIM_SMCR_ETF_0)  
 602:Drivers/STM32L0xx_HAL_Driver/Inc/stm32l0xx_ll_tim.h **** #define LL_TIM_ETR_FILTER_FDIV8_N6             TIM_SMCR_ETF_3                                      
 603:Drivers/STM32L0xx_HAL_Driver/Inc/stm32l0xx_ll_tim.h **** #define LL_TIM_ETR_FILTER_FDIV8_N8             (TIM_SMCR_ETF_3 | TIM_SMCR_ETF_0)                   
 604:Drivers/STM32L0xx_HAL_Driver/Inc/stm32l0xx_ll_tim.h **** #define LL_TIM_ETR_FILTER_FDIV16_N5            (TIM_SMCR_ETF_3 | TIM_SMCR_ETF_1)                   
 605:Drivers/STM32L0xx_HAL_Driver/Inc/stm32l0xx_ll_tim.h **** #define LL_TIM_ETR_FILTER_FDIV16_N6            (TIM_SMCR_ETF_3 | TIM_SMCR_ETF_1 | TIM_SMCR_ETF_0)  
 606:Drivers/STM32L0xx_HAL_Driver/Inc/stm32l0xx_ll_tim.h **** #define LL_TIM_ETR_FILTER_FDIV16_N8            (TIM_SMCR_ETF_3 | TIM_SMCR_ETF_2)                   
 607:Drivers/STM32L0xx_HAL_Driver/Inc/stm32l0xx_ll_tim.h **** #define LL_TIM_ETR_FILTER_FDIV32_N5            (TIM_SMCR_ETF_3 | TIM_SMCR_ETF_2 | TIM_SMCR_ETF_0)  
 608:Drivers/STM32L0xx_HAL_Driver/Inc/stm32l0xx_ll_tim.h **** #define LL_TIM_ETR_FILTER_FDIV32_N6            (TIM_SMCR_ETF_3 | TIM_SMCR_ETF_2 | TIM_SMCR_ETF_1)  
 609:Drivers/STM32L0xx_HAL_Driver/Inc/stm32l0xx_ll_tim.h **** #define LL_TIM_ETR_FILTER_FDIV32_N8            TIM_SMCR_ETF                                        
 610:Drivers/STM32L0xx_HAL_Driver/Inc/stm32l0xx_ll_tim.h **** /**
 611:Drivers/STM32L0xx_HAL_Driver/Inc/stm32l0xx_ll_tim.h ****   * @}
 612:Drivers/STM32L0xx_HAL_Driver/Inc/stm32l0xx_ll_tim.h ****   */
 613:Drivers/STM32L0xx_HAL_Driver/Inc/stm32l0xx_ll_tim.h **** 
 614:Drivers/STM32L0xx_HAL_Driver/Inc/stm32l0xx_ll_tim.h **** 
 615:Drivers/STM32L0xx_HAL_Driver/Inc/stm32l0xx_ll_tim.h **** 
 616:Drivers/STM32L0xx_HAL_Driver/Inc/stm32l0xx_ll_tim.h **** 
 617:Drivers/STM32L0xx_HAL_Driver/Inc/stm32l0xx_ll_tim.h **** 
 618:Drivers/STM32L0xx_HAL_Driver/Inc/stm32l0xx_ll_tim.h **** 
 619:Drivers/STM32L0xx_HAL_Driver/Inc/stm32l0xx_ll_tim.h **** 
 620:Drivers/STM32L0xx_HAL_Driver/Inc/stm32l0xx_ll_tim.h **** /** @defgroup TIM_LL_EC_DMABURST_BASEADDR DMA Burst Base Address
 621:Drivers/STM32L0xx_HAL_Driver/Inc/stm32l0xx_ll_tim.h ****   * @{
 622:Drivers/STM32L0xx_HAL_Driver/Inc/stm32l0xx_ll_tim.h ****   */
 623:Drivers/STM32L0xx_HAL_Driver/Inc/stm32l0xx_ll_tim.h **** #define LL_TIM_DMABURST_BASEADDR_CR1           0x00000000U                                         
 624:Drivers/STM32L0xx_HAL_Driver/Inc/stm32l0xx_ll_tim.h **** #define LL_TIM_DMABURST_BASEADDR_CR2           TIM_DCR_DBA_0                                       
 625:Drivers/STM32L0xx_HAL_Driver/Inc/stm32l0xx_ll_tim.h **** #define LL_TIM_DMABURST_BASEADDR_SMCR          TIM_DCR_DBA_1                                       
 626:Drivers/STM32L0xx_HAL_Driver/Inc/stm32l0xx_ll_tim.h **** #define LL_TIM_DMABURST_BASEADDR_DIER          (TIM_DCR_DBA_1 |  TIM_DCR_DBA_0)                    
 627:Drivers/STM32L0xx_HAL_Driver/Inc/stm32l0xx_ll_tim.h **** #define LL_TIM_DMABURST_BASEADDR_SR            TIM_DCR_DBA_2                                       
 628:Drivers/STM32L0xx_HAL_Driver/Inc/stm32l0xx_ll_tim.h **** #define LL_TIM_DMABURST_BASEADDR_EGR           (TIM_DCR_DBA_2 | TIM_DCR_DBA_0)                     
 629:Drivers/STM32L0xx_HAL_Driver/Inc/stm32l0xx_ll_tim.h **** #define LL_TIM_DMABURST_BASEADDR_CCMR1         (TIM_DCR_DBA_2 | TIM_DCR_DBA_1)                     
 630:Drivers/STM32L0xx_HAL_Driver/Inc/stm32l0xx_ll_tim.h **** #define LL_TIM_DMABURST_BASEADDR_CCMR2         (TIM_DCR_DBA_2 | TIM_DCR_DBA_1 | TIM_DCR_DBA_0)     
 631:Drivers/STM32L0xx_HAL_Driver/Inc/stm32l0xx_ll_tim.h **** #define LL_TIM_DMABURST_BASEADDR_CCER          TIM_DCR_DBA_3                                       
 632:Drivers/STM32L0xx_HAL_Driver/Inc/stm32l0xx_ll_tim.h **** #define LL_TIM_DMABURST_BASEADDR_CNT           (TIM_DCR_DBA_3 | TIM_DCR_DBA_0)                     
 633:Drivers/STM32L0xx_HAL_Driver/Inc/stm32l0xx_ll_tim.h **** #define LL_TIM_DMABURST_BASEADDR_PSC           (TIM_DCR_DBA_3 | TIM_DCR_DBA_1)                     
 634:Drivers/STM32L0xx_HAL_Driver/Inc/stm32l0xx_ll_tim.h **** #define LL_TIM_DMABURST_BASEADDR_ARR           (TIM_DCR_DBA_3 | TIM_DCR_DBA_1 | TIM_DCR_DBA_0)     
 635:Drivers/STM32L0xx_HAL_Driver/Inc/stm32l0xx_ll_tim.h **** #define LL_TIM_DMABURST_BASEADDR_CCR1          (TIM_DCR_DBA_3 | TIM_DCR_DBA_2 | TIM_DCR_DBA_0)     
 636:Drivers/STM32L0xx_HAL_Driver/Inc/stm32l0xx_ll_tim.h **** #define LL_TIM_DMABURST_BASEADDR_CCR2          (TIM_DCR_DBA_3 | TIM_DCR_DBA_2 | TIM_DCR_DBA_1)     
 637:Drivers/STM32L0xx_HAL_Driver/Inc/stm32l0xx_ll_tim.h **** #define LL_TIM_DMABURST_BASEADDR_CCR3          (TIM_DCR_DBA_3 | TIM_DCR_DBA_2 | TIM_DCR_DBA_1 | TIM
 638:Drivers/STM32L0xx_HAL_Driver/Inc/stm32l0xx_ll_tim.h **** #define LL_TIM_DMABURST_BASEADDR_CCR4          TIM_DCR_DBA_4                                       
 639:Drivers/STM32L0xx_HAL_Driver/Inc/stm32l0xx_ll_tim.h **** #define LL_TIM_DMABURST_BASEADDR_OR            (TIM_DCR_DBA_4 | TIM_DCR_DBA_2)                     
 640:Drivers/STM32L0xx_HAL_Driver/Inc/stm32l0xx_ll_tim.h **** /**
 641:Drivers/STM32L0xx_HAL_Driver/Inc/stm32l0xx_ll_tim.h ****   * @}
 642:Drivers/STM32L0xx_HAL_Driver/Inc/stm32l0xx_ll_tim.h ****   */
ARM GAS  /tmp/ccr6mobF.s 			page 37


 643:Drivers/STM32L0xx_HAL_Driver/Inc/stm32l0xx_ll_tim.h **** 
 644:Drivers/STM32L0xx_HAL_Driver/Inc/stm32l0xx_ll_tim.h **** /** @defgroup TIM_LL_EC_DMABURST_LENGTH DMA Burst Length
 645:Drivers/STM32L0xx_HAL_Driver/Inc/stm32l0xx_ll_tim.h ****   * @{
 646:Drivers/STM32L0xx_HAL_Driver/Inc/stm32l0xx_ll_tim.h ****   */
 647:Drivers/STM32L0xx_HAL_Driver/Inc/stm32l0xx_ll_tim.h **** #define LL_TIM_DMABURST_LENGTH_1TRANSFER       0x00000000U                                         
 648:Drivers/STM32L0xx_HAL_Driver/Inc/stm32l0xx_ll_tim.h **** #define LL_TIM_DMABURST_LENGTH_2TRANSFERS      TIM_DCR_DBL_0                                       
 649:Drivers/STM32L0xx_HAL_Driver/Inc/stm32l0xx_ll_tim.h **** #define LL_TIM_DMABURST_LENGTH_3TRANSFERS      TIM_DCR_DBL_1                                       
 650:Drivers/STM32L0xx_HAL_Driver/Inc/stm32l0xx_ll_tim.h **** #define LL_TIM_DMABURST_LENGTH_4TRANSFERS      (TIM_DCR_DBL_1 |  TIM_DCR_DBL_0)                    
 651:Drivers/STM32L0xx_HAL_Driver/Inc/stm32l0xx_ll_tim.h **** #define LL_TIM_DMABURST_LENGTH_5TRANSFERS      TIM_DCR_DBL_2                                       
 652:Drivers/STM32L0xx_HAL_Driver/Inc/stm32l0xx_ll_tim.h **** #define LL_TIM_DMABURST_LENGTH_6TRANSFERS      (TIM_DCR_DBL_2 | TIM_DCR_DBL_0)                     
 653:Drivers/STM32L0xx_HAL_Driver/Inc/stm32l0xx_ll_tim.h **** #define LL_TIM_DMABURST_LENGTH_7TRANSFERS      (TIM_DCR_DBL_2 | TIM_DCR_DBL_1)                     
 654:Drivers/STM32L0xx_HAL_Driver/Inc/stm32l0xx_ll_tim.h **** #define LL_TIM_DMABURST_LENGTH_8TRANSFERS      (TIM_DCR_DBL_2 | TIM_DCR_DBL_1 | TIM_DCR_DBL_0)     
 655:Drivers/STM32L0xx_HAL_Driver/Inc/stm32l0xx_ll_tim.h **** #define LL_TIM_DMABURST_LENGTH_9TRANSFERS      TIM_DCR_DBL_3                                       
 656:Drivers/STM32L0xx_HAL_Driver/Inc/stm32l0xx_ll_tim.h **** #define LL_TIM_DMABURST_LENGTH_10TRANSFERS     (TIM_DCR_DBL_3 | TIM_DCR_DBL_0)                     
 657:Drivers/STM32L0xx_HAL_Driver/Inc/stm32l0xx_ll_tim.h **** #define LL_TIM_DMABURST_LENGTH_11TRANSFERS     (TIM_DCR_DBL_3 | TIM_DCR_DBL_1)                     
 658:Drivers/STM32L0xx_HAL_Driver/Inc/stm32l0xx_ll_tim.h **** #define LL_TIM_DMABURST_LENGTH_12TRANSFERS     (TIM_DCR_DBL_3 | TIM_DCR_DBL_1 | TIM_DCR_DBL_0)     
 659:Drivers/STM32L0xx_HAL_Driver/Inc/stm32l0xx_ll_tim.h **** #define LL_TIM_DMABURST_LENGTH_13TRANSFERS     (TIM_DCR_DBL_3 | TIM_DCR_DBL_2)                     
 660:Drivers/STM32L0xx_HAL_Driver/Inc/stm32l0xx_ll_tim.h **** #define LL_TIM_DMABURST_LENGTH_14TRANSFERS     (TIM_DCR_DBL_3 | TIM_DCR_DBL_2 | TIM_DCR_DBL_0)     
 661:Drivers/STM32L0xx_HAL_Driver/Inc/stm32l0xx_ll_tim.h **** #define LL_TIM_DMABURST_LENGTH_15TRANSFERS     (TIM_DCR_DBL_3 | TIM_DCR_DBL_2 | TIM_DCR_DBL_1)     
 662:Drivers/STM32L0xx_HAL_Driver/Inc/stm32l0xx_ll_tim.h **** #define LL_TIM_DMABURST_LENGTH_16TRANSFERS     (TIM_DCR_DBL_3 | TIM_DCR_DBL_2 | TIM_DCR_DBL_1 | TIM
 663:Drivers/STM32L0xx_HAL_Driver/Inc/stm32l0xx_ll_tim.h **** #define LL_TIM_DMABURST_LENGTH_17TRANSFERS     TIM_DCR_DBL_4                                       
 664:Drivers/STM32L0xx_HAL_Driver/Inc/stm32l0xx_ll_tim.h **** #define LL_TIM_DMABURST_LENGTH_18TRANSFERS     (TIM_DCR_DBL_4 |  TIM_DCR_DBL_0)                    
 665:Drivers/STM32L0xx_HAL_Driver/Inc/stm32l0xx_ll_tim.h **** /**
 666:Drivers/STM32L0xx_HAL_Driver/Inc/stm32l0xx_ll_tim.h ****   * @}
 667:Drivers/STM32L0xx_HAL_Driver/Inc/stm32l0xx_ll_tim.h ****   */
 668:Drivers/STM32L0xx_HAL_Driver/Inc/stm32l0xx_ll_tim.h **** 
 669:Drivers/STM32L0xx_HAL_Driver/Inc/stm32l0xx_ll_tim.h **** 
 670:Drivers/STM32L0xx_HAL_Driver/Inc/stm32l0xx_ll_tim.h **** /** @defgroup TIM_LL_EC_TIM2_ETR_RMP  TIM2 External Trigger Remap
 671:Drivers/STM32L0xx_HAL_Driver/Inc/stm32l0xx_ll_tim.h ****   * @{
 672:Drivers/STM32L0xx_HAL_Driver/Inc/stm32l0xx_ll_tim.h ****   */
 673:Drivers/STM32L0xx_HAL_Driver/Inc/stm32l0xx_ll_tim.h **** #define LL_TIM_TIM2_ETR_RMP_GPIO     TIM2_OR_RMP_MASK                                             /
 674:Drivers/STM32L0xx_HAL_Driver/Inc/stm32l0xx_ll_tim.h **** #if defined(TIM_TIM2_REMAP_HSI_SUPPORT)
 675:Drivers/STM32L0xx_HAL_Driver/Inc/stm32l0xx_ll_tim.h **** #define LL_TIM_TIM2_ETR_RMP_HSI      (TIM2_OR_ETR_RMP_1 | TIM2_OR_ETR_RMP_0 | TIM2_OR_RMP_MASK)   /
 676:Drivers/STM32L0xx_HAL_Driver/Inc/stm32l0xx_ll_tim.h **** #endif /* defined(TIM_TIM2_REMAP_HSI_SUPPORT) */
 677:Drivers/STM32L0xx_HAL_Driver/Inc/stm32l0xx_ll_tim.h **** #if defined(TIM_TIM2_REMAP_HSI48_SUPPORT)
 678:Drivers/STM32L0xx_HAL_Driver/Inc/stm32l0xx_ll_tim.h **** #define LL_TIM_TIM2_ETR_RMP_HSI48    (TIM2_OR_ETR_RMP_2 | TIM2_OR_RMP_MASK)                       /
 679:Drivers/STM32L0xx_HAL_Driver/Inc/stm32l0xx_ll_tim.h **** #endif /* defined(TIM_TIM2_REMAP_HSI48_SUPPORT) */
 680:Drivers/STM32L0xx_HAL_Driver/Inc/stm32l0xx_ll_tim.h **** #define LL_TIM_TIM2_ETR_RMP_LSE      (TIM2_OR_ETR_RMP_2 | TIM2_OR_ETR_RMP_0 | TIM2_OR_RMP_MASK)   /
 681:Drivers/STM32L0xx_HAL_Driver/Inc/stm32l0xx_ll_tim.h **** #define LL_TIM_TIM2_ETR_RMP_COMP2    (TIM2_OR_ETR_RMP_2 | TIM2_OR_ETR_RMP_1 | TIM2_OR_RMP_MASK)   /
 682:Drivers/STM32L0xx_HAL_Driver/Inc/stm32l0xx_ll_tim.h **** #define LL_TIM_TIM2_ETR_RMP_COMP1    (TIM2_OR_ETR_RMP | TIM2_OR_RMP_MASK)                         /
 683:Drivers/STM32L0xx_HAL_Driver/Inc/stm32l0xx_ll_tim.h **** 
 684:Drivers/STM32L0xx_HAL_Driver/Inc/stm32l0xx_ll_tim.h **** /**
 685:Drivers/STM32L0xx_HAL_Driver/Inc/stm32l0xx_ll_tim.h ****   * @}
 686:Drivers/STM32L0xx_HAL_Driver/Inc/stm32l0xx_ll_tim.h ****   */
 687:Drivers/STM32L0xx_HAL_Driver/Inc/stm32l0xx_ll_tim.h **** 
 688:Drivers/STM32L0xx_HAL_Driver/Inc/stm32l0xx_ll_tim.h **** /** @defgroup TIM_LL_EC_TIM2_TI4_RMP  TIM2 Timer Input Ch4 Remap
 689:Drivers/STM32L0xx_HAL_Driver/Inc/stm32l0xx_ll_tim.h ****   * @{
 690:Drivers/STM32L0xx_HAL_Driver/Inc/stm32l0xx_ll_tim.h ****   */
 691:Drivers/STM32L0xx_HAL_Driver/Inc/stm32l0xx_ll_tim.h **** #define LL_TIM_TIM2_TI4_RMP_GPIO      TIM2_OR_RMP_MASK                           /*!< TIM2 input ca
 692:Drivers/STM32L0xx_HAL_Driver/Inc/stm32l0xx_ll_tim.h **** #define LL_TIM_TIM2_TI4_RMP_COMP2     (TIM2_OR_TI4_RMP_0 | TIM2_OR_RMP_MASK)     /*!< TIM2 input ca
 693:Drivers/STM32L0xx_HAL_Driver/Inc/stm32l0xx_ll_tim.h **** #define LL_TIM_TIM2_TI4_RMP_COMP1     (TIM2_OR_TI4_RMP_1 | TIM2_OR_RMP_MASK)     /*!< TIM2 input ca
 694:Drivers/STM32L0xx_HAL_Driver/Inc/stm32l0xx_ll_tim.h **** /**
 695:Drivers/STM32L0xx_HAL_Driver/Inc/stm32l0xx_ll_tim.h ****   * @}
 696:Drivers/STM32L0xx_HAL_Driver/Inc/stm32l0xx_ll_tim.h ****   */
 697:Drivers/STM32L0xx_HAL_Driver/Inc/stm32l0xx_ll_tim.h **** 
 698:Drivers/STM32L0xx_HAL_Driver/Inc/stm32l0xx_ll_tim.h **** #if defined(TIM3_OR_ETR_RMP)
 699:Drivers/STM32L0xx_HAL_Driver/Inc/stm32l0xx_ll_tim.h **** /** @defgroup TIM_LL_EC_TIM3_ETR_RMP  TIM3 External Trigger Remap
ARM GAS  /tmp/ccr6mobF.s 			page 38


 700:Drivers/STM32L0xx_HAL_Driver/Inc/stm32l0xx_ll_tim.h ****   * @{
 701:Drivers/STM32L0xx_HAL_Driver/Inc/stm32l0xx_ll_tim.h ****   */
 702:Drivers/STM32L0xx_HAL_Driver/Inc/stm32l0xx_ll_tim.h **** #define LL_TIM_TIM3_ETR_RMP_GPIO         TIM3_OR_RMP_MASK                               /*!< TIM3_E
 703:Drivers/STM32L0xx_HAL_Driver/Inc/stm32l0xx_ll_tim.h **** #define LL_TIM_TIM3_ETR_RMP_HSI48DIV6    (TIM3_OR_ETR_RMP_1 | TIM3_OR_RMP_MASK)         /*!< TIM3_E
 704:Drivers/STM32L0xx_HAL_Driver/Inc/stm32l0xx_ll_tim.h **** /**
 705:Drivers/STM32L0xx_HAL_Driver/Inc/stm32l0xx_ll_tim.h ****   * @}
 706:Drivers/STM32L0xx_HAL_Driver/Inc/stm32l0xx_ll_tim.h ****   */
 707:Drivers/STM32L0xx_HAL_Driver/Inc/stm32l0xx_ll_tim.h **** #endif /* defined(TIM3_OR_ETR_RMP) */
 708:Drivers/STM32L0xx_HAL_Driver/Inc/stm32l0xx_ll_tim.h **** 
 709:Drivers/STM32L0xx_HAL_Driver/Inc/stm32l0xx_ll_tim.h **** #if defined(TIM3_OR_TI1_RMP) || defined(TIM3_OR_TI2_RMP) || defined(TIM3_OR_TI4_RMP)
 710:Drivers/STM32L0xx_HAL_Driver/Inc/stm32l0xx_ll_tim.h **** /** @defgroup TIM_LL_EC_TIM3_TI_RMP  TIM3 External Inputs Remap
 711:Drivers/STM32L0xx_HAL_Driver/Inc/stm32l0xx_ll_tim.h ****   * @{
 712:Drivers/STM32L0xx_HAL_Driver/Inc/stm32l0xx_ll_tim.h ****   */
 713:Drivers/STM32L0xx_HAL_Driver/Inc/stm32l0xx_ll_tim.h **** #define LL_TIM_TIM3_TI_RMP_TI1_USB_SOF      TIM3_OR_RMP_MASK                           /*!< TIM3_TI
 714:Drivers/STM32L0xx_HAL_Driver/Inc/stm32l0xx_ll_tim.h **** #define LL_TIM_TIM3_TI_RMP_TI1_GPIO         (TIM3_OR_TI1_RMP | TIM3_OR_RMP_MASK)       /*!< TIM3_TI
 715:Drivers/STM32L0xx_HAL_Driver/Inc/stm32l0xx_ll_tim.h **** 
 716:Drivers/STM32L0xx_HAL_Driver/Inc/stm32l0xx_ll_tim.h **** #define LL_TIM_TIM3_TI_RMP_TI2_GPIO_DEF     TIM3_OR_RMP_MASK                           /*!< Mapping
 717:Drivers/STM32L0xx_HAL_Driver/Inc/stm32l0xx_ll_tim.h **** #define LL_TIM_TIM3_TI_RMP_TI2_GPIOB5_AF4   (TIM3_OR_TI2_RMP | TIM3_OR_RMP_MASK)       /*!< Mapping
 718:Drivers/STM32L0xx_HAL_Driver/Inc/stm32l0xx_ll_tim.h **** 
 719:Drivers/STM32L0xx_HAL_Driver/Inc/stm32l0xx_ll_tim.h **** #define LL_TIM_TIM3_TI_RMP_TI4_GPIO_DEF     (0x00000000U | TIM3_OR_RMP_MASK)           /*!< Mapping
 720:Drivers/STM32L0xx_HAL_Driver/Inc/stm32l0xx_ll_tim.h **** #define LL_TIM_TIM3_TI_RMP_TI4_GPIOC9_AF2   (TIM3_OR_TI4_RMP | TIM3_OR_RMP_MASK)       /*!< Mapping
 721:Drivers/STM32L0xx_HAL_Driver/Inc/stm32l0xx_ll_tim.h **** /**
 722:Drivers/STM32L0xx_HAL_Driver/Inc/stm32l0xx_ll_tim.h ****   * @}
 723:Drivers/STM32L0xx_HAL_Driver/Inc/stm32l0xx_ll_tim.h ****   */
 724:Drivers/STM32L0xx_HAL_Driver/Inc/stm32l0xx_ll_tim.h **** #endif /*defined(TIM3_OR_TI1_RMP) or defined(TIM3_OR_TI2_RMP) or defined(TIM3_OR_TI4_RMP)*/
 725:Drivers/STM32L0xx_HAL_Driver/Inc/stm32l0xx_ll_tim.h **** 
 726:Drivers/STM32L0xx_HAL_Driver/Inc/stm32l0xx_ll_tim.h **** /** @defgroup TIM_LL_EC_TIM21_ETR_RMP  TIM21 External Trigger Remap
 727:Drivers/STM32L0xx_HAL_Driver/Inc/stm32l0xx_ll_tim.h ****   * @{
 728:Drivers/STM32L0xx_HAL_Driver/Inc/stm32l0xx_ll_tim.h ****   */
 729:Drivers/STM32L0xx_HAL_Driver/Inc/stm32l0xx_ll_tim.h **** #define LL_TIM_TIM21_ETR_RMP_GPIO  TIM21_OR_RMP_MASK                           /*!< TIM21_ETR is co
 730:Drivers/STM32L0xx_HAL_Driver/Inc/stm32l0xx_ll_tim.h **** #define LL_TIM_TIM21_ETR_RMP_COMP2 (TIM21_OR_ETR_RMP_0 | TIM21_OR_RMP_MASK)    /*!< TIM21_ETR is co
 731:Drivers/STM32L0xx_HAL_Driver/Inc/stm32l0xx_ll_tim.h **** #define LL_TIM_TIM21_ETR_RMP_COMP1 (TIM21_OR_ETR_RMP_1 | TIM21_OR_RMP_MASK)    /*!< TIM21_ETR is co
 732:Drivers/STM32L0xx_HAL_Driver/Inc/stm32l0xx_ll_tim.h **** #define LL_TIM_TIM21_ETR_RMP_LSE   (TIM21_OR_ETR_RMP | TIM21_OR_RMP_MASK)      /*!< TIM21_ETR is co
 733:Drivers/STM32L0xx_HAL_Driver/Inc/stm32l0xx_ll_tim.h **** /**
 734:Drivers/STM32L0xx_HAL_Driver/Inc/stm32l0xx_ll_tim.h ****   * @}
 735:Drivers/STM32L0xx_HAL_Driver/Inc/stm32l0xx_ll_tim.h ****   */
 736:Drivers/STM32L0xx_HAL_Driver/Inc/stm32l0xx_ll_tim.h **** 
 737:Drivers/STM32L0xx_HAL_Driver/Inc/stm32l0xx_ll_tim.h **** /** @defgroup TIM_LL_EC_TIM21_TI1_RMP  TIM21 External Input Ch1 Remap
 738:Drivers/STM32L0xx_HAL_Driver/Inc/stm32l0xx_ll_tim.h ****   * @{
 739:Drivers/STM32L0xx_HAL_Driver/Inc/stm32l0xx_ll_tim.h ****   */
 740:Drivers/STM32L0xx_HAL_Driver/Inc/stm32l0xx_ll_tim.h **** #define LL_TIM_TIM21_TI1_RMP_GPIO    TIM21_OR_RMP_MASK                                             
 741:Drivers/STM32L0xx_HAL_Driver/Inc/stm32l0xx_ll_tim.h **** #define LL_TIM_TIM21_TI1_RMP_RTC_WK  (TIM21_OR_TI1_RMP_0 | TIM21_OR_RMP_MASK)                      
 742:Drivers/STM32L0xx_HAL_Driver/Inc/stm32l0xx_ll_tim.h **** #define LL_TIM_TIM21_TI1_RMP_HSE_RTC (TIM21_OR_TI1_RMP_1 | TIM21_OR_RMP_MASK)                      
 743:Drivers/STM32L0xx_HAL_Driver/Inc/stm32l0xx_ll_tim.h **** #define LL_TIM_TIM21_TI1_RMP_MSI     (TIM21_OR_TI1_RMP_1 | TIM21_OR_TI1_RMP_0 | TIM21_OR_RMP_MASK) 
 744:Drivers/STM32L0xx_HAL_Driver/Inc/stm32l0xx_ll_tim.h **** #define LL_TIM_TIM21_TI1_RMP_LSE     (TIM21_OR_TI1_RMP_2 | TIM21_OR_RMP_MASK)                      
 745:Drivers/STM32L0xx_HAL_Driver/Inc/stm32l0xx_ll_tim.h **** #define LL_TIM_TIM21_TI1_RMP_LSI     (TIM21_OR_TI1_RMP_2 | TIM21_OR_TI1_RMP_0 | TIM21_OR_RMP_MASK) 
 746:Drivers/STM32L0xx_HAL_Driver/Inc/stm32l0xx_ll_tim.h **** #define LL_TIM_TIM21_TI1_RMP_COMP1   (TIM21_OR_TI1_RMP_2 | TIM21_OR_TI1_RMP_1 | TIM21_OR_RMP_MASK) 
 747:Drivers/STM32L0xx_HAL_Driver/Inc/stm32l0xx_ll_tim.h **** #define LL_TIM_TIM21_TI1_RMP_MCO     (TIM21_OR_TI1_RMP | TIM21_OR_RMP_MASK)                        
 748:Drivers/STM32L0xx_HAL_Driver/Inc/stm32l0xx_ll_tim.h **** /**
 749:Drivers/STM32L0xx_HAL_Driver/Inc/stm32l0xx_ll_tim.h ****   * @}
 750:Drivers/STM32L0xx_HAL_Driver/Inc/stm32l0xx_ll_tim.h ****   */
 751:Drivers/STM32L0xx_HAL_Driver/Inc/stm32l0xx_ll_tim.h **** 
 752:Drivers/STM32L0xx_HAL_Driver/Inc/stm32l0xx_ll_tim.h **** /** @defgroup TIM_LL_EC_TIM21_TI2_RMP  TIM21 External Input Ch2 Remap
 753:Drivers/STM32L0xx_HAL_Driver/Inc/stm32l0xx_ll_tim.h ****   * @{
 754:Drivers/STM32L0xx_HAL_Driver/Inc/stm32l0xx_ll_tim.h ****   */
 755:Drivers/STM32L0xx_HAL_Driver/Inc/stm32l0xx_ll_tim.h **** #define LL_TIM_TIM21_TI2_RMP_GPIO    TIM21_OR_RMP_MASK                            /*!< TIM21_TI2 is
 756:Drivers/STM32L0xx_HAL_Driver/Inc/stm32l0xx_ll_tim.h **** #define LL_TIM_TIM21_TI2_RMP_COMP2   (TIM21_OR_TI2_RMP | TIM21_OR_RMP_MASK)       /*!< TIM21_TI2 is
ARM GAS  /tmp/ccr6mobF.s 			page 39


 757:Drivers/STM32L0xx_HAL_Driver/Inc/stm32l0xx_ll_tim.h **** /**
 758:Drivers/STM32L0xx_HAL_Driver/Inc/stm32l0xx_ll_tim.h ****   * @}
 759:Drivers/STM32L0xx_HAL_Driver/Inc/stm32l0xx_ll_tim.h ****   */
 760:Drivers/STM32L0xx_HAL_Driver/Inc/stm32l0xx_ll_tim.h **** 
 761:Drivers/STM32L0xx_HAL_Driver/Inc/stm32l0xx_ll_tim.h **** #if defined(TIM22_OR_ETR_RMP)
 762:Drivers/STM32L0xx_HAL_Driver/Inc/stm32l0xx_ll_tim.h **** 
 763:Drivers/STM32L0xx_HAL_Driver/Inc/stm32l0xx_ll_tim.h **** /** @defgroup TIM_LL_EC_TIM22_ETR_RMP  TIM22 External Trigger Remap
 764:Drivers/STM32L0xx_HAL_Driver/Inc/stm32l0xx_ll_tim.h ****   * @{
 765:Drivers/STM32L0xx_HAL_Driver/Inc/stm32l0xx_ll_tim.h ****   */
 766:Drivers/STM32L0xx_HAL_Driver/Inc/stm32l0xx_ll_tim.h **** #define LL_TIM_TIM22_ETR_RMP_GPIO  TIM22_OR_RMP_MASK                           /*!< TIM22_ETR is co
 767:Drivers/STM32L0xx_HAL_Driver/Inc/stm32l0xx_ll_tim.h **** #define LL_TIM_TIM22_ETR_RMP_COMP2 (TIM22_OR_ETR_RMP_0 | TIM22_OR_RMP_MASK)    /*!< TIM22_ETR is co
 768:Drivers/STM32L0xx_HAL_Driver/Inc/stm32l0xx_ll_tim.h **** #define LL_TIM_TIM22_ETR_RMP_COMP1 (TIM22_OR_ETR_RMP_1 | TIM22_OR_RMP_MASK)    /*!< TIM22_ETR is co
 769:Drivers/STM32L0xx_HAL_Driver/Inc/stm32l0xx_ll_tim.h **** #define LL_TIM_TIM22_ETR_RMP_LSE   (TIM22_OR_ETR_RMP | TIM22_OR_RMP_MASK)      /*!< TIM22_ETR is co
 770:Drivers/STM32L0xx_HAL_Driver/Inc/stm32l0xx_ll_tim.h **** /**
 771:Drivers/STM32L0xx_HAL_Driver/Inc/stm32l0xx_ll_tim.h ****   * @}
 772:Drivers/STM32L0xx_HAL_Driver/Inc/stm32l0xx_ll_tim.h ****   */
 773:Drivers/STM32L0xx_HAL_Driver/Inc/stm32l0xx_ll_tim.h **** #endif /* defined(TIM22_OR_ETR_RMP) */
 774:Drivers/STM32L0xx_HAL_Driver/Inc/stm32l0xx_ll_tim.h **** 
 775:Drivers/STM32L0xx_HAL_Driver/Inc/stm32l0xx_ll_tim.h **** #if defined(TIM22_OR_TI1_RMP)
 776:Drivers/STM32L0xx_HAL_Driver/Inc/stm32l0xx_ll_tim.h **** /** @defgroup TIM_LL_EC_TIM22_TI1_RMP  TIM22 External Input Ch1 Remap
 777:Drivers/STM32L0xx_HAL_Driver/Inc/stm32l0xx_ll_tim.h ****   * @{
 778:Drivers/STM32L0xx_HAL_Driver/Inc/stm32l0xx_ll_tim.h ****   */
 779:Drivers/STM32L0xx_HAL_Driver/Inc/stm32l0xx_ll_tim.h **** #define LL_TIM_TIM22_TI1_RMP_GPIO1  TIM22_OR_RMP_MASK                            /*!< TIM22_TI1 is 
 780:Drivers/STM32L0xx_HAL_Driver/Inc/stm32l0xx_ll_tim.h **** #define LL_TIM_TIM22_TI1_RMP_COMP2  (TIM22_OR_TI1_RMP_0 | TIM22_OR_RMP_MASK)     /*!< TIM22_TI1 is 
 781:Drivers/STM32L0xx_HAL_Driver/Inc/stm32l0xx_ll_tim.h **** #define LL_TIM_TIM22_TI1_RMP_COMP1  (TIM22_OR_TI1_RMP_1 | TIM22_OR_RMP_MASK)     /*!< TIM22_TI1 is 
 782:Drivers/STM32L0xx_HAL_Driver/Inc/stm32l0xx_ll_tim.h **** #define LL_TIM_TIM22_TI1_RMP_GPIO2  (TIM22_OR_TI1_RMP | TIM22_OR_RMP_MASK)       /*!< TIM22_TI1 is 
 783:Drivers/STM32L0xx_HAL_Driver/Inc/stm32l0xx_ll_tim.h **** /**
 784:Drivers/STM32L0xx_HAL_Driver/Inc/stm32l0xx_ll_tim.h ****   * @}
 785:Drivers/STM32L0xx_HAL_Driver/Inc/stm32l0xx_ll_tim.h ****   */
 786:Drivers/STM32L0xx_HAL_Driver/Inc/stm32l0xx_ll_tim.h **** #endif /* defined(TIM22_OR_TI1_RMP) */
 787:Drivers/STM32L0xx_HAL_Driver/Inc/stm32l0xx_ll_tim.h **** 
 788:Drivers/STM32L0xx_HAL_Driver/Inc/stm32l0xx_ll_tim.h **** 
 789:Drivers/STM32L0xx_HAL_Driver/Inc/stm32l0xx_ll_tim.h **** /**
 790:Drivers/STM32L0xx_HAL_Driver/Inc/stm32l0xx_ll_tim.h ****   * @}
 791:Drivers/STM32L0xx_HAL_Driver/Inc/stm32l0xx_ll_tim.h ****   */
 792:Drivers/STM32L0xx_HAL_Driver/Inc/stm32l0xx_ll_tim.h **** 
 793:Drivers/STM32L0xx_HAL_Driver/Inc/stm32l0xx_ll_tim.h **** /* Exported macro ------------------------------------------------------------*/
 794:Drivers/STM32L0xx_HAL_Driver/Inc/stm32l0xx_ll_tim.h **** /** @defgroup TIM_LL_Exported_Macros TIM Exported Macros
 795:Drivers/STM32L0xx_HAL_Driver/Inc/stm32l0xx_ll_tim.h ****   * @{
 796:Drivers/STM32L0xx_HAL_Driver/Inc/stm32l0xx_ll_tim.h ****   */
 797:Drivers/STM32L0xx_HAL_Driver/Inc/stm32l0xx_ll_tim.h **** 
 798:Drivers/STM32L0xx_HAL_Driver/Inc/stm32l0xx_ll_tim.h **** /** @defgroup TIM_LL_EM_WRITE_READ Common Write and read registers Macros
 799:Drivers/STM32L0xx_HAL_Driver/Inc/stm32l0xx_ll_tim.h ****   * @{
 800:Drivers/STM32L0xx_HAL_Driver/Inc/stm32l0xx_ll_tim.h ****   */
 801:Drivers/STM32L0xx_HAL_Driver/Inc/stm32l0xx_ll_tim.h **** /**
 802:Drivers/STM32L0xx_HAL_Driver/Inc/stm32l0xx_ll_tim.h ****   * @brief  Write a value in TIM register.
 803:Drivers/STM32L0xx_HAL_Driver/Inc/stm32l0xx_ll_tim.h ****   * @param  __INSTANCE__ TIM Instance
 804:Drivers/STM32L0xx_HAL_Driver/Inc/stm32l0xx_ll_tim.h ****   * @param  __REG__ Register to be written
 805:Drivers/STM32L0xx_HAL_Driver/Inc/stm32l0xx_ll_tim.h ****   * @param  __VALUE__ Value to be written in the register
 806:Drivers/STM32L0xx_HAL_Driver/Inc/stm32l0xx_ll_tim.h ****   * @retval None
 807:Drivers/STM32L0xx_HAL_Driver/Inc/stm32l0xx_ll_tim.h ****   */
 808:Drivers/STM32L0xx_HAL_Driver/Inc/stm32l0xx_ll_tim.h **** #define LL_TIM_WriteReg(__INSTANCE__, __REG__, __VALUE__) WRITE_REG((__INSTANCE__)->__REG__, (__VAL
 809:Drivers/STM32L0xx_HAL_Driver/Inc/stm32l0xx_ll_tim.h **** 
 810:Drivers/STM32L0xx_HAL_Driver/Inc/stm32l0xx_ll_tim.h **** /**
 811:Drivers/STM32L0xx_HAL_Driver/Inc/stm32l0xx_ll_tim.h ****   * @brief  Read a value in TIM register.
 812:Drivers/STM32L0xx_HAL_Driver/Inc/stm32l0xx_ll_tim.h ****   * @param  __INSTANCE__ TIM Instance
 813:Drivers/STM32L0xx_HAL_Driver/Inc/stm32l0xx_ll_tim.h ****   * @param  __REG__ Register to be read
ARM GAS  /tmp/ccr6mobF.s 			page 40


 814:Drivers/STM32L0xx_HAL_Driver/Inc/stm32l0xx_ll_tim.h ****   * @retval Register value
 815:Drivers/STM32L0xx_HAL_Driver/Inc/stm32l0xx_ll_tim.h ****   */
 816:Drivers/STM32L0xx_HAL_Driver/Inc/stm32l0xx_ll_tim.h **** #define LL_TIM_ReadReg(__INSTANCE__, __REG__) READ_REG((__INSTANCE__)->__REG__)
 817:Drivers/STM32L0xx_HAL_Driver/Inc/stm32l0xx_ll_tim.h **** /**
 818:Drivers/STM32L0xx_HAL_Driver/Inc/stm32l0xx_ll_tim.h ****   * @}
 819:Drivers/STM32L0xx_HAL_Driver/Inc/stm32l0xx_ll_tim.h ****   */
 820:Drivers/STM32L0xx_HAL_Driver/Inc/stm32l0xx_ll_tim.h **** 
 821:Drivers/STM32L0xx_HAL_Driver/Inc/stm32l0xx_ll_tim.h **** /** @defgroup TIM_LL_EM_Exported_Macros Exported_Macros
 822:Drivers/STM32L0xx_HAL_Driver/Inc/stm32l0xx_ll_tim.h ****   * @{
 823:Drivers/STM32L0xx_HAL_Driver/Inc/stm32l0xx_ll_tim.h ****   */
 824:Drivers/STM32L0xx_HAL_Driver/Inc/stm32l0xx_ll_tim.h **** 
 825:Drivers/STM32L0xx_HAL_Driver/Inc/stm32l0xx_ll_tim.h **** /**
 826:Drivers/STM32L0xx_HAL_Driver/Inc/stm32l0xx_ll_tim.h ****   * @brief  HELPER macro calculating the prescaler value to achieve the required counter clock freq
 827:Drivers/STM32L0xx_HAL_Driver/Inc/stm32l0xx_ll_tim.h ****   * @note ex: @ref __LL_TIM_CALC_PSC (80000000, 1000000);
 828:Drivers/STM32L0xx_HAL_Driver/Inc/stm32l0xx_ll_tim.h ****   * @param  __TIMCLK__ timer input clock frequency (in Hz)
 829:Drivers/STM32L0xx_HAL_Driver/Inc/stm32l0xx_ll_tim.h ****   * @param  __CNTCLK__ counter clock frequency (in Hz)
 830:Drivers/STM32L0xx_HAL_Driver/Inc/stm32l0xx_ll_tim.h ****   * @retval Prescaler value  (between Min_Data=0 and Max_Data=65535)
 831:Drivers/STM32L0xx_HAL_Driver/Inc/stm32l0xx_ll_tim.h ****   */
 832:Drivers/STM32L0xx_HAL_Driver/Inc/stm32l0xx_ll_tim.h **** #define __LL_TIM_CALC_PSC(__TIMCLK__, __CNTCLK__)   \
 833:Drivers/STM32L0xx_HAL_Driver/Inc/stm32l0xx_ll_tim.h ****   (((__TIMCLK__) >= (__CNTCLK__)) ? (uint32_t)(((__TIMCLK__)/(__CNTCLK__)) - 1U) : 0U)
 834:Drivers/STM32L0xx_HAL_Driver/Inc/stm32l0xx_ll_tim.h **** 
 835:Drivers/STM32L0xx_HAL_Driver/Inc/stm32l0xx_ll_tim.h **** /**
 836:Drivers/STM32L0xx_HAL_Driver/Inc/stm32l0xx_ll_tim.h ****   * @brief  HELPER macro calculating the auto-reload value to achieve the required output signal fr
 837:Drivers/STM32L0xx_HAL_Driver/Inc/stm32l0xx_ll_tim.h ****   * @note ex: @ref __LL_TIM_CALC_ARR (1000000, @ref LL_TIM_GetPrescaler (), 10000);
 838:Drivers/STM32L0xx_HAL_Driver/Inc/stm32l0xx_ll_tim.h ****   * @param  __TIMCLK__ timer input clock frequency (in Hz)
 839:Drivers/STM32L0xx_HAL_Driver/Inc/stm32l0xx_ll_tim.h ****   * @param  __PSC__ prescaler
 840:Drivers/STM32L0xx_HAL_Driver/Inc/stm32l0xx_ll_tim.h ****   * @param  __FREQ__ output signal frequency (in Hz)
 841:Drivers/STM32L0xx_HAL_Driver/Inc/stm32l0xx_ll_tim.h ****   * @retval  Auto-reload value  (between Min_Data=0 and Max_Data=65535)
 842:Drivers/STM32L0xx_HAL_Driver/Inc/stm32l0xx_ll_tim.h ****   */
 843:Drivers/STM32L0xx_HAL_Driver/Inc/stm32l0xx_ll_tim.h **** #define __LL_TIM_CALC_ARR(__TIMCLK__, __PSC__, __FREQ__) \
 844:Drivers/STM32L0xx_HAL_Driver/Inc/stm32l0xx_ll_tim.h ****   ((((__TIMCLK__)/((__PSC__) + 1U)) >= (__FREQ__)) ? (((__TIMCLK__)/((__FREQ__) * ((__PSC__) + 1U))
 845:Drivers/STM32L0xx_HAL_Driver/Inc/stm32l0xx_ll_tim.h **** 
 846:Drivers/STM32L0xx_HAL_Driver/Inc/stm32l0xx_ll_tim.h **** /**
 847:Drivers/STM32L0xx_HAL_Driver/Inc/stm32l0xx_ll_tim.h ****   * @brief  HELPER macro calculating the compare value required to achieve the required timer outpu
 848:Drivers/STM32L0xx_HAL_Driver/Inc/stm32l0xx_ll_tim.h ****   *         active/inactive delay.
 849:Drivers/STM32L0xx_HAL_Driver/Inc/stm32l0xx_ll_tim.h ****   * @note ex: @ref __LL_TIM_CALC_DELAY (1000000, @ref LL_TIM_GetPrescaler (), 10);
 850:Drivers/STM32L0xx_HAL_Driver/Inc/stm32l0xx_ll_tim.h ****   * @param  __TIMCLK__ timer input clock frequency (in Hz)
 851:Drivers/STM32L0xx_HAL_Driver/Inc/stm32l0xx_ll_tim.h ****   * @param  __PSC__ prescaler
 852:Drivers/STM32L0xx_HAL_Driver/Inc/stm32l0xx_ll_tim.h ****   * @param  __DELAY__ timer output compare active/inactive delay (in us)
 853:Drivers/STM32L0xx_HAL_Driver/Inc/stm32l0xx_ll_tim.h ****   * @retval Compare value  (between Min_Data=0 and Max_Data=65535)
 854:Drivers/STM32L0xx_HAL_Driver/Inc/stm32l0xx_ll_tim.h ****   */
 855:Drivers/STM32L0xx_HAL_Driver/Inc/stm32l0xx_ll_tim.h **** #define __LL_TIM_CALC_DELAY(__TIMCLK__, __PSC__, __DELAY__)  \
 856:Drivers/STM32L0xx_HAL_Driver/Inc/stm32l0xx_ll_tim.h ****   ((uint32_t)(((uint64_t)(__TIMCLK__) * (uint64_t)(__DELAY__)) \
 857:Drivers/STM32L0xx_HAL_Driver/Inc/stm32l0xx_ll_tim.h ****               / ((uint64_t)1000000U * (uint64_t)((__PSC__) + 1U))))
 858:Drivers/STM32L0xx_HAL_Driver/Inc/stm32l0xx_ll_tim.h **** 
 859:Drivers/STM32L0xx_HAL_Driver/Inc/stm32l0xx_ll_tim.h **** /**
 860:Drivers/STM32L0xx_HAL_Driver/Inc/stm32l0xx_ll_tim.h ****   * @brief  HELPER macro calculating the auto-reload value to achieve the required pulse duration
 861:Drivers/STM32L0xx_HAL_Driver/Inc/stm32l0xx_ll_tim.h ****   *         (when the timer operates in one pulse mode).
 862:Drivers/STM32L0xx_HAL_Driver/Inc/stm32l0xx_ll_tim.h ****   * @note ex: @ref __LL_TIM_CALC_PULSE (1000000, @ref LL_TIM_GetPrescaler (), 10, 20);
 863:Drivers/STM32L0xx_HAL_Driver/Inc/stm32l0xx_ll_tim.h ****   * @param  __TIMCLK__ timer input clock frequency (in Hz)
 864:Drivers/STM32L0xx_HAL_Driver/Inc/stm32l0xx_ll_tim.h ****   * @param  __PSC__ prescaler
 865:Drivers/STM32L0xx_HAL_Driver/Inc/stm32l0xx_ll_tim.h ****   * @param  __DELAY__ timer output compare active/inactive delay (in us)
 866:Drivers/STM32L0xx_HAL_Driver/Inc/stm32l0xx_ll_tim.h ****   * @param  __PULSE__ pulse duration (in us)
 867:Drivers/STM32L0xx_HAL_Driver/Inc/stm32l0xx_ll_tim.h ****   * @retval Auto-reload value  (between Min_Data=0 and Max_Data=65535)
 868:Drivers/STM32L0xx_HAL_Driver/Inc/stm32l0xx_ll_tim.h ****   */
 869:Drivers/STM32L0xx_HAL_Driver/Inc/stm32l0xx_ll_tim.h **** #define __LL_TIM_CALC_PULSE(__TIMCLK__, __PSC__, __DELAY__, __PULSE__)  \
 870:Drivers/STM32L0xx_HAL_Driver/Inc/stm32l0xx_ll_tim.h ****   ((uint32_t)(__LL_TIM_CALC_DELAY((__TIMCLK__), (__PSC__), (__PULSE__)) \
ARM GAS  /tmp/ccr6mobF.s 			page 41


 871:Drivers/STM32L0xx_HAL_Driver/Inc/stm32l0xx_ll_tim.h ****               + __LL_TIM_CALC_DELAY((__TIMCLK__), (__PSC__), (__DELAY__))))
 872:Drivers/STM32L0xx_HAL_Driver/Inc/stm32l0xx_ll_tim.h **** 
 873:Drivers/STM32L0xx_HAL_Driver/Inc/stm32l0xx_ll_tim.h **** /**
 874:Drivers/STM32L0xx_HAL_Driver/Inc/stm32l0xx_ll_tim.h ****   * @brief  HELPER macro retrieving the ratio of the input capture prescaler
 875:Drivers/STM32L0xx_HAL_Driver/Inc/stm32l0xx_ll_tim.h ****   * @note ex: @ref __LL_TIM_GET_ICPSC_RATIO (@ref LL_TIM_IC_GetPrescaler ());
 876:Drivers/STM32L0xx_HAL_Driver/Inc/stm32l0xx_ll_tim.h ****   * @param  __ICPSC__ This parameter can be one of the following values:
 877:Drivers/STM32L0xx_HAL_Driver/Inc/stm32l0xx_ll_tim.h ****   *         @arg @ref LL_TIM_ICPSC_DIV1
 878:Drivers/STM32L0xx_HAL_Driver/Inc/stm32l0xx_ll_tim.h ****   *         @arg @ref LL_TIM_ICPSC_DIV2
 879:Drivers/STM32L0xx_HAL_Driver/Inc/stm32l0xx_ll_tim.h ****   *         @arg @ref LL_TIM_ICPSC_DIV4
 880:Drivers/STM32L0xx_HAL_Driver/Inc/stm32l0xx_ll_tim.h ****   *         @arg @ref LL_TIM_ICPSC_DIV8
 881:Drivers/STM32L0xx_HAL_Driver/Inc/stm32l0xx_ll_tim.h ****   * @retval Input capture prescaler ratio (1, 2, 4 or 8)
 882:Drivers/STM32L0xx_HAL_Driver/Inc/stm32l0xx_ll_tim.h ****   */
 883:Drivers/STM32L0xx_HAL_Driver/Inc/stm32l0xx_ll_tim.h **** #define __LL_TIM_GET_ICPSC_RATIO(__ICPSC__)  \
 884:Drivers/STM32L0xx_HAL_Driver/Inc/stm32l0xx_ll_tim.h ****   ((uint32_t)(0x01U << (((__ICPSC__) >> 16U) >> TIM_CCMR1_IC1PSC_Pos)))
 885:Drivers/STM32L0xx_HAL_Driver/Inc/stm32l0xx_ll_tim.h **** 
 886:Drivers/STM32L0xx_HAL_Driver/Inc/stm32l0xx_ll_tim.h **** 
 887:Drivers/STM32L0xx_HAL_Driver/Inc/stm32l0xx_ll_tim.h **** /**
 888:Drivers/STM32L0xx_HAL_Driver/Inc/stm32l0xx_ll_tim.h ****   * @}
 889:Drivers/STM32L0xx_HAL_Driver/Inc/stm32l0xx_ll_tim.h ****   */
 890:Drivers/STM32L0xx_HAL_Driver/Inc/stm32l0xx_ll_tim.h **** 
 891:Drivers/STM32L0xx_HAL_Driver/Inc/stm32l0xx_ll_tim.h **** 
 892:Drivers/STM32L0xx_HAL_Driver/Inc/stm32l0xx_ll_tim.h **** /**
 893:Drivers/STM32L0xx_HAL_Driver/Inc/stm32l0xx_ll_tim.h ****   * @}
 894:Drivers/STM32L0xx_HAL_Driver/Inc/stm32l0xx_ll_tim.h ****   */
 895:Drivers/STM32L0xx_HAL_Driver/Inc/stm32l0xx_ll_tim.h **** 
 896:Drivers/STM32L0xx_HAL_Driver/Inc/stm32l0xx_ll_tim.h **** /* Exported functions --------------------------------------------------------*/
 897:Drivers/STM32L0xx_HAL_Driver/Inc/stm32l0xx_ll_tim.h **** /** @defgroup TIM_LL_Exported_Functions TIM Exported Functions
 898:Drivers/STM32L0xx_HAL_Driver/Inc/stm32l0xx_ll_tim.h ****   * @{
 899:Drivers/STM32L0xx_HAL_Driver/Inc/stm32l0xx_ll_tim.h ****   */
 900:Drivers/STM32L0xx_HAL_Driver/Inc/stm32l0xx_ll_tim.h **** 
 901:Drivers/STM32L0xx_HAL_Driver/Inc/stm32l0xx_ll_tim.h **** /** @defgroup TIM_LL_EF_Time_Base Time Base configuration
 902:Drivers/STM32L0xx_HAL_Driver/Inc/stm32l0xx_ll_tim.h ****   * @{
 903:Drivers/STM32L0xx_HAL_Driver/Inc/stm32l0xx_ll_tim.h ****   */
 904:Drivers/STM32L0xx_HAL_Driver/Inc/stm32l0xx_ll_tim.h **** /**
 905:Drivers/STM32L0xx_HAL_Driver/Inc/stm32l0xx_ll_tim.h ****   * @brief  Enable timer counter.
 906:Drivers/STM32L0xx_HAL_Driver/Inc/stm32l0xx_ll_tim.h ****   * @rmtoll CR1          CEN           LL_TIM_EnableCounter
 907:Drivers/STM32L0xx_HAL_Driver/Inc/stm32l0xx_ll_tim.h ****   * @param  TIMx Timer instance
 908:Drivers/STM32L0xx_HAL_Driver/Inc/stm32l0xx_ll_tim.h ****   * @retval None
 909:Drivers/STM32L0xx_HAL_Driver/Inc/stm32l0xx_ll_tim.h ****   */
 910:Drivers/STM32L0xx_HAL_Driver/Inc/stm32l0xx_ll_tim.h **** __STATIC_INLINE void LL_TIM_EnableCounter(TIM_TypeDef *TIMx)
 911:Drivers/STM32L0xx_HAL_Driver/Inc/stm32l0xx_ll_tim.h **** {
 912:Drivers/STM32L0xx_HAL_Driver/Inc/stm32l0xx_ll_tim.h ****   SET_BIT(TIMx->CR1, TIM_CR1_CEN);
 913:Drivers/STM32L0xx_HAL_Driver/Inc/stm32l0xx_ll_tim.h **** }
 914:Drivers/STM32L0xx_HAL_Driver/Inc/stm32l0xx_ll_tim.h **** 
 915:Drivers/STM32L0xx_HAL_Driver/Inc/stm32l0xx_ll_tim.h **** /**
 916:Drivers/STM32L0xx_HAL_Driver/Inc/stm32l0xx_ll_tim.h ****   * @brief  Disable timer counter.
 917:Drivers/STM32L0xx_HAL_Driver/Inc/stm32l0xx_ll_tim.h ****   * @rmtoll CR1          CEN           LL_TIM_DisableCounter
 918:Drivers/STM32L0xx_HAL_Driver/Inc/stm32l0xx_ll_tim.h ****   * @param  TIMx Timer instance
 919:Drivers/STM32L0xx_HAL_Driver/Inc/stm32l0xx_ll_tim.h ****   * @retval None
 920:Drivers/STM32L0xx_HAL_Driver/Inc/stm32l0xx_ll_tim.h ****   */
 921:Drivers/STM32L0xx_HAL_Driver/Inc/stm32l0xx_ll_tim.h **** __STATIC_INLINE void LL_TIM_DisableCounter(TIM_TypeDef *TIMx)
 922:Drivers/STM32L0xx_HAL_Driver/Inc/stm32l0xx_ll_tim.h **** {
 923:Drivers/STM32L0xx_HAL_Driver/Inc/stm32l0xx_ll_tim.h ****   CLEAR_BIT(TIMx->CR1, TIM_CR1_CEN);
 924:Drivers/STM32L0xx_HAL_Driver/Inc/stm32l0xx_ll_tim.h **** }
 925:Drivers/STM32L0xx_HAL_Driver/Inc/stm32l0xx_ll_tim.h **** 
 926:Drivers/STM32L0xx_HAL_Driver/Inc/stm32l0xx_ll_tim.h **** /**
 927:Drivers/STM32L0xx_HAL_Driver/Inc/stm32l0xx_ll_tim.h ****   * @brief  Indicates whether the timer counter is enabled.
ARM GAS  /tmp/ccr6mobF.s 			page 42


 928:Drivers/STM32L0xx_HAL_Driver/Inc/stm32l0xx_ll_tim.h ****   * @rmtoll CR1          CEN           LL_TIM_IsEnabledCounter
 929:Drivers/STM32L0xx_HAL_Driver/Inc/stm32l0xx_ll_tim.h ****   * @param  TIMx Timer instance
 930:Drivers/STM32L0xx_HAL_Driver/Inc/stm32l0xx_ll_tim.h ****   * @retval State of bit (1 or 0).
 931:Drivers/STM32L0xx_HAL_Driver/Inc/stm32l0xx_ll_tim.h ****   */
 932:Drivers/STM32L0xx_HAL_Driver/Inc/stm32l0xx_ll_tim.h **** __STATIC_INLINE uint32_t LL_TIM_IsEnabledCounter(TIM_TypeDef *TIMx)
 933:Drivers/STM32L0xx_HAL_Driver/Inc/stm32l0xx_ll_tim.h **** {
 934:Drivers/STM32L0xx_HAL_Driver/Inc/stm32l0xx_ll_tim.h ****   return ((READ_BIT(TIMx->CR1, TIM_CR1_CEN) == (TIM_CR1_CEN)) ? 1UL : 0UL);
 935:Drivers/STM32L0xx_HAL_Driver/Inc/stm32l0xx_ll_tim.h **** }
 936:Drivers/STM32L0xx_HAL_Driver/Inc/stm32l0xx_ll_tim.h **** 
 937:Drivers/STM32L0xx_HAL_Driver/Inc/stm32l0xx_ll_tim.h **** /**
 938:Drivers/STM32L0xx_HAL_Driver/Inc/stm32l0xx_ll_tim.h ****   * @brief  Enable update event generation.
 939:Drivers/STM32L0xx_HAL_Driver/Inc/stm32l0xx_ll_tim.h ****   * @rmtoll CR1          UDIS          LL_TIM_EnableUpdateEvent
 940:Drivers/STM32L0xx_HAL_Driver/Inc/stm32l0xx_ll_tim.h ****   * @param  TIMx Timer instance
 941:Drivers/STM32L0xx_HAL_Driver/Inc/stm32l0xx_ll_tim.h ****   * @retval None
 942:Drivers/STM32L0xx_HAL_Driver/Inc/stm32l0xx_ll_tim.h ****   */
 943:Drivers/STM32L0xx_HAL_Driver/Inc/stm32l0xx_ll_tim.h **** __STATIC_INLINE void LL_TIM_EnableUpdateEvent(TIM_TypeDef *TIMx)
 944:Drivers/STM32L0xx_HAL_Driver/Inc/stm32l0xx_ll_tim.h **** {
 945:Drivers/STM32L0xx_HAL_Driver/Inc/stm32l0xx_ll_tim.h ****   CLEAR_BIT(TIMx->CR1, TIM_CR1_UDIS);
 946:Drivers/STM32L0xx_HAL_Driver/Inc/stm32l0xx_ll_tim.h **** }
 947:Drivers/STM32L0xx_HAL_Driver/Inc/stm32l0xx_ll_tim.h **** 
 948:Drivers/STM32L0xx_HAL_Driver/Inc/stm32l0xx_ll_tim.h **** /**
 949:Drivers/STM32L0xx_HAL_Driver/Inc/stm32l0xx_ll_tim.h ****   * @brief  Disable update event generation.
 950:Drivers/STM32L0xx_HAL_Driver/Inc/stm32l0xx_ll_tim.h ****   * @rmtoll CR1          UDIS          LL_TIM_DisableUpdateEvent
 951:Drivers/STM32L0xx_HAL_Driver/Inc/stm32l0xx_ll_tim.h ****   * @param  TIMx Timer instance
 952:Drivers/STM32L0xx_HAL_Driver/Inc/stm32l0xx_ll_tim.h ****   * @retval None
 953:Drivers/STM32L0xx_HAL_Driver/Inc/stm32l0xx_ll_tim.h ****   */
 954:Drivers/STM32L0xx_HAL_Driver/Inc/stm32l0xx_ll_tim.h **** __STATIC_INLINE void LL_TIM_DisableUpdateEvent(TIM_TypeDef *TIMx)
 955:Drivers/STM32L0xx_HAL_Driver/Inc/stm32l0xx_ll_tim.h **** {
 956:Drivers/STM32L0xx_HAL_Driver/Inc/stm32l0xx_ll_tim.h ****   SET_BIT(TIMx->CR1, TIM_CR1_UDIS);
 957:Drivers/STM32L0xx_HAL_Driver/Inc/stm32l0xx_ll_tim.h **** }
 958:Drivers/STM32L0xx_HAL_Driver/Inc/stm32l0xx_ll_tim.h **** 
 959:Drivers/STM32L0xx_HAL_Driver/Inc/stm32l0xx_ll_tim.h **** /**
 960:Drivers/STM32L0xx_HAL_Driver/Inc/stm32l0xx_ll_tim.h ****   * @brief  Indicates whether update event generation is enabled.
 961:Drivers/STM32L0xx_HAL_Driver/Inc/stm32l0xx_ll_tim.h ****   * @rmtoll CR1          UDIS          LL_TIM_IsEnabledUpdateEvent
 962:Drivers/STM32L0xx_HAL_Driver/Inc/stm32l0xx_ll_tim.h ****   * @param  TIMx Timer instance
 963:Drivers/STM32L0xx_HAL_Driver/Inc/stm32l0xx_ll_tim.h ****   * @retval Inverted state of bit (0 or 1).
 964:Drivers/STM32L0xx_HAL_Driver/Inc/stm32l0xx_ll_tim.h ****   */
 965:Drivers/STM32L0xx_HAL_Driver/Inc/stm32l0xx_ll_tim.h **** __STATIC_INLINE uint32_t LL_TIM_IsEnabledUpdateEvent(TIM_TypeDef *TIMx)
 966:Drivers/STM32L0xx_HAL_Driver/Inc/stm32l0xx_ll_tim.h **** {
 967:Drivers/STM32L0xx_HAL_Driver/Inc/stm32l0xx_ll_tim.h ****   return ((READ_BIT(TIMx->CR1, TIM_CR1_UDIS) == (uint32_t)RESET) ? 1UL : 0UL);
 968:Drivers/STM32L0xx_HAL_Driver/Inc/stm32l0xx_ll_tim.h **** }
 969:Drivers/STM32L0xx_HAL_Driver/Inc/stm32l0xx_ll_tim.h **** 
 970:Drivers/STM32L0xx_HAL_Driver/Inc/stm32l0xx_ll_tim.h **** /**
 971:Drivers/STM32L0xx_HAL_Driver/Inc/stm32l0xx_ll_tim.h ****   * @brief  Set update event source
 972:Drivers/STM32L0xx_HAL_Driver/Inc/stm32l0xx_ll_tim.h ****   * @note Update event source set to LL_TIM_UPDATESOURCE_REGULAR: any of the following events
 973:Drivers/STM32L0xx_HAL_Driver/Inc/stm32l0xx_ll_tim.h ****   *       generate an update interrupt or DMA request if enabled:
 974:Drivers/STM32L0xx_HAL_Driver/Inc/stm32l0xx_ll_tim.h ****   *        - Counter overflow/underflow
 975:Drivers/STM32L0xx_HAL_Driver/Inc/stm32l0xx_ll_tim.h ****   *        - Setting the UG bit
 976:Drivers/STM32L0xx_HAL_Driver/Inc/stm32l0xx_ll_tim.h ****   *        - Update generation through the slave mode controller
 977:Drivers/STM32L0xx_HAL_Driver/Inc/stm32l0xx_ll_tim.h ****   * @note Update event source set to LL_TIM_UPDATESOURCE_COUNTER: only counter
 978:Drivers/STM32L0xx_HAL_Driver/Inc/stm32l0xx_ll_tim.h ****   *       overflow/underflow generates an update interrupt or DMA request if enabled.
 979:Drivers/STM32L0xx_HAL_Driver/Inc/stm32l0xx_ll_tim.h ****   * @rmtoll CR1          URS           LL_TIM_SetUpdateSource
 980:Drivers/STM32L0xx_HAL_Driver/Inc/stm32l0xx_ll_tim.h ****   * @param  TIMx Timer instance
 981:Drivers/STM32L0xx_HAL_Driver/Inc/stm32l0xx_ll_tim.h ****   * @param  UpdateSource This parameter can be one of the following values:
 982:Drivers/STM32L0xx_HAL_Driver/Inc/stm32l0xx_ll_tim.h ****   *         @arg @ref LL_TIM_UPDATESOURCE_REGULAR
 983:Drivers/STM32L0xx_HAL_Driver/Inc/stm32l0xx_ll_tim.h ****   *         @arg @ref LL_TIM_UPDATESOURCE_COUNTER
 984:Drivers/STM32L0xx_HAL_Driver/Inc/stm32l0xx_ll_tim.h ****   * @retval None
ARM GAS  /tmp/ccr6mobF.s 			page 43


 985:Drivers/STM32L0xx_HAL_Driver/Inc/stm32l0xx_ll_tim.h ****   */
 986:Drivers/STM32L0xx_HAL_Driver/Inc/stm32l0xx_ll_tim.h **** __STATIC_INLINE void LL_TIM_SetUpdateSource(TIM_TypeDef *TIMx, uint32_t UpdateSource)
 987:Drivers/STM32L0xx_HAL_Driver/Inc/stm32l0xx_ll_tim.h **** {
 988:Drivers/STM32L0xx_HAL_Driver/Inc/stm32l0xx_ll_tim.h ****   MODIFY_REG(TIMx->CR1, TIM_CR1_URS, UpdateSource);
 989:Drivers/STM32L0xx_HAL_Driver/Inc/stm32l0xx_ll_tim.h **** }
 990:Drivers/STM32L0xx_HAL_Driver/Inc/stm32l0xx_ll_tim.h **** 
 991:Drivers/STM32L0xx_HAL_Driver/Inc/stm32l0xx_ll_tim.h **** /**
 992:Drivers/STM32L0xx_HAL_Driver/Inc/stm32l0xx_ll_tim.h ****   * @brief  Get actual event update source
 993:Drivers/STM32L0xx_HAL_Driver/Inc/stm32l0xx_ll_tim.h ****   * @rmtoll CR1          URS           LL_TIM_GetUpdateSource
 994:Drivers/STM32L0xx_HAL_Driver/Inc/stm32l0xx_ll_tim.h ****   * @param  TIMx Timer instance
 995:Drivers/STM32L0xx_HAL_Driver/Inc/stm32l0xx_ll_tim.h ****   * @retval Returned value can be one of the following values:
 996:Drivers/STM32L0xx_HAL_Driver/Inc/stm32l0xx_ll_tim.h ****   *         @arg @ref LL_TIM_UPDATESOURCE_REGULAR
 997:Drivers/STM32L0xx_HAL_Driver/Inc/stm32l0xx_ll_tim.h ****   *         @arg @ref LL_TIM_UPDATESOURCE_COUNTER
 998:Drivers/STM32L0xx_HAL_Driver/Inc/stm32l0xx_ll_tim.h ****   */
 999:Drivers/STM32L0xx_HAL_Driver/Inc/stm32l0xx_ll_tim.h **** __STATIC_INLINE uint32_t LL_TIM_GetUpdateSource(TIM_TypeDef *TIMx)
1000:Drivers/STM32L0xx_HAL_Driver/Inc/stm32l0xx_ll_tim.h **** {
1001:Drivers/STM32L0xx_HAL_Driver/Inc/stm32l0xx_ll_tim.h ****   return (uint32_t)(READ_BIT(TIMx->CR1, TIM_CR1_URS));
1002:Drivers/STM32L0xx_HAL_Driver/Inc/stm32l0xx_ll_tim.h **** }
1003:Drivers/STM32L0xx_HAL_Driver/Inc/stm32l0xx_ll_tim.h **** 
1004:Drivers/STM32L0xx_HAL_Driver/Inc/stm32l0xx_ll_tim.h **** /**
1005:Drivers/STM32L0xx_HAL_Driver/Inc/stm32l0xx_ll_tim.h ****   * @brief  Set one pulse mode (one shot v.s. repetitive).
1006:Drivers/STM32L0xx_HAL_Driver/Inc/stm32l0xx_ll_tim.h ****   * @rmtoll CR1          OPM           LL_TIM_SetOnePulseMode
1007:Drivers/STM32L0xx_HAL_Driver/Inc/stm32l0xx_ll_tim.h ****   * @param  TIMx Timer instance
1008:Drivers/STM32L0xx_HAL_Driver/Inc/stm32l0xx_ll_tim.h ****   * @param  OnePulseMode This parameter can be one of the following values:
1009:Drivers/STM32L0xx_HAL_Driver/Inc/stm32l0xx_ll_tim.h ****   *         @arg @ref LL_TIM_ONEPULSEMODE_SINGLE
1010:Drivers/STM32L0xx_HAL_Driver/Inc/stm32l0xx_ll_tim.h ****   *         @arg @ref LL_TIM_ONEPULSEMODE_REPETITIVE
1011:Drivers/STM32L0xx_HAL_Driver/Inc/stm32l0xx_ll_tim.h ****   * @retval None
1012:Drivers/STM32L0xx_HAL_Driver/Inc/stm32l0xx_ll_tim.h ****   */
1013:Drivers/STM32L0xx_HAL_Driver/Inc/stm32l0xx_ll_tim.h **** __STATIC_INLINE void LL_TIM_SetOnePulseMode(TIM_TypeDef *TIMx, uint32_t OnePulseMode)
1014:Drivers/STM32L0xx_HAL_Driver/Inc/stm32l0xx_ll_tim.h **** {
1015:Drivers/STM32L0xx_HAL_Driver/Inc/stm32l0xx_ll_tim.h ****   MODIFY_REG(TIMx->CR1, TIM_CR1_OPM, OnePulseMode);
1016:Drivers/STM32L0xx_HAL_Driver/Inc/stm32l0xx_ll_tim.h **** }
1017:Drivers/STM32L0xx_HAL_Driver/Inc/stm32l0xx_ll_tim.h **** 
1018:Drivers/STM32L0xx_HAL_Driver/Inc/stm32l0xx_ll_tim.h **** /**
1019:Drivers/STM32L0xx_HAL_Driver/Inc/stm32l0xx_ll_tim.h ****   * @brief  Get actual one pulse mode.
1020:Drivers/STM32L0xx_HAL_Driver/Inc/stm32l0xx_ll_tim.h ****   * @rmtoll CR1          OPM           LL_TIM_GetOnePulseMode
1021:Drivers/STM32L0xx_HAL_Driver/Inc/stm32l0xx_ll_tim.h ****   * @param  TIMx Timer instance
1022:Drivers/STM32L0xx_HAL_Driver/Inc/stm32l0xx_ll_tim.h ****   * @retval Returned value can be one of the following values:
1023:Drivers/STM32L0xx_HAL_Driver/Inc/stm32l0xx_ll_tim.h ****   *         @arg @ref LL_TIM_ONEPULSEMODE_SINGLE
1024:Drivers/STM32L0xx_HAL_Driver/Inc/stm32l0xx_ll_tim.h ****   *         @arg @ref LL_TIM_ONEPULSEMODE_REPETITIVE
1025:Drivers/STM32L0xx_HAL_Driver/Inc/stm32l0xx_ll_tim.h ****   */
1026:Drivers/STM32L0xx_HAL_Driver/Inc/stm32l0xx_ll_tim.h **** __STATIC_INLINE uint32_t LL_TIM_GetOnePulseMode(TIM_TypeDef *TIMx)
1027:Drivers/STM32L0xx_HAL_Driver/Inc/stm32l0xx_ll_tim.h **** {
1028:Drivers/STM32L0xx_HAL_Driver/Inc/stm32l0xx_ll_tim.h ****   return (uint32_t)(READ_BIT(TIMx->CR1, TIM_CR1_OPM));
1029:Drivers/STM32L0xx_HAL_Driver/Inc/stm32l0xx_ll_tim.h **** }
1030:Drivers/STM32L0xx_HAL_Driver/Inc/stm32l0xx_ll_tim.h **** 
1031:Drivers/STM32L0xx_HAL_Driver/Inc/stm32l0xx_ll_tim.h **** /**
1032:Drivers/STM32L0xx_HAL_Driver/Inc/stm32l0xx_ll_tim.h ****   * @brief  Set the timer counter counting mode.
1033:Drivers/STM32L0xx_HAL_Driver/Inc/stm32l0xx_ll_tim.h ****   * @note Macro IS_TIM_COUNTER_MODE_SELECT_INSTANCE(TIMx) can be used to
1034:Drivers/STM32L0xx_HAL_Driver/Inc/stm32l0xx_ll_tim.h ****   *       check whether or not the counter mode selection feature is supported
1035:Drivers/STM32L0xx_HAL_Driver/Inc/stm32l0xx_ll_tim.h ****   *       by a timer instance.
1036:Drivers/STM32L0xx_HAL_Driver/Inc/stm32l0xx_ll_tim.h ****   * @note Switching from Center Aligned counter mode to Edge counter mode (or reverse)
1037:Drivers/STM32L0xx_HAL_Driver/Inc/stm32l0xx_ll_tim.h ****   *       requires a timer reset to avoid unexpected direction
1038:Drivers/STM32L0xx_HAL_Driver/Inc/stm32l0xx_ll_tim.h ****   *       due to DIR bit readonly in center aligned mode.
1039:Drivers/STM32L0xx_HAL_Driver/Inc/stm32l0xx_ll_tim.h ****   * @rmtoll CR1          DIR           LL_TIM_SetCounterMode\n
1040:Drivers/STM32L0xx_HAL_Driver/Inc/stm32l0xx_ll_tim.h ****   *         CR1          CMS           LL_TIM_SetCounterMode
1041:Drivers/STM32L0xx_HAL_Driver/Inc/stm32l0xx_ll_tim.h ****   * @param  TIMx Timer instance
ARM GAS  /tmp/ccr6mobF.s 			page 44


1042:Drivers/STM32L0xx_HAL_Driver/Inc/stm32l0xx_ll_tim.h ****   * @param  CounterMode This parameter can be one of the following values:
1043:Drivers/STM32L0xx_HAL_Driver/Inc/stm32l0xx_ll_tim.h ****   *         @arg @ref LL_TIM_COUNTERMODE_UP
1044:Drivers/STM32L0xx_HAL_Driver/Inc/stm32l0xx_ll_tim.h ****   *         @arg @ref LL_TIM_COUNTERMODE_DOWN
1045:Drivers/STM32L0xx_HAL_Driver/Inc/stm32l0xx_ll_tim.h ****   *         @arg @ref LL_TIM_COUNTERMODE_CENTER_UP
1046:Drivers/STM32L0xx_HAL_Driver/Inc/stm32l0xx_ll_tim.h ****   *         @arg @ref LL_TIM_COUNTERMODE_CENTER_DOWN
1047:Drivers/STM32L0xx_HAL_Driver/Inc/stm32l0xx_ll_tim.h ****   *         @arg @ref LL_TIM_COUNTERMODE_CENTER_UP_DOWN
1048:Drivers/STM32L0xx_HAL_Driver/Inc/stm32l0xx_ll_tim.h ****   * @retval None
1049:Drivers/STM32L0xx_HAL_Driver/Inc/stm32l0xx_ll_tim.h ****   */
1050:Drivers/STM32L0xx_HAL_Driver/Inc/stm32l0xx_ll_tim.h **** __STATIC_INLINE void LL_TIM_SetCounterMode(TIM_TypeDef *TIMx, uint32_t CounterMode)
1051:Drivers/STM32L0xx_HAL_Driver/Inc/stm32l0xx_ll_tim.h **** {
1052:Drivers/STM32L0xx_HAL_Driver/Inc/stm32l0xx_ll_tim.h ****   MODIFY_REG(TIMx->CR1, (TIM_CR1_DIR | TIM_CR1_CMS), CounterMode);
1053:Drivers/STM32L0xx_HAL_Driver/Inc/stm32l0xx_ll_tim.h **** }
1054:Drivers/STM32L0xx_HAL_Driver/Inc/stm32l0xx_ll_tim.h **** 
1055:Drivers/STM32L0xx_HAL_Driver/Inc/stm32l0xx_ll_tim.h **** /**
1056:Drivers/STM32L0xx_HAL_Driver/Inc/stm32l0xx_ll_tim.h ****   * @brief  Get actual counter mode.
1057:Drivers/STM32L0xx_HAL_Driver/Inc/stm32l0xx_ll_tim.h ****   * @note Macro IS_TIM_COUNTER_MODE_SELECT_INSTANCE(TIMx) can be used to
1058:Drivers/STM32L0xx_HAL_Driver/Inc/stm32l0xx_ll_tim.h ****   *       check whether or not the counter mode selection feature is supported
1059:Drivers/STM32L0xx_HAL_Driver/Inc/stm32l0xx_ll_tim.h ****   *       by a timer instance.
1060:Drivers/STM32L0xx_HAL_Driver/Inc/stm32l0xx_ll_tim.h ****   * @rmtoll CR1          DIR           LL_TIM_GetCounterMode\n
1061:Drivers/STM32L0xx_HAL_Driver/Inc/stm32l0xx_ll_tim.h ****   *         CR1          CMS           LL_TIM_GetCounterMode
1062:Drivers/STM32L0xx_HAL_Driver/Inc/stm32l0xx_ll_tim.h ****   * @param  TIMx Timer instance
1063:Drivers/STM32L0xx_HAL_Driver/Inc/stm32l0xx_ll_tim.h ****   * @retval Returned value can be one of the following values:
1064:Drivers/STM32L0xx_HAL_Driver/Inc/stm32l0xx_ll_tim.h ****   *         @arg @ref LL_TIM_COUNTERMODE_UP
1065:Drivers/STM32L0xx_HAL_Driver/Inc/stm32l0xx_ll_tim.h ****   *         @arg @ref LL_TIM_COUNTERMODE_DOWN
1066:Drivers/STM32L0xx_HAL_Driver/Inc/stm32l0xx_ll_tim.h ****   *         @arg @ref LL_TIM_COUNTERMODE_CENTER_UP
1067:Drivers/STM32L0xx_HAL_Driver/Inc/stm32l0xx_ll_tim.h ****   *         @arg @ref LL_TIM_COUNTERMODE_CENTER_DOWN
1068:Drivers/STM32L0xx_HAL_Driver/Inc/stm32l0xx_ll_tim.h ****   *         @arg @ref LL_TIM_COUNTERMODE_CENTER_UP_DOWN
1069:Drivers/STM32L0xx_HAL_Driver/Inc/stm32l0xx_ll_tim.h ****   */
1070:Drivers/STM32L0xx_HAL_Driver/Inc/stm32l0xx_ll_tim.h **** __STATIC_INLINE uint32_t LL_TIM_GetCounterMode(TIM_TypeDef *TIMx)
1071:Drivers/STM32L0xx_HAL_Driver/Inc/stm32l0xx_ll_tim.h **** {
1072:Drivers/STM32L0xx_HAL_Driver/Inc/stm32l0xx_ll_tim.h ****   uint32_t counter_mode;
1073:Drivers/STM32L0xx_HAL_Driver/Inc/stm32l0xx_ll_tim.h **** 
1074:Drivers/STM32L0xx_HAL_Driver/Inc/stm32l0xx_ll_tim.h ****   counter_mode = (uint32_t)(READ_BIT(TIMx->CR1, TIM_CR1_CMS));
1075:Drivers/STM32L0xx_HAL_Driver/Inc/stm32l0xx_ll_tim.h **** 
1076:Drivers/STM32L0xx_HAL_Driver/Inc/stm32l0xx_ll_tim.h ****   if (counter_mode == 0U)
1077:Drivers/STM32L0xx_HAL_Driver/Inc/stm32l0xx_ll_tim.h ****   {
1078:Drivers/STM32L0xx_HAL_Driver/Inc/stm32l0xx_ll_tim.h ****     counter_mode = (uint32_t)(READ_BIT(TIMx->CR1, TIM_CR1_DIR));
1079:Drivers/STM32L0xx_HAL_Driver/Inc/stm32l0xx_ll_tim.h ****   }
1080:Drivers/STM32L0xx_HAL_Driver/Inc/stm32l0xx_ll_tim.h **** 
1081:Drivers/STM32L0xx_HAL_Driver/Inc/stm32l0xx_ll_tim.h ****   return counter_mode;
1082:Drivers/STM32L0xx_HAL_Driver/Inc/stm32l0xx_ll_tim.h **** }
1083:Drivers/STM32L0xx_HAL_Driver/Inc/stm32l0xx_ll_tim.h **** 
1084:Drivers/STM32L0xx_HAL_Driver/Inc/stm32l0xx_ll_tim.h **** /**
1085:Drivers/STM32L0xx_HAL_Driver/Inc/stm32l0xx_ll_tim.h ****   * @brief  Enable auto-reload (ARR) preload.
1086:Drivers/STM32L0xx_HAL_Driver/Inc/stm32l0xx_ll_tim.h ****   * @rmtoll CR1          ARPE          LL_TIM_EnableARRPreload
1087:Drivers/STM32L0xx_HAL_Driver/Inc/stm32l0xx_ll_tim.h ****   * @param  TIMx Timer instance
1088:Drivers/STM32L0xx_HAL_Driver/Inc/stm32l0xx_ll_tim.h ****   * @retval None
1089:Drivers/STM32L0xx_HAL_Driver/Inc/stm32l0xx_ll_tim.h ****   */
1090:Drivers/STM32L0xx_HAL_Driver/Inc/stm32l0xx_ll_tim.h **** __STATIC_INLINE void LL_TIM_EnableARRPreload(TIM_TypeDef *TIMx)
1091:Drivers/STM32L0xx_HAL_Driver/Inc/stm32l0xx_ll_tim.h **** {
1092:Drivers/STM32L0xx_HAL_Driver/Inc/stm32l0xx_ll_tim.h ****   SET_BIT(TIMx->CR1, TIM_CR1_ARPE);
1093:Drivers/STM32L0xx_HAL_Driver/Inc/stm32l0xx_ll_tim.h **** }
1094:Drivers/STM32L0xx_HAL_Driver/Inc/stm32l0xx_ll_tim.h **** 
1095:Drivers/STM32L0xx_HAL_Driver/Inc/stm32l0xx_ll_tim.h **** /**
1096:Drivers/STM32L0xx_HAL_Driver/Inc/stm32l0xx_ll_tim.h ****   * @brief  Disable auto-reload (ARR) preload.
1097:Drivers/STM32L0xx_HAL_Driver/Inc/stm32l0xx_ll_tim.h ****   * @rmtoll CR1          ARPE          LL_TIM_DisableARRPreload
1098:Drivers/STM32L0xx_HAL_Driver/Inc/stm32l0xx_ll_tim.h ****   * @param  TIMx Timer instance
ARM GAS  /tmp/ccr6mobF.s 			page 45


1099:Drivers/STM32L0xx_HAL_Driver/Inc/stm32l0xx_ll_tim.h ****   * @retval None
1100:Drivers/STM32L0xx_HAL_Driver/Inc/stm32l0xx_ll_tim.h ****   */
1101:Drivers/STM32L0xx_HAL_Driver/Inc/stm32l0xx_ll_tim.h **** __STATIC_INLINE void LL_TIM_DisableARRPreload(TIM_TypeDef *TIMx)
1102:Drivers/STM32L0xx_HAL_Driver/Inc/stm32l0xx_ll_tim.h **** {
1103:Drivers/STM32L0xx_HAL_Driver/Inc/stm32l0xx_ll_tim.h ****   CLEAR_BIT(TIMx->CR1, TIM_CR1_ARPE);
1104:Drivers/STM32L0xx_HAL_Driver/Inc/stm32l0xx_ll_tim.h **** }
1105:Drivers/STM32L0xx_HAL_Driver/Inc/stm32l0xx_ll_tim.h **** 
1106:Drivers/STM32L0xx_HAL_Driver/Inc/stm32l0xx_ll_tim.h **** /**
1107:Drivers/STM32L0xx_HAL_Driver/Inc/stm32l0xx_ll_tim.h ****   * @brief  Indicates whether auto-reload (ARR) preload is enabled.
1108:Drivers/STM32L0xx_HAL_Driver/Inc/stm32l0xx_ll_tim.h ****   * @rmtoll CR1          ARPE          LL_TIM_IsEnabledARRPreload
1109:Drivers/STM32L0xx_HAL_Driver/Inc/stm32l0xx_ll_tim.h ****   * @param  TIMx Timer instance
1110:Drivers/STM32L0xx_HAL_Driver/Inc/stm32l0xx_ll_tim.h ****   * @retval State of bit (1 or 0).
1111:Drivers/STM32L0xx_HAL_Driver/Inc/stm32l0xx_ll_tim.h ****   */
1112:Drivers/STM32L0xx_HAL_Driver/Inc/stm32l0xx_ll_tim.h **** __STATIC_INLINE uint32_t LL_TIM_IsEnabledARRPreload(TIM_TypeDef *TIMx)
1113:Drivers/STM32L0xx_HAL_Driver/Inc/stm32l0xx_ll_tim.h **** {
1114:Drivers/STM32L0xx_HAL_Driver/Inc/stm32l0xx_ll_tim.h ****   return ((READ_BIT(TIMx->CR1, TIM_CR1_ARPE) == (TIM_CR1_ARPE)) ? 1UL : 0UL);
1115:Drivers/STM32L0xx_HAL_Driver/Inc/stm32l0xx_ll_tim.h **** }
1116:Drivers/STM32L0xx_HAL_Driver/Inc/stm32l0xx_ll_tim.h **** 
1117:Drivers/STM32L0xx_HAL_Driver/Inc/stm32l0xx_ll_tim.h **** /**
1118:Drivers/STM32L0xx_HAL_Driver/Inc/stm32l0xx_ll_tim.h ****   * @brief  Set the division ratio between the timer clock  and the sampling clock used by the dead
1119:Drivers/STM32L0xx_HAL_Driver/Inc/stm32l0xx_ll_tim.h ****   *         (when supported) and the digital filters.
1120:Drivers/STM32L0xx_HAL_Driver/Inc/stm32l0xx_ll_tim.h ****   * @note Macro IS_TIM_CLOCK_DIVISION_INSTANCE(TIMx) can be used to check
1121:Drivers/STM32L0xx_HAL_Driver/Inc/stm32l0xx_ll_tim.h ****   *       whether or not the clock division feature is supported by the timer
1122:Drivers/STM32L0xx_HAL_Driver/Inc/stm32l0xx_ll_tim.h ****   *       instance.
1123:Drivers/STM32L0xx_HAL_Driver/Inc/stm32l0xx_ll_tim.h ****   * @rmtoll CR1          CKD           LL_TIM_SetClockDivision
1124:Drivers/STM32L0xx_HAL_Driver/Inc/stm32l0xx_ll_tim.h ****   * @param  TIMx Timer instance
1125:Drivers/STM32L0xx_HAL_Driver/Inc/stm32l0xx_ll_tim.h ****   * @param  ClockDivision This parameter can be one of the following values:
1126:Drivers/STM32L0xx_HAL_Driver/Inc/stm32l0xx_ll_tim.h ****   *         @arg @ref LL_TIM_CLOCKDIVISION_DIV1
1127:Drivers/STM32L0xx_HAL_Driver/Inc/stm32l0xx_ll_tim.h ****   *         @arg @ref LL_TIM_CLOCKDIVISION_DIV2
1128:Drivers/STM32L0xx_HAL_Driver/Inc/stm32l0xx_ll_tim.h ****   *         @arg @ref LL_TIM_CLOCKDIVISION_DIV4
1129:Drivers/STM32L0xx_HAL_Driver/Inc/stm32l0xx_ll_tim.h ****   * @retval None
1130:Drivers/STM32L0xx_HAL_Driver/Inc/stm32l0xx_ll_tim.h ****   */
1131:Drivers/STM32L0xx_HAL_Driver/Inc/stm32l0xx_ll_tim.h **** __STATIC_INLINE void LL_TIM_SetClockDivision(TIM_TypeDef *TIMx, uint32_t ClockDivision)
1132:Drivers/STM32L0xx_HAL_Driver/Inc/stm32l0xx_ll_tim.h **** {
1133:Drivers/STM32L0xx_HAL_Driver/Inc/stm32l0xx_ll_tim.h ****   MODIFY_REG(TIMx->CR1, TIM_CR1_CKD, ClockDivision);
1134:Drivers/STM32L0xx_HAL_Driver/Inc/stm32l0xx_ll_tim.h **** }
1135:Drivers/STM32L0xx_HAL_Driver/Inc/stm32l0xx_ll_tim.h **** 
1136:Drivers/STM32L0xx_HAL_Driver/Inc/stm32l0xx_ll_tim.h **** /**
1137:Drivers/STM32L0xx_HAL_Driver/Inc/stm32l0xx_ll_tim.h ****   * @brief  Get the actual division ratio between the timer clock  and the sampling clock used by t
1138:Drivers/STM32L0xx_HAL_Driver/Inc/stm32l0xx_ll_tim.h ****   *         generators (when supported) and the digital filters.
1139:Drivers/STM32L0xx_HAL_Driver/Inc/stm32l0xx_ll_tim.h ****   * @note Macro IS_TIM_CLOCK_DIVISION_INSTANCE(TIMx) can be used to check
1140:Drivers/STM32L0xx_HAL_Driver/Inc/stm32l0xx_ll_tim.h ****   *       whether or not the clock division feature is supported by the timer
1141:Drivers/STM32L0xx_HAL_Driver/Inc/stm32l0xx_ll_tim.h ****   *       instance.
1142:Drivers/STM32L0xx_HAL_Driver/Inc/stm32l0xx_ll_tim.h ****   * @rmtoll CR1          CKD           LL_TIM_GetClockDivision
1143:Drivers/STM32L0xx_HAL_Driver/Inc/stm32l0xx_ll_tim.h ****   * @param  TIMx Timer instance
1144:Drivers/STM32L0xx_HAL_Driver/Inc/stm32l0xx_ll_tim.h ****   * @retval Returned value can be one of the following values:
1145:Drivers/STM32L0xx_HAL_Driver/Inc/stm32l0xx_ll_tim.h ****   *         @arg @ref LL_TIM_CLOCKDIVISION_DIV1
1146:Drivers/STM32L0xx_HAL_Driver/Inc/stm32l0xx_ll_tim.h ****   *         @arg @ref LL_TIM_CLOCKDIVISION_DIV2
1147:Drivers/STM32L0xx_HAL_Driver/Inc/stm32l0xx_ll_tim.h ****   *         @arg @ref LL_TIM_CLOCKDIVISION_DIV4
1148:Drivers/STM32L0xx_HAL_Driver/Inc/stm32l0xx_ll_tim.h ****   */
1149:Drivers/STM32L0xx_HAL_Driver/Inc/stm32l0xx_ll_tim.h **** __STATIC_INLINE uint32_t LL_TIM_GetClockDivision(TIM_TypeDef *TIMx)
1150:Drivers/STM32L0xx_HAL_Driver/Inc/stm32l0xx_ll_tim.h **** {
1151:Drivers/STM32L0xx_HAL_Driver/Inc/stm32l0xx_ll_tim.h ****   return (uint32_t)(READ_BIT(TIMx->CR1, TIM_CR1_CKD));
1152:Drivers/STM32L0xx_HAL_Driver/Inc/stm32l0xx_ll_tim.h **** }
1153:Drivers/STM32L0xx_HAL_Driver/Inc/stm32l0xx_ll_tim.h **** 
1154:Drivers/STM32L0xx_HAL_Driver/Inc/stm32l0xx_ll_tim.h **** /**
1155:Drivers/STM32L0xx_HAL_Driver/Inc/stm32l0xx_ll_tim.h ****   * @brief  Set the counter value.
ARM GAS  /tmp/ccr6mobF.s 			page 46


1156:Drivers/STM32L0xx_HAL_Driver/Inc/stm32l0xx_ll_tim.h ****   * @rmtoll CNT          CNT           LL_TIM_SetCounter
1157:Drivers/STM32L0xx_HAL_Driver/Inc/stm32l0xx_ll_tim.h ****   * @param  TIMx Timer instance
1158:Drivers/STM32L0xx_HAL_Driver/Inc/stm32l0xx_ll_tim.h ****   * @param  Counter Counter value (between Min_Data=0 and Max_Data=0xFFFF)
1159:Drivers/STM32L0xx_HAL_Driver/Inc/stm32l0xx_ll_tim.h ****   * @retval None
1160:Drivers/STM32L0xx_HAL_Driver/Inc/stm32l0xx_ll_tim.h ****   */
1161:Drivers/STM32L0xx_HAL_Driver/Inc/stm32l0xx_ll_tim.h **** __STATIC_INLINE void LL_TIM_SetCounter(TIM_TypeDef *TIMx, uint32_t Counter)
1162:Drivers/STM32L0xx_HAL_Driver/Inc/stm32l0xx_ll_tim.h **** {
1163:Drivers/STM32L0xx_HAL_Driver/Inc/stm32l0xx_ll_tim.h ****   WRITE_REG(TIMx->CNT, Counter);
1164:Drivers/STM32L0xx_HAL_Driver/Inc/stm32l0xx_ll_tim.h **** }
1165:Drivers/STM32L0xx_HAL_Driver/Inc/stm32l0xx_ll_tim.h **** 
1166:Drivers/STM32L0xx_HAL_Driver/Inc/stm32l0xx_ll_tim.h **** /**
1167:Drivers/STM32L0xx_HAL_Driver/Inc/stm32l0xx_ll_tim.h ****   * @brief  Get the counter value.
1168:Drivers/STM32L0xx_HAL_Driver/Inc/stm32l0xx_ll_tim.h ****   * @rmtoll CNT          CNT           LL_TIM_GetCounter
1169:Drivers/STM32L0xx_HAL_Driver/Inc/stm32l0xx_ll_tim.h ****   * @param  TIMx Timer instance
1170:Drivers/STM32L0xx_HAL_Driver/Inc/stm32l0xx_ll_tim.h ****   * @retval Counter value (between Min_Data=0 and Max_Data=0xFFFF)
1171:Drivers/STM32L0xx_HAL_Driver/Inc/stm32l0xx_ll_tim.h ****   */
1172:Drivers/STM32L0xx_HAL_Driver/Inc/stm32l0xx_ll_tim.h **** __STATIC_INLINE uint32_t LL_TIM_GetCounter(TIM_TypeDef *TIMx)
1173:Drivers/STM32L0xx_HAL_Driver/Inc/stm32l0xx_ll_tim.h **** {
1174:Drivers/STM32L0xx_HAL_Driver/Inc/stm32l0xx_ll_tim.h ****   return (uint32_t)(READ_REG(TIMx->CNT));
1175:Drivers/STM32L0xx_HAL_Driver/Inc/stm32l0xx_ll_tim.h **** }
1176:Drivers/STM32L0xx_HAL_Driver/Inc/stm32l0xx_ll_tim.h **** 
1177:Drivers/STM32L0xx_HAL_Driver/Inc/stm32l0xx_ll_tim.h **** /**
1178:Drivers/STM32L0xx_HAL_Driver/Inc/stm32l0xx_ll_tim.h ****   * @brief  Get the current direction of the counter
1179:Drivers/STM32L0xx_HAL_Driver/Inc/stm32l0xx_ll_tim.h ****   * @rmtoll CR1          DIR           LL_TIM_GetDirection
1180:Drivers/STM32L0xx_HAL_Driver/Inc/stm32l0xx_ll_tim.h ****   * @param  TIMx Timer instance
1181:Drivers/STM32L0xx_HAL_Driver/Inc/stm32l0xx_ll_tim.h ****   * @retval Returned value can be one of the following values:
1182:Drivers/STM32L0xx_HAL_Driver/Inc/stm32l0xx_ll_tim.h ****   *         @arg @ref LL_TIM_COUNTERDIRECTION_UP
1183:Drivers/STM32L0xx_HAL_Driver/Inc/stm32l0xx_ll_tim.h ****   *         @arg @ref LL_TIM_COUNTERDIRECTION_DOWN
1184:Drivers/STM32L0xx_HAL_Driver/Inc/stm32l0xx_ll_tim.h ****   */
1185:Drivers/STM32L0xx_HAL_Driver/Inc/stm32l0xx_ll_tim.h **** __STATIC_INLINE uint32_t LL_TIM_GetDirection(TIM_TypeDef *TIMx)
1186:Drivers/STM32L0xx_HAL_Driver/Inc/stm32l0xx_ll_tim.h **** {
1187:Drivers/STM32L0xx_HAL_Driver/Inc/stm32l0xx_ll_tim.h ****   return (uint32_t)(READ_BIT(TIMx->CR1, TIM_CR1_DIR));
1188:Drivers/STM32L0xx_HAL_Driver/Inc/stm32l0xx_ll_tim.h **** }
1189:Drivers/STM32L0xx_HAL_Driver/Inc/stm32l0xx_ll_tim.h **** 
1190:Drivers/STM32L0xx_HAL_Driver/Inc/stm32l0xx_ll_tim.h **** /**
1191:Drivers/STM32L0xx_HAL_Driver/Inc/stm32l0xx_ll_tim.h ****   * @brief  Set the prescaler value.
1192:Drivers/STM32L0xx_HAL_Driver/Inc/stm32l0xx_ll_tim.h ****   * @note The counter clock frequency CK_CNT is equal to fCK_PSC / (PSC[15:0] + 1).
1193:Drivers/STM32L0xx_HAL_Driver/Inc/stm32l0xx_ll_tim.h ****   * @note The prescaler can be changed on the fly as this control register is buffered. The new
1194:Drivers/STM32L0xx_HAL_Driver/Inc/stm32l0xx_ll_tim.h ****   *       prescaler ratio is taken into account at the next update event.
1195:Drivers/STM32L0xx_HAL_Driver/Inc/stm32l0xx_ll_tim.h ****   * @note Helper macro @ref __LL_TIM_CALC_PSC can be used to calculate the Prescaler parameter
1196:Drivers/STM32L0xx_HAL_Driver/Inc/stm32l0xx_ll_tim.h ****   * @rmtoll PSC          PSC           LL_TIM_SetPrescaler
1197:Drivers/STM32L0xx_HAL_Driver/Inc/stm32l0xx_ll_tim.h ****   * @param  TIMx Timer instance
1198:Drivers/STM32L0xx_HAL_Driver/Inc/stm32l0xx_ll_tim.h ****   * @param  Prescaler between Min_Data=0 and Max_Data=65535
1199:Drivers/STM32L0xx_HAL_Driver/Inc/stm32l0xx_ll_tim.h ****   * @retval None
1200:Drivers/STM32L0xx_HAL_Driver/Inc/stm32l0xx_ll_tim.h ****   */
1201:Drivers/STM32L0xx_HAL_Driver/Inc/stm32l0xx_ll_tim.h **** __STATIC_INLINE void LL_TIM_SetPrescaler(TIM_TypeDef *TIMx, uint32_t Prescaler)
1202:Drivers/STM32L0xx_HAL_Driver/Inc/stm32l0xx_ll_tim.h **** {
1203:Drivers/STM32L0xx_HAL_Driver/Inc/stm32l0xx_ll_tim.h ****   WRITE_REG(TIMx->PSC, Prescaler);
1204:Drivers/STM32L0xx_HAL_Driver/Inc/stm32l0xx_ll_tim.h **** }
1205:Drivers/STM32L0xx_HAL_Driver/Inc/stm32l0xx_ll_tim.h **** 
1206:Drivers/STM32L0xx_HAL_Driver/Inc/stm32l0xx_ll_tim.h **** /**
1207:Drivers/STM32L0xx_HAL_Driver/Inc/stm32l0xx_ll_tim.h ****   * @brief  Get the prescaler value.
1208:Drivers/STM32L0xx_HAL_Driver/Inc/stm32l0xx_ll_tim.h ****   * @rmtoll PSC          PSC           LL_TIM_GetPrescaler
1209:Drivers/STM32L0xx_HAL_Driver/Inc/stm32l0xx_ll_tim.h ****   * @param  TIMx Timer instance
1210:Drivers/STM32L0xx_HAL_Driver/Inc/stm32l0xx_ll_tim.h ****   * @retval  Prescaler value between Min_Data=0 and Max_Data=65535
1211:Drivers/STM32L0xx_HAL_Driver/Inc/stm32l0xx_ll_tim.h ****   */
1212:Drivers/STM32L0xx_HAL_Driver/Inc/stm32l0xx_ll_tim.h **** __STATIC_INLINE uint32_t LL_TIM_GetPrescaler(TIM_TypeDef *TIMx)
ARM GAS  /tmp/ccr6mobF.s 			page 47


1213:Drivers/STM32L0xx_HAL_Driver/Inc/stm32l0xx_ll_tim.h **** {
1214:Drivers/STM32L0xx_HAL_Driver/Inc/stm32l0xx_ll_tim.h ****   return (uint32_t)(READ_REG(TIMx->PSC));
1215:Drivers/STM32L0xx_HAL_Driver/Inc/stm32l0xx_ll_tim.h **** }
1216:Drivers/STM32L0xx_HAL_Driver/Inc/stm32l0xx_ll_tim.h **** 
1217:Drivers/STM32L0xx_HAL_Driver/Inc/stm32l0xx_ll_tim.h **** /**
1218:Drivers/STM32L0xx_HAL_Driver/Inc/stm32l0xx_ll_tim.h ****   * @brief  Set the auto-reload value.
1219:Drivers/STM32L0xx_HAL_Driver/Inc/stm32l0xx_ll_tim.h ****   * @note The counter is blocked while the auto-reload value is null.
1220:Drivers/STM32L0xx_HAL_Driver/Inc/stm32l0xx_ll_tim.h ****   * @note Helper macro @ref __LL_TIM_CALC_ARR can be used to calculate the AutoReload parameter
1221:Drivers/STM32L0xx_HAL_Driver/Inc/stm32l0xx_ll_tim.h ****   * @rmtoll ARR          ARR           LL_TIM_SetAutoReload
1222:Drivers/STM32L0xx_HAL_Driver/Inc/stm32l0xx_ll_tim.h ****   * @param  TIMx Timer instance
1223:Drivers/STM32L0xx_HAL_Driver/Inc/stm32l0xx_ll_tim.h ****   * @param  AutoReload between Min_Data=0 and Max_Data=65535
1224:Drivers/STM32L0xx_HAL_Driver/Inc/stm32l0xx_ll_tim.h ****   * @retval None
1225:Drivers/STM32L0xx_HAL_Driver/Inc/stm32l0xx_ll_tim.h ****   */
1226:Drivers/STM32L0xx_HAL_Driver/Inc/stm32l0xx_ll_tim.h **** __STATIC_INLINE void LL_TIM_SetAutoReload(TIM_TypeDef *TIMx, uint32_t AutoReload)
1227:Drivers/STM32L0xx_HAL_Driver/Inc/stm32l0xx_ll_tim.h **** {
1228:Drivers/STM32L0xx_HAL_Driver/Inc/stm32l0xx_ll_tim.h ****   WRITE_REG(TIMx->ARR, AutoReload);
1229:Drivers/STM32L0xx_HAL_Driver/Inc/stm32l0xx_ll_tim.h **** }
1230:Drivers/STM32L0xx_HAL_Driver/Inc/stm32l0xx_ll_tim.h **** 
1231:Drivers/STM32L0xx_HAL_Driver/Inc/stm32l0xx_ll_tim.h **** /**
1232:Drivers/STM32L0xx_HAL_Driver/Inc/stm32l0xx_ll_tim.h ****   * @brief  Get the auto-reload value.
1233:Drivers/STM32L0xx_HAL_Driver/Inc/stm32l0xx_ll_tim.h ****   * @rmtoll ARR          ARR           LL_TIM_GetAutoReload
1234:Drivers/STM32L0xx_HAL_Driver/Inc/stm32l0xx_ll_tim.h ****   * @param  TIMx Timer instance
1235:Drivers/STM32L0xx_HAL_Driver/Inc/stm32l0xx_ll_tim.h ****   * @retval Auto-reload value
1236:Drivers/STM32L0xx_HAL_Driver/Inc/stm32l0xx_ll_tim.h ****   */
1237:Drivers/STM32L0xx_HAL_Driver/Inc/stm32l0xx_ll_tim.h **** __STATIC_INLINE uint32_t LL_TIM_GetAutoReload(TIM_TypeDef *TIMx)
1238:Drivers/STM32L0xx_HAL_Driver/Inc/stm32l0xx_ll_tim.h **** {
1239:Drivers/STM32L0xx_HAL_Driver/Inc/stm32l0xx_ll_tim.h ****   return (uint32_t)(READ_REG(TIMx->ARR));
1240:Drivers/STM32L0xx_HAL_Driver/Inc/stm32l0xx_ll_tim.h **** }
1241:Drivers/STM32L0xx_HAL_Driver/Inc/stm32l0xx_ll_tim.h **** 
1242:Drivers/STM32L0xx_HAL_Driver/Inc/stm32l0xx_ll_tim.h **** /**
1243:Drivers/STM32L0xx_HAL_Driver/Inc/stm32l0xx_ll_tim.h ****   * @}
1244:Drivers/STM32L0xx_HAL_Driver/Inc/stm32l0xx_ll_tim.h ****   */
1245:Drivers/STM32L0xx_HAL_Driver/Inc/stm32l0xx_ll_tim.h **** 
1246:Drivers/STM32L0xx_HAL_Driver/Inc/stm32l0xx_ll_tim.h **** /** @defgroup TIM_LL_EF_Capture_Compare Capture Compare configuration
1247:Drivers/STM32L0xx_HAL_Driver/Inc/stm32l0xx_ll_tim.h ****   * @{
1248:Drivers/STM32L0xx_HAL_Driver/Inc/stm32l0xx_ll_tim.h ****   */
1249:Drivers/STM32L0xx_HAL_Driver/Inc/stm32l0xx_ll_tim.h **** /**
1250:Drivers/STM32L0xx_HAL_Driver/Inc/stm32l0xx_ll_tim.h ****   * @brief  Set the trigger of the capture/compare DMA request.
1251:Drivers/STM32L0xx_HAL_Driver/Inc/stm32l0xx_ll_tim.h ****   * @rmtoll CR2          CCDS          LL_TIM_CC_SetDMAReqTrigger
1252:Drivers/STM32L0xx_HAL_Driver/Inc/stm32l0xx_ll_tim.h ****   * @param  TIMx Timer instance
1253:Drivers/STM32L0xx_HAL_Driver/Inc/stm32l0xx_ll_tim.h ****   * @param  DMAReqTrigger This parameter can be one of the following values:
1254:Drivers/STM32L0xx_HAL_Driver/Inc/stm32l0xx_ll_tim.h ****   *         @arg @ref LL_TIM_CCDMAREQUEST_CC
